ARM GAS  C:\Users\austc\AppData\Local\Temp\ccxU0eYj.s 			page 1


   1              		.syntax unified
   2              		.cpu cortex-m0
   3              		.fpu softvfp
   4              		.eabi_attribute 20, 1
   5              		.eabi_attribute 21, 1
   6              		.eabi_attribute 23, 3
   7              		.eabi_attribute 24, 1
   8              		.eabi_attribute 25, 1
   9              		.eabi_attribute 26, 1
  10              		.eabi_attribute 30, 1
  11              		.eabi_attribute 34, 0
  12              		.eabi_attribute 18, 4
  13              		.thumb
  14              		.syntax unified
  15              		.file	"cyfitter_cfg.c"
  16              		.text
  17              	.Ltext0:
  18              		.cfi_sections	.debug_frame
  19              		.section	.text.cfg_write_bytes32,"ax",%progbits
  20              		.align	2
  21              		.code	16
  22              		.thumb_func
  23              		.type	cfg_write_bytes32, %function
  24              	cfg_write_bytes32:
  25              	.LFB4:
  26              		.file 1 "Generated_Source\\PSoC4\\cyfitter_cfg.c"
   1:Generated_Source\PSoC4/cyfitter_cfg.c **** 
   2:Generated_Source\PSoC4/cyfitter_cfg.c **** /*******************************************************************************
   3:Generated_Source\PSoC4/cyfitter_cfg.c **** * File Name: cyfitter_cfg.c
   4:Generated_Source\PSoC4/cyfitter_cfg.c **** * 
   5:Generated_Source\PSoC4/cyfitter_cfg.c **** * PSoC Creator  4.2
   6:Generated_Source\PSoC4/cyfitter_cfg.c **** *
   7:Generated_Source\PSoC4/cyfitter_cfg.c **** * Description:
   8:Generated_Source\PSoC4/cyfitter_cfg.c **** * This file contains device initialization code.
   9:Generated_Source\PSoC4/cyfitter_cfg.c **** * Except for the user defined sections in CyClockStartupError(), this file should not be modified.
  10:Generated_Source\PSoC4/cyfitter_cfg.c **** * This file is automatically generated by PSoC Creator.
  11:Generated_Source\PSoC4/cyfitter_cfg.c **** *
  12:Generated_Source\PSoC4/cyfitter_cfg.c **** ********************************************************************************
  13:Generated_Source\PSoC4/cyfitter_cfg.c **** * Copyright (c) 2007-2018 Cypress Semiconductor.  All rights reserved.
  14:Generated_Source\PSoC4/cyfitter_cfg.c **** * You may use this file only in accordance with the license, terms, conditions, 
  15:Generated_Source\PSoC4/cyfitter_cfg.c **** * disclaimers, and limitations in the end user license agreement accompanying 
  16:Generated_Source\PSoC4/cyfitter_cfg.c **** * the software package with which this file was provided.
  17:Generated_Source\PSoC4/cyfitter_cfg.c **** ********************************************************************************/
  18:Generated_Source\PSoC4/cyfitter_cfg.c **** 
  19:Generated_Source\PSoC4/cyfitter_cfg.c **** #include <string.h>
  20:Generated_Source\PSoC4/cyfitter_cfg.c **** #include "cytypes.h"
  21:Generated_Source\PSoC4/cyfitter_cfg.c **** #include "cydevice_trm.h"
  22:Generated_Source\PSoC4/cyfitter_cfg.c **** #include "cyfitter.h"
  23:Generated_Source\PSoC4/cyfitter_cfg.c **** #include "CyLib.h"
  24:Generated_Source\PSoC4/cyfitter_cfg.c **** #include "CyLFClk.h"
  25:Generated_Source\PSoC4/cyfitter_cfg.c **** #include "cyfitter_cfg.h"
  26:Generated_Source\PSoC4/cyfitter_cfg.c **** #include "cyapicallbacks.h"
  27:Generated_Source\PSoC4/cyfitter_cfg.c **** 
  28:Generated_Source\PSoC4/cyfitter_cfg.c **** 
  29:Generated_Source\PSoC4/cyfitter_cfg.c **** #if defined(__GNUC__) || defined(__ARMCC_VERSION)
  30:Generated_Source\PSoC4/cyfitter_cfg.c ****     #define CYPACKED 
  31:Generated_Source\PSoC4/cyfitter_cfg.c ****     #define CYPACKED_ATTR __attribute__ ((packed))
ARM GAS  C:\Users\austc\AppData\Local\Temp\ccxU0eYj.s 			page 2


  32:Generated_Source\PSoC4/cyfitter_cfg.c ****     #define CYALIGNED __attribute__ ((aligned))
  33:Generated_Source\PSoC4/cyfitter_cfg.c ****     #define CY_CFG_UNUSED __attribute__ ((unused))
  34:Generated_Source\PSoC4/cyfitter_cfg.c ****     #ifndef CY_CFG_SECTION
  35:Generated_Source\PSoC4/cyfitter_cfg.c ****         #define CY_CFG_SECTION __attribute__ ((section(".psocinit")))
  36:Generated_Source\PSoC4/cyfitter_cfg.c ****     #endif
  37:Generated_Source\PSoC4/cyfitter_cfg.c ****     
  38:Generated_Source\PSoC4/cyfitter_cfg.c ****     #if defined(__ARMCC_VERSION)
  39:Generated_Source\PSoC4/cyfitter_cfg.c ****         #define CY_CFG_MEMORY_BARRIER() __memory_changed()
  40:Generated_Source\PSoC4/cyfitter_cfg.c ****     #else
  41:Generated_Source\PSoC4/cyfitter_cfg.c ****         #define CY_CFG_MEMORY_BARRIER() __sync_synchronize()
  42:Generated_Source\PSoC4/cyfitter_cfg.c ****     #endif
  43:Generated_Source\PSoC4/cyfitter_cfg.c ****     
  44:Generated_Source\PSoC4/cyfitter_cfg.c **** #elif defined(__ICCARM__)
  45:Generated_Source\PSoC4/cyfitter_cfg.c ****     #include <intrinsics.h>
  46:Generated_Source\PSoC4/cyfitter_cfg.c **** 
  47:Generated_Source\PSoC4/cyfitter_cfg.c ****     #define CYPACKED __packed
  48:Generated_Source\PSoC4/cyfitter_cfg.c ****     #define CYPACKED_ATTR 
  49:Generated_Source\PSoC4/cyfitter_cfg.c ****     #define CYALIGNED _Pragma("data_alignment=4")
  50:Generated_Source\PSoC4/cyfitter_cfg.c ****     #define CY_CFG_UNUSED _Pragma("diag_suppress=Pe177")
  51:Generated_Source\PSoC4/cyfitter_cfg.c ****     #define CY_CFG_SECTION _Pragma("location=\".psocinit\"")
  52:Generated_Source\PSoC4/cyfitter_cfg.c ****     
  53:Generated_Source\PSoC4/cyfitter_cfg.c ****     #define CY_CFG_MEMORY_BARRIER() __DMB()
  54:Generated_Source\PSoC4/cyfitter_cfg.c ****     
  55:Generated_Source\PSoC4/cyfitter_cfg.c **** #else
  56:Generated_Source\PSoC4/cyfitter_cfg.c ****     #error Unsupported toolchain
  57:Generated_Source\PSoC4/cyfitter_cfg.c **** #endif
  58:Generated_Source\PSoC4/cyfitter_cfg.c **** 
  59:Generated_Source\PSoC4/cyfitter_cfg.c **** #ifndef CYCODE
  60:Generated_Source\PSoC4/cyfitter_cfg.c ****     #define CYCODE
  61:Generated_Source\PSoC4/cyfitter_cfg.c **** #endif
  62:Generated_Source\PSoC4/cyfitter_cfg.c **** #ifndef CYDATA
  63:Generated_Source\PSoC4/cyfitter_cfg.c ****     #define CYDATA
  64:Generated_Source\PSoC4/cyfitter_cfg.c **** #endif
  65:Generated_Source\PSoC4/cyfitter_cfg.c **** #ifndef CYFAR
  66:Generated_Source\PSoC4/cyfitter_cfg.c ****     #define CYFAR
  67:Generated_Source\PSoC4/cyfitter_cfg.c **** #endif
  68:Generated_Source\PSoC4/cyfitter_cfg.c **** #ifndef CYXDATA
  69:Generated_Source\PSoC4/cyfitter_cfg.c ****     #define CYXDATA
  70:Generated_Source\PSoC4/cyfitter_cfg.c **** #endif
  71:Generated_Source\PSoC4/cyfitter_cfg.c **** 
  72:Generated_Source\PSoC4/cyfitter_cfg.c **** 
  73:Generated_Source\PSoC4/cyfitter_cfg.c **** CY_CFG_UNUSED
  74:Generated_Source\PSoC4/cyfitter_cfg.c **** static void CYMEMZERO(void *s, size_t n);
  75:Generated_Source\PSoC4/cyfitter_cfg.c **** CY_CFG_UNUSED
  76:Generated_Source\PSoC4/cyfitter_cfg.c **** static void CYMEMZERO(void *s, size_t n)
  77:Generated_Source\PSoC4/cyfitter_cfg.c **** {
  78:Generated_Source\PSoC4/cyfitter_cfg.c **** 	(void)memset(s, 0, n);
  79:Generated_Source\PSoC4/cyfitter_cfg.c **** }
  80:Generated_Source\PSoC4/cyfitter_cfg.c **** CY_CFG_UNUSED
  81:Generated_Source\PSoC4/cyfitter_cfg.c **** static void CYCONFIGCPY(void *dest, const void *src, size_t n);
  82:Generated_Source\PSoC4/cyfitter_cfg.c **** CY_CFG_UNUSED
  83:Generated_Source\PSoC4/cyfitter_cfg.c **** static void CYCONFIGCPY(void *dest, const void *src, size_t n)
  84:Generated_Source\PSoC4/cyfitter_cfg.c **** {
  85:Generated_Source\PSoC4/cyfitter_cfg.c **** 	(void)memcpy(dest, src, n);
  86:Generated_Source\PSoC4/cyfitter_cfg.c **** }
  87:Generated_Source\PSoC4/cyfitter_cfg.c **** CY_CFG_UNUSED
  88:Generated_Source\PSoC4/cyfitter_cfg.c **** static void CYCONFIGCPYCODE(void *dest, const void *src, size_t n);
ARM GAS  C:\Users\austc\AppData\Local\Temp\ccxU0eYj.s 			page 3


  89:Generated_Source\PSoC4/cyfitter_cfg.c **** CY_CFG_UNUSED
  90:Generated_Source\PSoC4/cyfitter_cfg.c **** static void CYCONFIGCPYCODE(void *dest, const void *src, size_t n)
  91:Generated_Source\PSoC4/cyfitter_cfg.c **** {
  92:Generated_Source\PSoC4/cyfitter_cfg.c **** 	(void)memcpy(dest, src, n);
  93:Generated_Source\PSoC4/cyfitter_cfg.c **** }
  94:Generated_Source\PSoC4/cyfitter_cfg.c **** 
  95:Generated_Source\PSoC4/cyfitter_cfg.c **** 
  96:Generated_Source\PSoC4/cyfitter_cfg.c **** 
  97:Generated_Source\PSoC4/cyfitter_cfg.c **** 
  98:Generated_Source\PSoC4/cyfitter_cfg.c **** /* Clock startup error codes                                                   */
  99:Generated_Source\PSoC4/cyfitter_cfg.c **** #define CYCLOCKSTART_NO_ERROR    0u
 100:Generated_Source\PSoC4/cyfitter_cfg.c **** #define CYCLOCKSTART_XTAL_ERROR  1u
 101:Generated_Source\PSoC4/cyfitter_cfg.c **** #define CYCLOCKSTART_32KHZ_ERROR 2u
 102:Generated_Source\PSoC4/cyfitter_cfg.c **** #define CYCLOCKSTART_PLL_ERROR   3u
 103:Generated_Source\PSoC4/cyfitter_cfg.c **** #define CYCLOCKSTART_FLL_ERROR   4u
 104:Generated_Source\PSoC4/cyfitter_cfg.c **** #define CYCLOCKSTART_WCO_ERROR   5u
 105:Generated_Source\PSoC4/cyfitter_cfg.c **** 
 106:Generated_Source\PSoC4/cyfitter_cfg.c **** 
 107:Generated_Source\PSoC4/cyfitter_cfg.c **** #ifdef CY_NEED_CYCLOCKSTARTUPERROR
 108:Generated_Source\PSoC4/cyfitter_cfg.c **** /*******************************************************************************
 109:Generated_Source\PSoC4/cyfitter_cfg.c **** * Function Name: CyClockStartupError
 110:Generated_Source\PSoC4/cyfitter_cfg.c **** ********************************************************************************
 111:Generated_Source\PSoC4/cyfitter_cfg.c **** * Summary:
 112:Generated_Source\PSoC4/cyfitter_cfg.c **** *  If an error is encountered during clock configuration (crystal startup error,
 113:Generated_Source\PSoC4/cyfitter_cfg.c **** *  PLL lock error, etc.), the system will end up here.  Unless reimplemented by
 114:Generated_Source\PSoC4/cyfitter_cfg.c **** *  the customer, this function will stop in an infinite loop.
 115:Generated_Source\PSoC4/cyfitter_cfg.c **** *
 116:Generated_Source\PSoC4/cyfitter_cfg.c **** * Parameters:
 117:Generated_Source\PSoC4/cyfitter_cfg.c **** *   void
 118:Generated_Source\PSoC4/cyfitter_cfg.c **** *
 119:Generated_Source\PSoC4/cyfitter_cfg.c **** * Return:
 120:Generated_Source\PSoC4/cyfitter_cfg.c **** *   void
 121:Generated_Source\PSoC4/cyfitter_cfg.c **** *
 122:Generated_Source\PSoC4/cyfitter_cfg.c **** *******************************************************************************/
 123:Generated_Source\PSoC4/cyfitter_cfg.c **** CY_CFG_UNUSED
 124:Generated_Source\PSoC4/cyfitter_cfg.c **** static void CyClockStartupError(uint8 errorCode);
 125:Generated_Source\PSoC4/cyfitter_cfg.c **** CY_CFG_UNUSED
 126:Generated_Source\PSoC4/cyfitter_cfg.c **** static void CyClockStartupError(uint8 errorCode)
 127:Generated_Source\PSoC4/cyfitter_cfg.c **** {
 128:Generated_Source\PSoC4/cyfitter_cfg.c ****     /* To remove the compiler warning if errorCode not used.                */
 129:Generated_Source\PSoC4/cyfitter_cfg.c ****     errorCode = errorCode;
 130:Generated_Source\PSoC4/cyfitter_cfg.c **** 
 131:Generated_Source\PSoC4/cyfitter_cfg.c ****     /* If we have a clock startup error (bad MHz crystal, PLL lock, etc.),  */
 132:Generated_Source\PSoC4/cyfitter_cfg.c ****     /* we will end up here to allow the customer to implement something to  */
 133:Generated_Source\PSoC4/cyfitter_cfg.c ****     /* deal with the clock condition.                                       */
 134:Generated_Source\PSoC4/cyfitter_cfg.c **** 
 135:Generated_Source\PSoC4/cyfitter_cfg.c **** #ifdef CY_CFG_CLOCK_STARTUP_ERROR_CALLBACK
 136:Generated_Source\PSoC4/cyfitter_cfg.c ****     CY_CFG_Clock_Startup_ErrorCallback();
 137:Generated_Source\PSoC4/cyfitter_cfg.c **** #else
 138:Generated_Source\PSoC4/cyfitter_cfg.c ****     /*  If not using CY_CFG_CLOCK_STARTUP_ERROR_CALLBACK, place your clock startup code here. */
 139:Generated_Source\PSoC4/cyfitter_cfg.c ****     /* `#START CyClockStartupError` */
 140:Generated_Source\PSoC4/cyfitter_cfg.c **** 
 141:Generated_Source\PSoC4/cyfitter_cfg.c **** 
 142:Generated_Source\PSoC4/cyfitter_cfg.c **** 
 143:Generated_Source\PSoC4/cyfitter_cfg.c ****     /* `#END` */
 144:Generated_Source\PSoC4/cyfitter_cfg.c **** 
 145:Generated_Source\PSoC4/cyfitter_cfg.c ****     while(1) {}
ARM GAS  C:\Users\austc\AppData\Local\Temp\ccxU0eYj.s 			page 4


 146:Generated_Source\PSoC4/cyfitter_cfg.c **** #endif /* CY_CFG_CLOCK_STARTUP_ERROR_CALLBACK */
 147:Generated_Source\PSoC4/cyfitter_cfg.c **** }
 148:Generated_Source\PSoC4/cyfitter_cfg.c **** #endif
 149:Generated_Source\PSoC4/cyfitter_cfg.c **** 
 150:Generated_Source\PSoC4/cyfitter_cfg.c **** #define CY_CFG_BASE_ADDR_COUNT 7u
 151:Generated_Source\PSoC4/cyfitter_cfg.c **** CYPACKED typedef struct
 152:Generated_Source\PSoC4/cyfitter_cfg.c **** {
 153:Generated_Source\PSoC4/cyfitter_cfg.c **** 	uint8 offset;
 154:Generated_Source\PSoC4/cyfitter_cfg.c **** 	uint8 value;
 155:Generated_Source\PSoC4/cyfitter_cfg.c **** } CYPACKED_ATTR cy_cfg_addrvalue_t;
 156:Generated_Source\PSoC4/cyfitter_cfg.c **** 
 157:Generated_Source\PSoC4/cyfitter_cfg.c **** 
 158:Generated_Source\PSoC4/cyfitter_cfg.c **** 
 159:Generated_Source\PSoC4/cyfitter_cfg.c **** /*******************************************************************************
 160:Generated_Source\PSoC4/cyfitter_cfg.c **** * Function Name: cfg_write_bytes32
 161:Generated_Source\PSoC4/cyfitter_cfg.c **** ********************************************************************************
 162:Generated_Source\PSoC4/cyfitter_cfg.c **** * Summary:
 163:Generated_Source\PSoC4/cyfitter_cfg.c **** *  This function is used for setting up the chip configuration areas that
 164:Generated_Source\PSoC4/cyfitter_cfg.c **** *  contain relatively sparse data.
 165:Generated_Source\PSoC4/cyfitter_cfg.c **** *
 166:Generated_Source\PSoC4/cyfitter_cfg.c **** * Parameters:
 167:Generated_Source\PSoC4/cyfitter_cfg.c **** *   void
 168:Generated_Source\PSoC4/cyfitter_cfg.c **** *
 169:Generated_Source\PSoC4/cyfitter_cfg.c **** * Return:
 170:Generated_Source\PSoC4/cyfitter_cfg.c **** *   void
 171:Generated_Source\PSoC4/cyfitter_cfg.c **** *
 172:Generated_Source\PSoC4/cyfitter_cfg.c **** *******************************************************************************/
 173:Generated_Source\PSoC4/cyfitter_cfg.c **** static void cfg_write_bytes32(const uint32 addr_table[], const cy_cfg_addrvalue_t data_table[]);
 174:Generated_Source\PSoC4/cyfitter_cfg.c **** static void cfg_write_bytes32(const uint32 addr_table[], const cy_cfg_addrvalue_t data_table[])
 175:Generated_Source\PSoC4/cyfitter_cfg.c **** {
  27              		.loc 1 175 0
  28              		.cfi_startproc
  29              		@ args = 0, pretend = 0, frame = 0
  30              		@ frame_needed = 0, uses_anonymous_args = 0
  31              	.LVL0:
  32 0000 F0B5     		push	{r4, r5, r6, r7, lr}
  33              		.cfi_def_cfa_offset 20
  34              		.cfi_offset 4, -20
  35              		.cfi_offset 5, -16
  36              		.cfi_offset 6, -12
  37              		.cfi_offset 7, -8
  38              		.cfi_offset 14, -4
  39              	.LVL1:
 176:Generated_Source\PSoC4/cyfitter_cfg.c **** 	/* For 32-bit little-endian architectures */
 177:Generated_Source\PSoC4/cyfitter_cfg.c **** 	uint32 i, j = 0u;
  40              		.loc 1 177 0
  41 0002 0025     		movs	r5, #0
 178:Generated_Source\PSoC4/cyfitter_cfg.c **** 	for (i = 0u; i < CY_CFG_BASE_ADDR_COUNT; i++)
  42              		.loc 1 178 0
  43 0004 0027     		movs	r7, #0
  44 0006 11E0     		b	.L2
  45              	.LVL2:
  46              	.L5:
  47              	.LBB2:
 179:Generated_Source\PSoC4/cyfitter_cfg.c **** 	{
 180:Generated_Source\PSoC4/cyfitter_cfg.c **** 		uint32 baseAddr = addr_table[i];
  48              		.loc 1 180 0
ARM GAS  C:\Users\austc\AppData\Local\Temp\ccxU0eYj.s 			page 5


  49 0008 BB00     		lsls	r3, r7, #2
  50 000a C658     		ldr	r6, [r0, r3]
  51              	.LVL3:
 181:Generated_Source\PSoC4/cyfitter_cfg.c **** 		uint8 count = (uint8)baseAddr;
  52              		.loc 1 181 0
  53 000c F3B2     		uxtb	r3, r6
  54              	.LVL4:
 182:Generated_Source\PSoC4/cyfitter_cfg.c **** 		baseAddr &= 0xFFFFFF00u;
  55              		.loc 1 182 0
  56 000e FF22     		movs	r2, #255
  57 0010 9643     		bics	r6, r2
  58              	.LVL5:
 183:Generated_Source\PSoC4/cyfitter_cfg.c **** 		while (count != 0u)
  59              		.loc 1 183 0
  60 0012 08E0     		b	.L3
  61              	.L4:
 184:Generated_Source\PSoC4/cyfitter_cfg.c **** 		{
 185:Generated_Source\PSoC4/cyfitter_cfg.c **** 			CY_SET_REG8((void *)(baseAddr + data_table[j].offset), data_table[j].value);
  62              		.loc 1 185 0
  63 0014 6A00     		lsls	r2, r5, #1
  64 0016 8A18     		adds	r2, r1, r2
  65 0018 1478     		ldrb	r4, [r2]
  66 001a A419     		adds	r4, r4, r6
  67 001c 5278     		ldrb	r2, [r2, #1]
  68 001e 2270     		strb	r2, [r4]
 186:Generated_Source\PSoC4/cyfitter_cfg.c **** 			j++;
  69              		.loc 1 186 0
  70 0020 0135     		adds	r5, r5, #1
  71              	.LVL6:
 187:Generated_Source\PSoC4/cyfitter_cfg.c **** 			count--;
  72              		.loc 1 187 0
  73 0022 013B     		subs	r3, r3, #1
  74              	.LVL7:
  75 0024 DBB2     		uxtb	r3, r3
  76              	.LVL8:
  77              	.L3:
 183:Generated_Source\PSoC4/cyfitter_cfg.c **** 		{
  78              		.loc 1 183 0
  79 0026 002B     		cmp	r3, #0
  80 0028 F4D1     		bne	.L4
  81              	.LBE2:
 178:Generated_Source\PSoC4/cyfitter_cfg.c **** 	{
  82              		.loc 1 178 0 discriminator 2
  83 002a 0137     		adds	r7, r7, #1
  84              	.LVL9:
  85              	.L2:
 178:Generated_Source\PSoC4/cyfitter_cfg.c **** 	{
  86              		.loc 1 178 0 is_stmt 0 discriminator 1
  87 002c 062F     		cmp	r7, #6
  88 002e EBD9     		bls	.L5
 188:Generated_Source\PSoC4/cyfitter_cfg.c **** 		}
 189:Generated_Source\PSoC4/cyfitter_cfg.c **** 	}
 190:Generated_Source\PSoC4/cyfitter_cfg.c **** }
  89              		.loc 1 190 0 is_stmt 1
  90              		@ sp needed
  91              	.LVL10:
  92              	.LVL11:
ARM GAS  C:\Users\austc\AppData\Local\Temp\ccxU0eYj.s 			page 6


  93 0030 F0BD     		pop	{r4, r5, r6, r7, pc}
  94              		.cfi_endproc
  95              	.LFE4:
  96              		.size	cfg_write_bytes32, .-cfg_write_bytes32
  97 0032 C046     		.section	.text.CYMEMZERO,"ax",%progbits
  98              		.align	2
  99              		.code	16
 100              		.thumb_func
 101              		.type	CYMEMZERO, %function
 102              	CYMEMZERO:
 103              	.LFB1:
  77:Generated_Source\PSoC4/cyfitter_cfg.c **** 	(void)memset(s, 0, n);
 104              		.loc 1 77 0
 105              		.cfi_startproc
 106              		@ args = 0, pretend = 0, frame = 0
 107              		@ frame_needed = 0, uses_anonymous_args = 0
 108              	.LVL12:
 109 0000 10B5     		push	{r4, lr}
 110              		.cfi_def_cfa_offset 8
 111              		.cfi_offset 4, -8
 112              		.cfi_offset 14, -4
 113 0002 0A00     		movs	r2, r1
  78:Generated_Source\PSoC4/cyfitter_cfg.c **** }
 114              		.loc 1 78 0
 115 0004 0021     		movs	r1, #0
 116              	.LVL13:
 117 0006 FFF7FEFF 		bl	memset
 118              	.LVL14:
  79:Generated_Source\PSoC4/cyfitter_cfg.c **** CY_CFG_UNUSED
 119              		.loc 1 79 0
 120              		@ sp needed
 121 000a 10BD     		pop	{r4, pc}
 122              		.cfi_endproc
 123              	.LFE1:
 124              		.size	CYMEMZERO, .-CYMEMZERO
 125              		.section	.psocinit,"ax",%progbits
 126              		.align	2
 127              		.code	16
 128              		.thumb_func
 129              		.type	ClockSetup, %function
 130              	ClockSetup:
 131              	.LFB5:
 191:Generated_Source\PSoC4/cyfitter_cfg.c **** 
 192:Generated_Source\PSoC4/cyfitter_cfg.c **** 
 193:Generated_Source\PSoC4/cyfitter_cfg.c **** /*******************************************************************************
 194:Generated_Source\PSoC4/cyfitter_cfg.c **** * Function Name: ClockSetup
 195:Generated_Source\PSoC4/cyfitter_cfg.c **** ********************************************************************************
 196:Generated_Source\PSoC4/cyfitter_cfg.c **** *
 197:Generated_Source\PSoC4/cyfitter_cfg.c **** * Summary:
 198:Generated_Source\PSoC4/cyfitter_cfg.c **** *   Performs the initialization of all of the clocks in the device based on the
 199:Generated_Source\PSoC4/cyfitter_cfg.c **** *   settings in the Clock tab of the DWR.  This includes enabling the requested
 200:Generated_Source\PSoC4/cyfitter_cfg.c **** *   clocks and setting the necessary dividers to produce the desired frequency. 
 201:Generated_Source\PSoC4/cyfitter_cfg.c **** *
 202:Generated_Source\PSoC4/cyfitter_cfg.c **** * Parameters:
 203:Generated_Source\PSoC4/cyfitter_cfg.c **** *   void
 204:Generated_Source\PSoC4/cyfitter_cfg.c **** *
 205:Generated_Source\PSoC4/cyfitter_cfg.c **** * Return:
ARM GAS  C:\Users\austc\AppData\Local\Temp\ccxU0eYj.s 			page 7


 206:Generated_Source\PSoC4/cyfitter_cfg.c **** *   void
 207:Generated_Source\PSoC4/cyfitter_cfg.c **** *
 208:Generated_Source\PSoC4/cyfitter_cfg.c **** *******************************************************************************/
 209:Generated_Source\PSoC4/cyfitter_cfg.c **** static void ClockSetup(void);
 210:Generated_Source\PSoC4/cyfitter_cfg.c **** CY_CFG_SECTION
 211:Generated_Source\PSoC4/cyfitter_cfg.c **** static void ClockSetup(void)
 212:Generated_Source\PSoC4/cyfitter_cfg.c **** {
 132              		.loc 1 212 0
 133              		.cfi_startproc
 134              		@ args = 0, pretend = 0, frame = 0
 135              		@ frame_needed = 0, uses_anonymous_args = 0
 136 0000 70B5     		push	{r4, r5, r6, lr}
 137              		.cfi_def_cfa_offset 16
 138              		.cfi_offset 4, -16
 139              		.cfi_offset 5, -12
 140              		.cfi_offset 6, -8
 141              		.cfi_offset 14, -4
 213:Generated_Source\PSoC4/cyfitter_cfg.c **** 
 214:Generated_Source\PSoC4/cyfitter_cfg.c **** 	/* Set Flash Cycles based on max possible frequency in case a glitch occurs during ClockSetup(). *
 215:Generated_Source\PSoC4/cyfitter_cfg.c **** 	CY_SET_REG32((void CYXDATA *)(CYREG_CPUSS_FLASH_CTL), (0x0012u));
 142              		.loc 1 215 0
 143 0002 1222     		movs	r2, #18
 144 0004 224B     		ldr	r3, .L8
 145 0006 1A60     		str	r2, [r3]
 216:Generated_Source\PSoC4/cyfitter_cfg.c **** 
 217:Generated_Source\PSoC4/cyfitter_cfg.c **** 	/* Start the WCO */
 218:Generated_Source\PSoC4/cyfitter_cfg.c **** 	CySysClkWcoStart();
 146              		.loc 1 218 0
 147 0008 FFF7FEFF 		bl	CySysClkWcoStart
 148              	.LVL15:
 219:Generated_Source\PSoC4/cyfitter_cfg.c **** 	CyDelayCycles(12000000u); /* WCO may take up to 500ms to start */
 149              		.loc 1 219 0
 150 000c 2148     		ldr	r0, .L8+4
 151 000e FFF7FEFF 		bl	CyDelayCycles
 152              	.LVL16:
 220:Generated_Source\PSoC4/cyfitter_cfg.c **** 
 221:Generated_Source\PSoC4/cyfitter_cfg.c **** 	/* Setup and trim IMO based on desired frequency. */
 222:Generated_Source\PSoC4/cyfitter_cfg.c **** 	CySysClkWriteImoFreq(48u);
 153              		.loc 1 222 0
 154 0012 3020     		movs	r0, #48
 155 0014 FFF7FEFF 		bl	CySysClkWriteImoFreq
 156              	.LVL17:
 223:Generated_Source\PSoC4/cyfitter_cfg.c **** 	CySysClkImoEnableWcoLock();
 157              		.loc 1 223 0
 158 0018 FFF7FEFF 		bl	CySysClkImoEnableWcoLock
 159              	.LVL18:
 224:Generated_Source\PSoC4/cyfitter_cfg.c **** 	/* CYDEV_CLK_ILO_CONFIG Starting address: CYDEV_CLK_ILO_CONFIG */
 225:Generated_Source\PSoC4/cyfitter_cfg.c **** 	CY_SET_REG32((void *)(CYREG_CLK_ILO_CONFIG), 0x80000006u);
 160              		.loc 1 225 0
 161 001c 1E4A     		ldr	r2, .L8+8
 162 001e 1F4B     		ldr	r3, .L8+12
 163 0020 1A60     		str	r2, [r3]
 226:Generated_Source\PSoC4/cyfitter_cfg.c **** 
 227:Generated_Source\PSoC4/cyfitter_cfg.c **** 	/* CYDEV_WDT_CONFIG Starting address: CYDEV_WDT_CONFIG */
 228:Generated_Source\PSoC4/cyfitter_cfg.c **** 	CY_SET_REG32((void *)(CYREG_WDT_CONFIG), 0x40000000u);
 164              		.loc 1 228 0
 165 0022 1F4C     		ldr	r4, .L8+16
ARM GAS  C:\Users\austc\AppData\Local\Temp\ccxU0eYj.s 			page 8


 166 0024 8025     		movs	r5, #128
 167 0026 ED05     		lsls	r5, r5, #23
 168 0028 2560     		str	r5, [r4]
 229:Generated_Source\PSoC4/cyfitter_cfg.c **** 
 230:Generated_Source\PSoC4/cyfitter_cfg.c **** 
 231:Generated_Source\PSoC4/cyfitter_cfg.c **** 	/* Setup phase aligned clocks */
 232:Generated_Source\PSoC4/cyfitter_cfg.c **** 	CY_SET_REG32((void *)CYREG_PERI_DIV_16_CTL0, 0x00000000u);
 169              		.loc 1 232 0
 170 002a 0022     		movs	r2, #0
 171 002c 1D4B     		ldr	r3, .L8+20
 172 002e 1A60     		str	r2, [r3]
 233:Generated_Source\PSoC4/cyfitter_cfg.c **** 	CY_SET_REG32((void *)CYREG_PERI_DIV_CMD, 0x8000FF40u);
 173              		.loc 1 233 0
 174 0030 1D4B     		ldr	r3, .L8+24
 175 0032 1E4A     		ldr	r2, .L8+28
 176 0034 1A60     		str	r2, [r3]
 234:Generated_Source\PSoC4/cyfitter_cfg.c **** 	CY_SET_REG32((void *)CYREG_PERI_DIV_16_CTL1, 0x00000300u);
 177              		.loc 1 234 0
 178 0036 C021     		movs	r1, #192
 179 0038 8900     		lsls	r1, r1, #2
 180 003a 1D4A     		ldr	r2, .L8+32
 181 003c 1160     		str	r1, [r2]
 235:Generated_Source\PSoC4/cyfitter_cfg.c **** 	CY_SET_REG32((void *)CYREG_PERI_DIV_CMD, 0x8000FF41u);
 182              		.loc 1 235 0
 183 003e 1D4A     		ldr	r2, .L8+36
 184 0040 1A60     		str	r2, [r3]
 236:Generated_Source\PSoC4/cyfitter_cfg.c **** 	CY_SET_REG32((void *)CYREG_PERI_DIV_16_CTL3, 0x00002E00u);
 185              		.loc 1 236 0
 186 0042 B821     		movs	r1, #184
 187 0044 8901     		lsls	r1, r1, #6
 188 0046 1C4A     		ldr	r2, .L8+40
 189 0048 1160     		str	r1, [r2]
 237:Generated_Source\PSoC4/cyfitter_cfg.c **** 	CY_SET_REG32((void *)CYREG_PERI_DIV_CMD, 0x8000FF43u);
 190              		.loc 1 237 0
 191 004a 1C4A     		ldr	r2, .L8+44
 192 004c 1A60     		str	r2, [r3]
 238:Generated_Source\PSoC4/cyfitter_cfg.c **** 	CY_SET_REG32((void *)CYREG_PERI_DIV_16_CTL2, 0x00002200u);
 193              		.loc 1 238 0
 194 004e 8821     		movs	r1, #136
 195 0050 8901     		lsls	r1, r1, #6
 196 0052 1B4A     		ldr	r2, .L8+48
 197 0054 1160     		str	r1, [r2]
 239:Generated_Source\PSoC4/cyfitter_cfg.c **** 	CY_SET_REG32((void *)CYREG_PERI_DIV_CMD, 0x8000FF42u);
 198              		.loc 1 239 0
 199 0056 1B4A     		ldr	r2, .L8+52
 200 0058 1A60     		str	r2, [r3]
 240:Generated_Source\PSoC4/cyfitter_cfg.c **** 
 241:Generated_Source\PSoC4/cyfitter_cfg.c **** 	/* CYDEV_CLK_IMO_CONFIG Starting address: CYDEV_CLK_IMO_CONFIG */
 242:Generated_Source\PSoC4/cyfitter_cfg.c **** 	CY_SET_REG32((void *)(CYREG_CLK_IMO_CONFIG), 0x82000000u);
 201              		.loc 1 242 0
 202 005a 8222     		movs	r2, #130
 203 005c 1206     		lsls	r2, r2, #24
 204 005e 1A4B     		ldr	r3, .L8+56
 205 0060 1A60     		str	r2, [r3]
 243:Generated_Source\PSoC4/cyfitter_cfg.c **** 
 244:Generated_Source\PSoC4/cyfitter_cfg.c **** 	/* CYDEV_CLK_SELECT Starting address: CYDEV_CLK_SELECT */
 245:Generated_Source\PSoC4/cyfitter_cfg.c **** 	CY_SET_REG32((void *)(CYREG_CLK_SELECT), 0x00040000u);
ARM GAS  C:\Users\austc\AppData\Local\Temp\ccxU0eYj.s 			page 9


 206              		.loc 1 245 0
 207 0062 8022     		movs	r2, #128
 208 0064 D202     		lsls	r2, r2, #11
 209 0066 194B     		ldr	r3, .L8+60
 210 0068 1A60     		str	r2, [r3]
 246:Generated_Source\PSoC4/cyfitter_cfg.c **** 
 247:Generated_Source\PSoC4/cyfitter_cfg.c **** 	/* CYDEV_PERI_PCLK_CTL11 Starting address: CYDEV_PERI_PCLK_CTL11 */
 248:Generated_Source\PSoC4/cyfitter_cfg.c **** 	CY_SET_REG32((void *)(CYREG_PERI_PCLK_CTL11), 0x00000041u);
 211              		.loc 1 248 0
 212 006a 4122     		movs	r2, #65
 213 006c 184B     		ldr	r3, .L8+64
 214 006e 1A60     		str	r2, [r3]
 249:Generated_Source\PSoC4/cyfitter_cfg.c **** 
 250:Generated_Source\PSoC4/cyfitter_cfg.c **** 	/* CYDEV_PERI_PCLK_CTL10 Starting address: CYDEV_PERI_PCLK_CTL10 */
 251:Generated_Source\PSoC4/cyfitter_cfg.c **** 	CY_SET_REG32((void *)(CYREG_PERI_PCLK_CTL10), 0x00000043u);
 215              		.loc 1 251 0
 216 0070 0232     		adds	r2, r2, #2
 217 0072 184B     		ldr	r3, .L8+68
 218 0074 1A60     		str	r2, [r3]
 252:Generated_Source\PSoC4/cyfitter_cfg.c **** 
 253:Generated_Source\PSoC4/cyfitter_cfg.c **** 	/* CYDEV_PERI_PCLK_CTL3 Starting address: CYDEV_PERI_PCLK_CTL3 */
 254:Generated_Source\PSoC4/cyfitter_cfg.c **** 	CY_SET_REG32((void *)(CYREG_PERI_PCLK_CTL3), 0x00000042u);
 219              		.loc 1 254 0
 220 0076 013A     		subs	r2, r2, #1
 221 0078 174B     		ldr	r3, .L8+72
 222 007a 1A60     		str	r2, [r3]
 255:Generated_Source\PSoC4/cyfitter_cfg.c **** 
 256:Generated_Source\PSoC4/cyfitter_cfg.c **** 	(void)CyIntSetVector(8u, &CySysWdtIsr);
 223              		.loc 1 256 0
 224 007c 1749     		ldr	r1, .L8+76
 225 007e 0820     		movs	r0, #8
 226 0080 FFF7FEFF 		bl	CyIntSetVector
 227              	.LVL19:
 257:Generated_Source\PSoC4/cyfitter_cfg.c **** 	CyIntEnable(8u);
 228              		.loc 1 257 0
 229 0084 0820     		movs	r0, #8
 230 0086 FFF7FEFF 		bl	CyIntEnable
 231              	.LVL20:
 258:Generated_Source\PSoC4/cyfitter_cfg.c **** 	CY_SET_REG32((void *)(CYREG_WDT_CONFIG), 0x40000000u);
 232              		.loc 1 258 0
 233 008a 2560     		str	r5, [r4]
 259:Generated_Source\PSoC4/cyfitter_cfg.c **** }
 234              		.loc 1 259 0
 235              		@ sp needed
 236 008c 70BD     		pop	{r4, r5, r6, pc}
 237              	.L9:
 238 008e C046     		.align	2
 239              	.L8:
 240 0090 30001040 		.word	1074790448
 241 0094 001BB700 		.word	12000000
 242 0098 06000080 		.word	-2147483642
 243 009c 04010B40 		.word	1074462980
 244 00a0 0C020B40 		.word	1074463244
 245 00a4 00030140 		.word	1073808128
 246 00a8 00000140 		.word	1073807360
 247 00ac 40FF0080 		.word	-2147418304
 248 00b0 04030140 		.word	1073808132
ARM GAS  C:\Users\austc\AppData\Local\Temp\ccxU0eYj.s 			page 10


 249 00b4 41FF0080 		.word	-2147418303
 250 00b8 0C030140 		.word	1073808140
 251 00bc 43FF0080 		.word	-2147418301
 252 00c0 08030140 		.word	1073808136
 253 00c4 42FF0080 		.word	-2147418302
 254 00c8 08010B40 		.word	1074462984
 255 00cc 00010B40 		.word	1074462976
 256 00d0 2C010140 		.word	1073807660
 257 00d4 28010140 		.word	1073807656
 258 00d8 0C010140 		.word	1073807628
 259 00dc 00000000 		.word	CySysWdtIsr
 260              		.cfi_endproc
 261              	.LFE5:
 262              		.size	ClockSetup, .-ClockSetup
 263              		.section	.text.SetAnalogRoutingPumps,"ax",%progbits
 264              		.align	2
 265              		.global	SetAnalogRoutingPumps
 266              		.code	16
 267              		.thumb_func
 268              		.type	SetAnalogRoutingPumps, %function
 269              	SetAnalogRoutingPumps:
 270              	.LFB7:
 260:Generated_Source\PSoC4/cyfitter_cfg.c **** 
 261:Generated_Source\PSoC4/cyfitter_cfg.c **** 
 262:Generated_Source\PSoC4/cyfitter_cfg.c **** /* Analog API Functions */
 263:Generated_Source\PSoC4/cyfitter_cfg.c **** 
 264:Generated_Source\PSoC4/cyfitter_cfg.c **** 
 265:Generated_Source\PSoC4/cyfitter_cfg.c **** /*******************************************************************************
 266:Generated_Source\PSoC4/cyfitter_cfg.c **** * Function Name: AnalogSetDefault
 267:Generated_Source\PSoC4/cyfitter_cfg.c **** ********************************************************************************
 268:Generated_Source\PSoC4/cyfitter_cfg.c **** *
 269:Generated_Source\PSoC4/cyfitter_cfg.c **** * Summary:
 270:Generated_Source\PSoC4/cyfitter_cfg.c **** *  Sets up the analog portions of the chip to default values based on chip
 271:Generated_Source\PSoC4/cyfitter_cfg.c **** *  configuration options from the project.
 272:Generated_Source\PSoC4/cyfitter_cfg.c **** *
 273:Generated_Source\PSoC4/cyfitter_cfg.c **** * Parameters:
 274:Generated_Source\PSoC4/cyfitter_cfg.c **** *  void
 275:Generated_Source\PSoC4/cyfitter_cfg.c **** *
 276:Generated_Source\PSoC4/cyfitter_cfg.c **** * Return:
 277:Generated_Source\PSoC4/cyfitter_cfg.c **** *  void
 278:Generated_Source\PSoC4/cyfitter_cfg.c **** *
 279:Generated_Source\PSoC4/cyfitter_cfg.c **** *******************************************************************************/
 280:Generated_Source\PSoC4/cyfitter_cfg.c **** static void AnalogSetDefault(void);
 281:Generated_Source\PSoC4/cyfitter_cfg.c **** static void AnalogSetDefault(void)
 282:Generated_Source\PSoC4/cyfitter_cfg.c **** {
 283:Generated_Source\PSoC4/cyfitter_cfg.c **** 	CY_SET_XTND_REG32((void CYFAR *)CYREG_CTBM0_DFT_CTRL, 0x00000003u);
 284:Generated_Source\PSoC4/cyfitter_cfg.c **** 	CY_SET_XTND_REG32((void CYFAR *)CYREG_CTBM1_DFT_CTRL, 0x00000003u);
 285:Generated_Source\PSoC4/cyfitter_cfg.c **** 	CY_SET_XTND_REG32((void CYFAR *)CYREG_SAR_CTRL, 0x80000000u);
 286:Generated_Source\PSoC4/cyfitter_cfg.c **** 	CY_SET_XTND_REG32((void CYFAR *)CYREG_SAR_MUX_SWITCH0, 0x00000001u);
 287:Generated_Source\PSoC4/cyfitter_cfg.c **** 	CY_SET_XTND_REG32((void CYFAR *)CYREG_PASS_DSAB_DSAB_CTRL, 0x00000000u);
 288:Generated_Source\PSoC4/cyfitter_cfg.c **** 	SetAnalogRoutingPumps(1);
 289:Generated_Source\PSoC4/cyfitter_cfg.c **** }
 290:Generated_Source\PSoC4/cyfitter_cfg.c **** 
 291:Generated_Source\PSoC4/cyfitter_cfg.c **** 
 292:Generated_Source\PSoC4/cyfitter_cfg.c **** /*******************************************************************************
 293:Generated_Source\PSoC4/cyfitter_cfg.c **** * Function Name: SetAnalogRoutingPumps
 294:Generated_Source\PSoC4/cyfitter_cfg.c **** ********************************************************************************
ARM GAS  C:\Users\austc\AppData\Local\Temp\ccxU0eYj.s 			page 11


 295:Generated_Source\PSoC4/cyfitter_cfg.c **** *
 296:Generated_Source\PSoC4/cyfitter_cfg.c **** * Summary:
 297:Generated_Source\PSoC4/cyfitter_cfg.c **** * Enables or disables the analog pumps feeding analog routing switches.
 298:Generated_Source\PSoC4/cyfitter_cfg.c **** * Intended to be called at startup, based on the Vdda system configuration;
 299:Generated_Source\PSoC4/cyfitter_cfg.c **** * may be called during operation when the user informs us that the Vdda voltage crossed the pump th
 300:Generated_Source\PSoC4/cyfitter_cfg.c **** *
 301:Generated_Source\PSoC4/cyfitter_cfg.c **** * Parameters:
 302:Generated_Source\PSoC4/cyfitter_cfg.c **** *  enabled - 1 to enable the pumps, 0 to disable the pumps
 303:Generated_Source\PSoC4/cyfitter_cfg.c **** *
 304:Generated_Source\PSoC4/cyfitter_cfg.c **** * Return:
 305:Generated_Source\PSoC4/cyfitter_cfg.c **** *  void
 306:Generated_Source\PSoC4/cyfitter_cfg.c **** *
 307:Generated_Source\PSoC4/cyfitter_cfg.c **** *******************************************************************************/
 308:Generated_Source\PSoC4/cyfitter_cfg.c **** void SetAnalogRoutingPumps(uint8 enabled)
 309:Generated_Source\PSoC4/cyfitter_cfg.c **** {
 271              		.loc 1 309 0
 272              		.cfi_startproc
 273              		@ args = 0, pretend = 0, frame = 0
 274              		@ frame_needed = 0, uses_anonymous_args = 0
 275              		@ link register save eliminated.
 276              	.LVL21:
 310:Generated_Source\PSoC4/cyfitter_cfg.c **** 	uint32 regValue = CY_GET_XTND_REG32((void *)(CYREG_SAR_PUMP_CTRL));
 277              		.loc 1 310 0
 278 0000 064B     		ldr	r3, .L13
 279 0002 1B68     		ldr	r3, [r3]
 280              	.LVL22:
 311:Generated_Source\PSoC4/cyfitter_cfg.c **** 	if (enabled != 0u)
 281              		.loc 1 311 0
 282 0004 0028     		cmp	r0, #0
 283 0006 03D0     		beq	.L11
 312:Generated_Source\PSoC4/cyfitter_cfg.c **** 	{
 313:Generated_Source\PSoC4/cyfitter_cfg.c **** 		regValue |= 0x80000000u;
 284              		.loc 1 313 0
 285 0008 8022     		movs	r2, #128
 286 000a 1206     		lsls	r2, r2, #24
 287 000c 1343     		orrs	r3, r2
 288              	.LVL23:
 289 000e 01E0     		b	.L12
 290              	.L11:
 314:Generated_Source\PSoC4/cyfitter_cfg.c **** 	}
 315:Generated_Source\PSoC4/cyfitter_cfg.c **** 	else
 316:Generated_Source\PSoC4/cyfitter_cfg.c **** 	{
 317:Generated_Source\PSoC4/cyfitter_cfg.c **** 		regValue &= ~0x80000000u;
 291              		.loc 1 317 0
 292 0010 5B00     		lsls	r3, r3, #1
 293              	.LVL24:
 294 0012 5B08     		lsrs	r3, r3, #1
 295              	.LVL25:
 296              	.L12:
 318:Generated_Source\PSoC4/cyfitter_cfg.c **** 	}
 319:Generated_Source\PSoC4/cyfitter_cfg.c **** 	CY_SET_XTND_REG32((void *)(CYREG_SAR_PUMP_CTRL), regValue);
 297              		.loc 1 319 0
 298 0014 014A     		ldr	r2, .L13
 299 0016 1360     		str	r3, [r2]
 320:Generated_Source\PSoC4/cyfitter_cfg.c **** }
 300              		.loc 1 320 0
 301              		@ sp needed
ARM GAS  C:\Users\austc\AppData\Local\Temp\ccxU0eYj.s 			page 12


 302 0018 7047     		bx	lr
 303              	.L14:
 304 001a C046     		.align	2
 305              	.L13:
 306 001c 80033A40 		.word	1077543808
 307              		.cfi_endproc
 308              	.LFE7:
 309              		.size	SetAnalogRoutingPumps, .-SetAnalogRoutingPumps
 310              		.section	.text.AnalogSetDefault,"ax",%progbits
 311              		.align	2
 312              		.code	16
 313              		.thumb_func
 314              		.type	AnalogSetDefault, %function
 315              	AnalogSetDefault:
 316              	.LFB6:
 282:Generated_Source\PSoC4/cyfitter_cfg.c **** 	CY_SET_XTND_REG32((void CYFAR *)CYREG_CTBM0_DFT_CTRL, 0x00000003u);
 317              		.loc 1 282 0
 318              		.cfi_startproc
 319              		@ args = 0, pretend = 0, frame = 0
 320              		@ frame_needed = 0, uses_anonymous_args = 0
 321 0000 10B5     		push	{r4, lr}
 322              		.cfi_def_cfa_offset 8
 323              		.cfi_offset 4, -8
 324              		.cfi_offset 14, -4
 283:Generated_Source\PSoC4/cyfitter_cfg.c **** 	CY_SET_XTND_REG32((void CYFAR *)CYREG_CTBM1_DFT_CTRL, 0x00000003u);
 325              		.loc 1 283 0
 326 0002 0323     		movs	r3, #3
 327 0004 084A     		ldr	r2, .L16
 328 0006 1360     		str	r3, [r2]
 284:Generated_Source\PSoC4/cyfitter_cfg.c **** 	CY_SET_XTND_REG32((void CYFAR *)CYREG_SAR_CTRL, 0x80000000u);
 329              		.loc 1 284 0
 330 0008 084A     		ldr	r2, .L16+4
 331 000a 1360     		str	r3, [r2]
 285:Generated_Source\PSoC4/cyfitter_cfg.c **** 	CY_SET_XTND_REG32((void CYFAR *)CYREG_SAR_MUX_SWITCH0, 0x00000001u);
 332              		.loc 1 285 0
 333 000c 8022     		movs	r2, #128
 334 000e 1206     		lsls	r2, r2, #24
 335 0010 074B     		ldr	r3, .L16+8
 336 0012 1A60     		str	r2, [r3]
 286:Generated_Source\PSoC4/cyfitter_cfg.c **** 	CY_SET_XTND_REG32((void CYFAR *)CYREG_PASS_DSAB_DSAB_CTRL, 0x00000000u);
 337              		.loc 1 286 0
 338 0014 0122     		movs	r2, #1
 339 0016 074B     		ldr	r3, .L16+12
 340 0018 1A60     		str	r2, [r3]
 287:Generated_Source\PSoC4/cyfitter_cfg.c **** 	SetAnalogRoutingPumps(1);
 341              		.loc 1 287 0
 342 001a 0022     		movs	r2, #0
 343 001c 064B     		ldr	r3, .L16+16
 344 001e 1A60     		str	r2, [r3]
 288:Generated_Source\PSoC4/cyfitter_cfg.c **** }
 345              		.loc 1 288 0
 346 0020 0120     		movs	r0, #1
 347 0022 FFF7FEFF 		bl	SetAnalogRoutingPumps
 348              	.LVL26:
 289:Generated_Source\PSoC4/cyfitter_cfg.c **** 
 349              		.loc 1 289 0
 350              		@ sp needed
ARM GAS  C:\Users\austc\AppData\Local\Temp\ccxU0eYj.s 			page 13


 351 0026 10BD     		pop	{r4, pc}
 352              	.L17:
 353              		.align	2
 354              	.L16:
 355 0028 30003040 		.word	1076887600
 356 002c 30003140 		.word	1076953136
 357 0030 00003A40 		.word	1077542912
 358 0034 00033A40 		.word	1077543680
 359 0038 000E3F40 		.word	1077874176
 360              		.cfi_endproc
 361              	.LFE6:
 362              		.size	AnalogSetDefault, .-AnalogSetDefault
 363              		.section	.psocinit
 364              		.align	2
 365              		.global	cyfitter_cfg
 366              		.code	16
 367              		.thumb_func
 368              		.type	cyfitter_cfg, %function
 369              	cyfitter_cfg:
 370              	.LFB8:
 321:Generated_Source\PSoC4/cyfitter_cfg.c **** 
 322:Generated_Source\PSoC4/cyfitter_cfg.c **** 
 323:Generated_Source\PSoC4/cyfitter_cfg.c **** 
 324:Generated_Source\PSoC4/cyfitter_cfg.c **** 
 325:Generated_Source\PSoC4/cyfitter_cfg.c **** /*******************************************************************************
 326:Generated_Source\PSoC4/cyfitter_cfg.c **** * Function Name: cyfitter_cfg
 327:Generated_Source\PSoC4/cyfitter_cfg.c **** ********************************************************************************
 328:Generated_Source\PSoC4/cyfitter_cfg.c **** * Summary:
 329:Generated_Source\PSoC4/cyfitter_cfg.c **** *  This function is called by the start-up code for the selected device. It
 330:Generated_Source\PSoC4/cyfitter_cfg.c **** *  performs all of the necessary device configuration based on the design
 331:Generated_Source\PSoC4/cyfitter_cfg.c **** *  settings.  This includes settings from the Design Wide Resources (DWR) such
 332:Generated_Source\PSoC4/cyfitter_cfg.c **** *  as Clocks and Pins as well as any component configuration that is necessary.
 333:Generated_Source\PSoC4/cyfitter_cfg.c **** *
 334:Generated_Source\PSoC4/cyfitter_cfg.c **** * Parameters:
 335:Generated_Source\PSoC4/cyfitter_cfg.c **** *   void
 336:Generated_Source\PSoC4/cyfitter_cfg.c **** *
 337:Generated_Source\PSoC4/cyfitter_cfg.c **** * Return:
 338:Generated_Source\PSoC4/cyfitter_cfg.c **** *   void
 339:Generated_Source\PSoC4/cyfitter_cfg.c **** *
 340:Generated_Source\PSoC4/cyfitter_cfg.c **** *******************************************************************************/
 341:Generated_Source\PSoC4/cyfitter_cfg.c **** CY_CFG_SECTION
 342:Generated_Source\PSoC4/cyfitter_cfg.c **** void cyfitter_cfg(void)
 343:Generated_Source\PSoC4/cyfitter_cfg.c **** {
 371              		.loc 1 343 0
 372              		.cfi_startproc
 373              		@ args = 0, pretend = 0, frame = 0
 374              		@ frame_needed = 0, uses_anonymous_args = 0
 375 00e0 10B5     		push	{r4, lr}
 376              		.cfi_def_cfa_offset 8
 377              		.cfi_offset 4, -8
 378              		.cfi_offset 14, -4
 344:Generated_Source\PSoC4/cyfitter_cfg.c **** 	/* Disable interrupts by default. Let user enable if/when they want. */
 345:Generated_Source\PSoC4/cyfitter_cfg.c **** 	CyGlobalIntDisable;
 379              		.loc 1 345 0
 380              		.syntax divided
 381              	@ 345 "Generated_Source\PSoC4\cyfitter_cfg.c" 1
 382 00e2 72B6     		CPSID   i
ARM GAS  C:\Users\austc\AppData\Local\Temp\ccxU0eYj.s 			page 14


 383              	@ 0 "" 2
 384              	.LVL27:
 385              		.thumb
 386              		.syntax unified
 387              	.LBB3:
 346:Generated_Source\PSoC4/cyfitter_cfg.c **** 
 347:Generated_Source\PSoC4/cyfitter_cfg.c **** 	{
 348:Generated_Source\PSoC4/cyfitter_cfg.c **** 		static const uint32 CYCODE cy_cfg_addr_table[] = {
 349:Generated_Source\PSoC4/cyfitter_cfg.c **** 			0x400F3701u, /* Base address: 0x400F3700 Count: 1 */
 350:Generated_Source\PSoC4/cyfitter_cfg.c **** 			0x400F4202u, /* Base address: 0x400F4200 Count: 2 */
 351:Generated_Source\PSoC4/cyfitter_cfg.c **** 			0x400F4301u, /* Base address: 0x400F4300 Count: 1 */
 352:Generated_Source\PSoC4/cyfitter_cfg.c **** 			0x400F4402u, /* Base address: 0x400F4400 Count: 2 */
 353:Generated_Source\PSoC4/cyfitter_cfg.c **** 			0x400F4501u, /* Base address: 0x400F4500 Count: 1 */
 354:Generated_Source\PSoC4/cyfitter_cfg.c **** 			0x400F4601u, /* Base address: 0x400F4600 Count: 1 */
 355:Generated_Source\PSoC4/cyfitter_cfg.c **** 			0x400F4702u, /* Base address: 0x400F4700 Count: 2 */
 356:Generated_Source\PSoC4/cyfitter_cfg.c **** 		};
 357:Generated_Source\PSoC4/cyfitter_cfg.c **** 
 358:Generated_Source\PSoC4/cyfitter_cfg.c **** 		static const cy_cfg_addrvalue_t CYCODE cy_cfg_data_table[] = {
 359:Generated_Source\PSoC4/cyfitter_cfg.c **** 			{0xE8u, 0x10u},
 360:Generated_Source\PSoC4/cyfitter_cfg.c **** 			{0x11u, 0x02u},
 361:Generated_Source\PSoC4/cyfitter_cfg.c **** 			{0xC4u, 0x10u},
 362:Generated_Source\PSoC4/cyfitter_cfg.c **** 			{0xB5u, 0x01u},
 363:Generated_Source\PSoC4/cyfitter_cfg.c **** 			{0x50u, 0x04u},
 364:Generated_Source\PSoC4/cyfitter_cfg.c **** 			{0xD4u, 0x04u},
 365:Generated_Source\PSoC4/cyfitter_cfg.c **** 			{0x94u, 0x08u},
 366:Generated_Source\PSoC4/cyfitter_cfg.c **** 			{0x94u, 0x08u},
 367:Generated_Source\PSoC4/cyfitter_cfg.c **** 			{0xB4u, 0x04u},
 368:Generated_Source\PSoC4/cyfitter_cfg.c **** 			{0xE8u, 0x08u},
 369:Generated_Source\PSoC4/cyfitter_cfg.c **** 		};
 370:Generated_Source\PSoC4/cyfitter_cfg.c **** 
 371:Generated_Source\PSoC4/cyfitter_cfg.c **** 
 372:Generated_Source\PSoC4/cyfitter_cfg.c **** 
 373:Generated_Source\PSoC4/cyfitter_cfg.c **** 		CYPACKED typedef struct {
 374:Generated_Source\PSoC4/cyfitter_cfg.c **** 			void CYFAR *address;
 375:Generated_Source\PSoC4/cyfitter_cfg.c **** 			uint16 size;
 376:Generated_Source\PSoC4/cyfitter_cfg.c **** 		} CYPACKED_ATTR cfg_memset_t;
 377:Generated_Source\PSoC4/cyfitter_cfg.c **** 
 378:Generated_Source\PSoC4/cyfitter_cfg.c **** 		static const cfg_memset_t CYCODE cfg_memset_list[] = {
 379:Generated_Source\PSoC4/cyfitter_cfg.c **** 			/* address, size */
 380:Generated_Source\PSoC4/cyfitter_cfg.c **** 			{(void CYFAR *)(CYDEV_UDB_P0_U0_BASE), 2048u},
 381:Generated_Source\PSoC4/cyfitter_cfg.c **** 			{(void CYFAR *)(CYDEV_UDB_DSI0_BASE), 2048u},
 382:Generated_Source\PSoC4/cyfitter_cfg.c **** 		};
 383:Generated_Source\PSoC4/cyfitter_cfg.c **** 
 384:Generated_Source\PSoC4/cyfitter_cfg.c **** 		uint8 CYDATA i;
 385:Generated_Source\PSoC4/cyfitter_cfg.c **** 
 386:Generated_Source\PSoC4/cyfitter_cfg.c **** 		/* Zero out critical memory blocks before beginning configuration */
 387:Generated_Source\PSoC4/cyfitter_cfg.c **** 		for (i = 0u; i < (sizeof(cfg_memset_list)/sizeof(cfg_memset_list[0])); i++)
 388              		.loc 1 387 0
 389 00e4 0024     		movs	r4, #0
 390 00e6 0FE0     		b	.L19
 391              	.LVL28:
 392              	.L20:
 393              	.LBB4:
 388:Generated_Source\PSoC4/cyfitter_cfg.c **** 		{
 389:Generated_Source\PSoC4/cyfitter_cfg.c **** 			const cfg_memset_t CYCODE * CYDATA ms = &cfg_memset_list[i];
 390:Generated_Source\PSoC4/cyfitter_cfg.c **** 			CYMEMZERO(ms->address, (size_t)(uint32)(ms->size));
 394              		.loc 1 390 0 discriminator 3
ARM GAS  C:\Users\austc\AppData\Local\Temp\ccxU0eYj.s 			page 15


 395 00e8 2348     		ldr	r0, .L21
 396 00ea 6200     		lsls	r2, r4, #1
 397 00ec 1319     		adds	r3, r2, r4
 398 00ee 5900     		lsls	r1, r3, #1
 399 00f0 0B00     		movs	r3, r1
 400 00f2 4118     		adds	r1, r0, r1
 401 00f4 8988     		ldrh	r1, [r1, #4]
 402 00f6 1A5A     		ldrh	r2, [r3, r0]
 403 00f8 C318     		adds	r3, r0, r3
 404 00fa 5888     		ldrh	r0, [r3, #2]
 405 00fc 0004     		lsls	r0, r0, #16
 406 00fe 1043     		orrs	r0, r2
 407 0100 FFF7FEFF 		bl	CYMEMZERO
 408              	.LVL29:
 409              	.LBE4:
 387:Generated_Source\PSoC4/cyfitter_cfg.c **** 		{
 410              		.loc 1 387 0 discriminator 3
 411 0104 0134     		adds	r4, r4, #1
 412              	.LVL30:
 413 0106 E4B2     		uxtb	r4, r4
 414              	.LVL31:
 415              	.L19:
 387:Generated_Source\PSoC4/cyfitter_cfg.c **** 		{
 416              		.loc 1 387 0 is_stmt 0 discriminator 1
 417 0108 012C     		cmp	r4, #1
 418 010a EDD9     		bls	.L20
 391:Generated_Source\PSoC4/cyfitter_cfg.c **** 		}
 392:Generated_Source\PSoC4/cyfitter_cfg.c **** 
 393:Generated_Source\PSoC4/cyfitter_cfg.c **** 		cfg_write_bytes32(cy_cfg_addr_table, cy_cfg_data_table);
 419              		.loc 1 393 0 is_stmt 1
 420 010c 1A48     		ldr	r0, .L21
 421 010e 0100     		movs	r1, r0
 422 0110 0C31     		adds	r1, r1, #12
 423 0112 2030     		adds	r0, r0, #32
 424 0114 FFF7FEFF 		bl	cfg_write_bytes32
 425              	.LVL32:
 394:Generated_Source\PSoC4/cyfitter_cfg.c **** 
 395:Generated_Source\PSoC4/cyfitter_cfg.c **** 		/* HSIOM Starting address: CYDEV_HSIOM_BASE */
 396:Generated_Source\PSoC4/cyfitter_cfg.c **** 		CY_SET_REG32((void *)(CYDEV_HSIOM_BASE), 0x000003AAu);
 426              		.loc 1 396 0
 427 0118 184A     		ldr	r2, .L21+4
 428 011a 194B     		ldr	r3, .L21+8
 429 011c 1A60     		str	r2, [r3]
 397:Generated_Source\PSoC4/cyfitter_cfg.c **** 		CY_SET_REG32((void *)(CYREG_HSIOM_PORT_SEL3), 0x0000EE99u);
 430              		.loc 1 397 0
 431 011e 194A     		ldr	r2, .L21+12
 432 0120 194B     		ldr	r3, .L21+16
 433 0122 1A60     		str	r2, [r3]
 398:Generated_Source\PSoC4/cyfitter_cfg.c **** 
 399:Generated_Source\PSoC4/cyfitter_cfg.c **** 		/* UDB_PA_2 Starting address: CYDEV_UDB_PA2_BASE */
 400:Generated_Source\PSoC4/cyfitter_cfg.c **** 		CY_SET_REG32((void *)(CYDEV_UDB_PA2_BASE), 0x00990000u);
 434              		.loc 1 400 0
 435 0124 9923     		movs	r3, #153
 436 0126 1B04     		lsls	r3, r3, #16
 437 0128 184A     		ldr	r2, .L21+20
 438 012a 1360     		str	r3, [r2]
 401:Generated_Source\PSoC4/cyfitter_cfg.c **** 
ARM GAS  C:\Users\austc\AppData\Local\Temp\ccxU0eYj.s 			page 16


 402:Generated_Source\PSoC4/cyfitter_cfg.c **** 		/* UDB_PA_4 Starting address: CYDEV_UDB_PA4_BASE */
 403:Generated_Source\PSoC4/cyfitter_cfg.c **** 		CY_SET_REG32((void *)(CYDEV_UDB_PA4_BASE), 0x00990000u);
 439              		.loc 1 403 0
 440 012c 184A     		ldr	r2, .L21+24
 441 012e 1360     		str	r3, [r2]
 404:Generated_Source\PSoC4/cyfitter_cfg.c **** 		CY_SET_REG32((void *)(CYREG_UDB_PA4_CFG8), 0x00450000u);
 442              		.loc 1 404 0
 443 0130 8A21     		movs	r1, #138
 444 0132 C903     		lsls	r1, r1, #15
 445 0134 174A     		ldr	r2, .L21+28
 446 0136 1160     		str	r1, [r2]
 405:Generated_Source\PSoC4/cyfitter_cfg.c **** 
 406:Generated_Source\PSoC4/cyfitter_cfg.c **** 		/* UDB_PA_7 Starting address: CYDEV_UDB_PA7_BASE */
 407:Generated_Source\PSoC4/cyfitter_cfg.c **** 		CY_SET_REG32((void *)(CYDEV_UDB_PA7_BASE), 0x00990000u);
 447              		.loc 1 407 0
 448 0138 174A     		ldr	r2, .L21+32
 449 013a 1360     		str	r3, [r2]
 408:Generated_Source\PSoC4/cyfitter_cfg.c **** 
 409:Generated_Source\PSoC4/cyfitter_cfg.c **** 		/* Enable digital routing */
 410:Generated_Source\PSoC4/cyfitter_cfg.c **** 		CY_SET_XTND_REG8((void *)CYREG_UDB_UDB_BANK_CTL, (uint8)(CY_GET_XTND_REG8((void *)CYREG_UDB_UDB_B
 450              		.loc 1 410 0
 451 013c 174A     		ldr	r2, .L21+36
 452 013e 1178     		ldrb	r1, [r2]
 453 0140 0623     		movs	r3, #6
 454 0142 0B43     		orrs	r3, r1
 455 0144 DBB2     		uxtb	r3, r3
 456 0146 1370     		strb	r3, [r2]
 457              	.LBE3:
 411:Generated_Source\PSoC4/cyfitter_cfg.c **** 	}
 412:Generated_Source\PSoC4/cyfitter_cfg.c **** 
 413:Generated_Source\PSoC4/cyfitter_cfg.c **** 	/* Perform second pass device configuration. These items must be configured in specific order afte
 414:Generated_Source\PSoC4/cyfitter_cfg.c **** 	/* IOPINS0_0 Starting address: CYDEV_GPIO_PRT0_BASE */
 415:Generated_Source\PSoC4/cyfitter_cfg.c **** 	CY_SET_REG32((void *)(CYDEV_GPIO_PRT0_BASE), 0x00000086u);
 458              		.loc 1 415 0
 459 0148 8622     		movs	r2, #134
 460 014a 154B     		ldr	r3, .L21+40
 461 014c 1A60     		str	r2, [r3]
 416:Generated_Source\PSoC4/cyfitter_cfg.c **** 	CY_SET_REG32((void *)(CYREG_GPIO_PRT0_PC), 0x004001B1u);
 462              		.loc 1 416 0
 463 014e 154A     		ldr	r2, .L21+44
 464 0150 154B     		ldr	r3, .L21+48
 465 0152 1A60     		str	r2, [r3]
 417:Generated_Source\PSoC4/cyfitter_cfg.c **** 
 418:Generated_Source\PSoC4/cyfitter_cfg.c **** 	/* IOPINS0_2 Starting address: CYDEV_GPIO_PRT2_BASE */
 419:Generated_Source\PSoC4/cyfitter_cfg.c **** 	CY_SET_REG32((void *)(CYDEV_GPIO_PRT2_BASE), 0x00000001u);
 466              		.loc 1 419 0
 467 0154 0123     		movs	r3, #1
 468 0156 154A     		ldr	r2, .L21+52
 469 0158 1360     		str	r3, [r2]
 420:Generated_Source\PSoC4/cyfitter_cfg.c **** 	CY_SET_REG32((void *)(CYREG_GPIO_PRT2_PC2), 0x00000001u);
 470              		.loc 1 420 0
 471 015a 154A     		ldr	r2, .L21+56
 472 015c 1360     		str	r3, [r2]
 421:Generated_Source\PSoC4/cyfitter_cfg.c **** 
 422:Generated_Source\PSoC4/cyfitter_cfg.c **** 	/* IOPINS0_3 Starting address: CYDEV_GPIO_PRT3_BASE */
 423:Generated_Source\PSoC4/cyfitter_cfg.c **** 	CY_SET_REG32((void *)(CYDEV_GPIO_PRT3_BASE), 0x00000002u);
 473              		.loc 1 423 0
ARM GAS  C:\Users\austc\AppData\Local\Temp\ccxU0eYj.s 			page 17


 474 015e 0133     		adds	r3, r3, #1
 475 0160 144A     		ldr	r2, .L21+60
 476 0162 1360     		str	r3, [r2]
 424:Generated_Source\PSoC4/cyfitter_cfg.c **** 	CY_SET_REG32((void *)(CYREG_GPIO_PRT3_PC), 0x00000DB1u);
 477              		.loc 1 424 0
 478 0164 1449     		ldr	r1, .L21+64
 479 0166 154A     		ldr	r2, .L21+68
 480 0168 1160     		str	r1, [r2]
 425:Generated_Source\PSoC4/cyfitter_cfg.c **** 	CY_SET_REG32((void *)(CYREG_GPIO_PRT3_PC2), 0x00000002u);
 481              		.loc 1 425 0
 482 016a 154A     		ldr	r2, .L21+72
 483 016c 1360     		str	r3, [r2]
 426:Generated_Source\PSoC4/cyfitter_cfg.c **** 
 427:Generated_Source\PSoC4/cyfitter_cfg.c **** 
 428:Generated_Source\PSoC4/cyfitter_cfg.c **** 	/* Setup clocks based on selections from Clock DWR */
 429:Generated_Source\PSoC4/cyfitter_cfg.c **** 	ClockSetup();
 484              		.loc 1 429 0
 485 016e FFF747FF 		bl	ClockSetup
 486              	.LVL33:
 430:Generated_Source\PSoC4/cyfitter_cfg.c **** 
 431:Generated_Source\PSoC4/cyfitter_cfg.c **** 	/* Perform basic analog initialization to defaults */
 432:Generated_Source\PSoC4/cyfitter_cfg.c **** 	AnalogSetDefault();
 487              		.loc 1 432 0
 488 0172 FFF7FEFF 		bl	AnalogSetDefault
 489              	.LVL34:
 433:Generated_Source\PSoC4/cyfitter_cfg.c **** 
 434:Generated_Source\PSoC4/cyfitter_cfg.c **** }
 490              		.loc 1 434 0
 491              		@ sp needed
 492              	.LVL35:
 493 0176 10BD     		pop	{r4, pc}
 494              	.L22:
 495              		.align	2
 496              	.L21:
 497 0178 00000000 		.word	.LANCHOR0
 498 017c AA030000 		.word	938
 499 0180 00000240 		.word	1073872896
 500 0184 99EE0000 		.word	61081
 501 0188 00030240 		.word	1073873664
 502 018c 20500F40 		.word	1074745376
 503 0190 40500F40 		.word	1074745408
 504 0194 48500F40 		.word	1074745416
 505 0198 70500F40 		.word	1074745456
 506 019c 00700F40 		.word	1074753536
 507 01a0 00000440 		.word	1074003968
 508 01a4 B1014000 		.word	4194737
 509 01a8 08000440 		.word	1074003976
 510 01ac 00020440 		.word	1074004480
 511 01b0 18020440 		.word	1074004504
 512 01b4 00030440 		.word	1074004736
 513 01b8 B10D0000 		.word	3505
 514 01bc 08030440 		.word	1074004744
 515 01c0 18030440 		.word	1074004760
 516              		.cfi_endproc
 517              	.LFE8:
 518              		.size	cyfitter_cfg, .-cyfitter_cfg
 519              		.section	.rodata
ARM GAS  C:\Users\austc\AppData\Local\Temp\ccxU0eYj.s 			page 18


 520              		.align	2
 521              		.set	.LANCHOR0,. + 0
 522              		.type	cfg_memset_list.4977, %object
 523              		.size	cfg_memset_list.4977, 12
 524              	cfg_memset_list.4977:
 525 0000 00300F40 		.word	1074737152
 526 0004 0008     		.short	2048
 527 0006 00400F40 		.4byte	1074741248
 528 000a 0008     		.short	2048
 529              		.type	cy_cfg_data_table.4972, %object
 530              		.size	cy_cfg_data_table.4972, 20
 531              	cy_cfg_data_table.4972:
 532 000c E8       		.byte	-24
 533 000d 10       		.byte	16
 534 000e 11       		.byte	17
 535 000f 02       		.byte	2
 536 0010 C4       		.byte	-60
 537 0011 10       		.byte	16
 538 0012 B5       		.byte	-75
 539 0013 01       		.byte	1
 540 0014 50       		.byte	80
 541 0015 04       		.byte	4
 542 0016 D4       		.byte	-44
 543 0017 04       		.byte	4
 544 0018 94       		.byte	-108
 545 0019 08       		.byte	8
 546 001a 94       		.byte	-108
 547 001b 08       		.byte	8
 548 001c B4       		.byte	-76
 549 001d 04       		.byte	4
 550 001e E8       		.byte	-24
 551 001f 08       		.byte	8
 552              		.type	cy_cfg_addr_table.4971, %object
 553              		.size	cy_cfg_addr_table.4971, 28
 554              	cy_cfg_addr_table.4971:
 555 0020 01370F40 		.word	1074738945
 556 0024 02420F40 		.word	1074741762
 557 0028 01430F40 		.word	1074742017
 558 002c 02440F40 		.word	1074742274
 559 0030 01450F40 		.word	1074742529
 560 0034 01460F40 		.word	1074742785
 561 0038 02470F40 		.word	1074743042
 562              		.text
 563              	.Letext0:
 564              		.file 2 "c:\\program files (x86)\\cypress\\psoc creator\\4.2\\psoc creator\\import\\gnu\\arm\\5.4.
 565              		.file 3 "Generated_Source\\PSoC4\\cytypes.h"
 566              		.file 4 "Generated_Source\\PSoC4\\CyLFClk.h"
 567              		.file 5 "Generated_Source\\PSoC4\\CyLib.h"