ARM GAS  C:\Users\austc\AppData\Local\Temp\ccOnTNnk.s 			page 1


   1              		.syntax unified
   2              		.cpu cortex-m0
   3              		.fpu softvfp
   4              		.eabi_attribute 20, 1
   5              		.eabi_attribute 21, 1
   6              		.eabi_attribute 23, 3
   7              		.eabi_attribute 24, 1
   8              		.eabi_attribute 25, 1
   9              		.eabi_attribute 26, 1
  10              		.eabi_attribute 30, 1
  11              		.eabi_attribute 34, 0
  12              		.eabi_attribute 18, 4
  13              		.thumb
  14              		.syntax unified
  15              		.file	"main.c"
  16              		.text
  17              	.Ltext0:
  18              		.cfi_sections	.debug_frame
  19              		.section	.text.ISR_CAN,"ax",%progbits
  20              		.align	2
  21              		.global	ISR_CAN
  22              		.code	16
  23              		.thumb_func
  24              		.type	ISR_CAN, %function
  25              	ISR_CAN:
  26              	.LFB36:
  27              		.file 1 "main.c"
   1:main.c        **** /*******************************************************************************
   2:main.c        **** * File Name: main.c
   3:main.c        **** *
   4:main.c        **** * Version: 1.0
   5:main.c        **** *
   6:main.c        **** * Description:
   7:main.c        **** *  In this project, the CAN component is configured to transmit two messages
   8:main.c        **** *  over the CAN bus:
   9:main.c        **** *   Message 1 - Status of Switch 1. Sent whenever there is a change in the
  10:main.c        **** *               status.
  11:main.c        **** *   Message 2 - ADC data. Sent every 100ms.
  12:main.c        **** *
  13:main.c        **** *  The component is also configured to receive data which is used to set the
  14:main.c        **** *  pulse width of the PWM used in the project.
  15:main.c        **** *  Both transmitted and received data are send out over UART, so that it can be
  16:main.c        **** *  received on a PC using a USB-UART bridge (PSoC 5LP) on CY8CKIT-044
  17:main.c        **** *  Development Kit and the terminal software.
  18:main.c        **** *
  19:main.c        **** *  This is only one part of the CAN example project. Use this example along
  20:main.c        **** *  with CAN_Full_P4_Example for complete demonstration.
  21:main.c        **** *
  22:main.c        **** * Hardware Dependency:
  23:main.c        **** *  CY8CKIT-044
  24:main.c        **** *  CY8CKIT-017
  25:main.c        **** *
  26:main.c        **** ********************************************************************************
  27:main.c        **** * Copyright 2015, Cypress Semiconductor Corporation. All rights reserved.
  28:main.c        **** * This software is owned by Cypress Semiconductor Corporation and is protected
  29:main.c        **** * by and subject to worldwide patent and copyright laws and treaties.
  30:main.c        **** * Therefore, you may use this software ony as provided in the license agreement
ARM GAS  C:\Users\austc\AppData\Local\Temp\ccOnTNnk.s 			page 2


  31:main.c        **** * accompanying the software package from which you obtained this software.
  32:main.c        **** * CYPRESS AND ITS SUPPLIERS MAKE NO WARRANTY OF ANY KIND, EXPRESS OR IMPLIED,
  33:main.c        **** * WITH REGARD TO THIS SOFTWARE, INCLUDING, BUT NOT LIMITED TO, NONINFRINGEMENT,
  34:main.c        **** * IMPLIED WARRANTIES OF MERCHANTABILITY AND FITNESS FOR A PARTICULAR PURPOSE.
  35:main.c        **** *******************************************************************************/
  36:main.c        **** #include <project.h>
  37:main.c        **** #include <stdio.h>
  38:main.c        **** 
  39:main.c        **** /* Switch debounce delay in milliseconds */
  40:main.c        **** #define SWITCH_DEBOUNCE_UNIT   (1u)
  41:main.c        **** 
  42:main.c        **** /* Number of debounce units to count delay, before consider that switch is pressed */
  43:main.c        **** #define SWITCH_DEBOUNCE_PERIOD (10u)
  44:main.c        **** 
  45:main.c        **** /* Switch state defines */
  46:main.c        **** #define SWITCH_RELEASED        (0u)
  47:main.c        **** #define SWITCH_PRESSED         (1u)
  48:main.c        **** 
  49:main.c        **** #define TX_DATA_SIZE           (25u)
  50:main.c        **** #define ADC_CHANNEL_NUMBER_0   (0u)
  51:main.c        **** 
  52:main.c        **** /* Function prototypes */
  53:main.c        **** static uint32 ReadSwSwitch(void);
  54:main.c        **** CY_ISR_PROTO(ISR_CAN);
  55:main.c        **** 
  56:main.c        **** /* Global variable used to store switch state */
  57:main.c        **** uint8 switchState = SWITCH_RELEASED;
  58:main.c        **** 
  59:main.c        **** /* Global variable used to store ISR flag */
  60:main.c        **** volatile uint8 isrFlag = 0u;
  61:main.c        **** 
  62:main.c        **** 
  63:main.c        **** /*******************************************************************************
  64:main.c        **** * Function Name: main
  65:main.c        **** ********************************************************************************
  66:main.c        **** *
  67:main.c        **** * Summary:
  68:main.c        **** *  main() performs the following functions:
  69:main.c        **** *  1: Starts the ADC, UART, PWM, CAN, ISR components.
  70:main.c        **** *  2: Starts ADC conversion.
  71:main.c        **** *  3: Gets the converted result, sends message over a CAN and sends the 
  72:main.c        **** *     converted result over UART.
  73:main.c        **** *  4: Polls the status of Switch 1 and sends a message over CAN if it changes.
  74:main.c        **** *  5: Sets a PWM pulse width and sends it over UART.
  75:main.c        **** *
  76:main.c        **** * Parameters:
  77:main.c        **** *  None.
  78:main.c        **** *
  79:main.c        **** * Return:
  80:main.c        **** *  None.
  81:main.c        **** *
  82:main.c        **** *******************************************************************************/
  83:main.c        **** int main()
  84:main.c        **** {
  85:main.c        ****     int16 output;
  86:main.c        ****     uint16 resMilliVolts;
  87:main.c        ****     char8 txData[TX_DATA_SIZE];
ARM GAS  C:\Users\austc\AppData\Local\Temp\ccOnTNnk.s 			page 3


  88:main.c        **** 
  89:main.c        ****     UART_Start();
  90:main.c        ****     ADC_Start();
  91:main.c        ****     PWM_Start();
  92:main.c        **** 
  93:main.c        ****     /* Start ADC conversion */
  94:main.c        ****     ADC_StartConvert();
  95:main.c        **** 
  96:main.c        ****     CAN_GlobalIntEnable();
  97:main.c        ****     //CAN_Start();
  98:main.c        ****     sprintf(txData, "Can Init:  %u\r\n", CAN_Init());
  99:main.c        ****     UART_UartPutString(txData);
 100:main.c        ****     CAN_GlobalIntEnable();
 101:main.c        ****    /* int test = CAN_Enable();
 102:main.c        ****     while(test != CYRET_SUCCESS) {
 103:main.c        ****         test = CAN_Start();   
 104:main.c        ****     }*/
 105:main.c        ****     sprintf(txData, "++++++++++++++++++++++++++++++++++++Can Enable:  %u\r\n", CAN_Enable());
 106:main.c        ****     UART_UartPutString(txData);
 107:main.c        **** 
 108:main.c        ****     /* Set CAN interrupt handler to local routine */
 109:main.c        ****     CyIntSetVector(CAN_ISR_NUMBER, ISR_CAN);
 110:main.c        **** 
 111:main.c        ****     CyGlobalIntEnable;
 112:main.c        **** 
 113:main.c        ****     for(;;)
 114:main.c        ****     {
 115:main.c        ****         sprintf(txData, "Can error state:  %u\r\n", CAN_GetErrorState());
 116:main.c        ****         UART_UartPutString(txData);
 117:main.c        ****         sprintf(txData, "Can error msg:  %lx\n", CAN_ReadErrorCaptureRegister());
 118:main.c        ****         UART_UartPutString(txData);
 119:main.c        ****         if (ADC_IsEndConversion(ADC_RETURN_STATUS))
 120:main.c        ****         {
 121:main.c        ****             /* Gets ADC conversion result */
 122:main.c        ****             output = ADC_GetResult16(ADC_CHANNEL_NUMBER_0);
 123:main.c        **** 
 124:main.c        ****             /* Saturates ADC result to positive numbers */
 125:main.c        ****             if (output < 0)
 126:main.c        ****             {
 127:main.c        ****                 output = 0;
 128:main.c        ****             }
 129:main.c        ****             
 130:main.c        ****             /* Converts ADC result to milli volts */
 131:main.c        ****             resMilliVolts = (uint16) ADC_CountsTo_mVolts(ADC_CHANNEL_NUMBER_0, output);
 132:main.c        ****             
 133:main.c        ****             /* Sends value of ADC output via CAN */
 134:main.c        ****             CAN_TX_DATA_BYTE1(CAN_TX_MAILBOX_ADCdata, 1);
 135:main.c        ****             CAN_TX_DATA_BYTE2(CAN_TX_MAILBOX_ADCdata, 2);
 136:main.c        ****             CAN_TX_DATA_BYTE3(CAN_TX_MAILBOX_ADCdata, 3);
 137:main.c        ****             CAN_TX_DATA_BYTE4(CAN_TX_MAILBOX_ADCdata, 4);
 138:main.c        ****             CAN_TX_DATA_BYTE5(CAN_TX_MAILBOX_ADCdata, 5);
 139:main.c        ****             CAN_TX_DATA_BYTE6(CAN_TX_MAILBOX_ADCdata, 0u);
 140:main.c        ****             CAN_TX_DATA_BYTE7(CAN_TX_MAILBOX_ADCdata, 0u);
 141:main.c        ****             CAN_TX_DATA_BYTE8(CAN_TX_MAILBOX_ADCdata, 0u);
 142:main.c        ****             sprintf(txData, "Can send adc msg:  %u\r\n", CAN_SendMsgADCdata());
 143:main.c        ****             UART_UartPutString(txData);
 144:main.c        ****             /* Display value of ADC output on LCD */
ARM GAS  C:\Users\austc\AppData\Local\Temp\ccOnTNnk.s 			page 4


 145:main.c        ****             sprintf(txData, "ADC out: %u.%.3u \r\n", (resMilliVolts / 1000u), (resMilliVolts % 1000
 146:main.c        ****             UART_UartPutString(txData);
 147:main.c        ****             sprintf(txData, "ADC out: %x + %x = %x\r\n", HI8(resMilliVolts),LO8(resMilliVolts), res
 148:main.c        ****             UART_UartPutString(txData);
 149:main.c        ****         }
 150:main.c        **** 
 151:main.c        ****         /* Change configuration at switch press or release event */
 152:main.c        ****         if (switchState != ReadSwSwitch())    /* Switch state changed status */
 153:main.c        ****         {
 154:main.c        ****             /* Store the current switch state */
 155:main.c        ****             switchState = ReadSwSwitch();
 156:main.c        **** 
 157:main.c        ****             /* Fill CAN data depending on switch state */
 158:main.c        ****             if (Switch1_Read() == 0u)
 159:main.c        ****             {
 160:main.c        ****                 CAN_TX_DATA_BYTE1(CAN_TX_MAILBOX_switchStatus, SWITCH_PRESSED);
 161:main.c        ****                 UART_UartPutString("switch1 pressed.\r\n");
 162:main.c        ****             }
 163:main.c        ****             else
 164:main.c        ****             {
 165:main.c        ****                 CAN_TX_DATA_BYTE1(CAN_TX_MAILBOX_switchStatus, SWITCH_RELEASED);
 166:main.c        ****                 UART_UartPutString("switch1 released.\r\n");
 167:main.c        ****             }
 168:main.c        ****             CAN_TX_DATA_BYTE2(CAN_TX_MAILBOX_switchStatus, 0u);
 169:main.c        ****             CAN_TX_DATA_BYTE3(CAN_TX_MAILBOX_switchStatus, 0u);
 170:main.c        ****             CAN_TX_DATA_BYTE4(CAN_TX_MAILBOX_switchStatus, 0u);
 171:main.c        ****             CAN_TX_DATA_BYTE5(CAN_TX_MAILBOX_switchStatus, 0u);
 172:main.c        ****             CAN_TX_DATA_BYTE6(CAN_TX_MAILBOX_switchStatus, 0u);
 173:main.c        ****             CAN_TX_DATA_BYTE7(CAN_TX_MAILBOX_switchStatus, 0u);
 174:main.c        ****             CAN_TX_DATA_BYTE8(CAN_TX_MAILBOX_switchStatus, 0u);
 175:main.c        **** 
 176:main.c        ****             /* Send CAN message with switch state */
 177:main.c        ****                 sprintf(txData, "Can send switch msg:  %u\r\n", CAN_SendMsgswitchStatus());
 178:main.c        ****                 UART_UartPutString(txData);
 179:main.c        ****         }
 180:main.c        **** 
 181:main.c        ****         if (isrFlag != 0u)
 182:main.c        ****         {
 183:main.c        ****             /* Set PWM pulse width */
 184:main.c        ****             PWM_WriteCompare(CAN_RX_DATA_BYTE1(CAN_RX_MAILBOX_0));
 185:main.c        **** 
 186:main.c        ****             /* Puts out over UART value of PWM pulse width */
 187:main.c        ****             sprintf(txData, "PWM pulse width: %X \r\n", CAN_RX_DATA_BYTE1(CAN_RX_MAILBOX_0));
 188:main.c        ****             UART_UartPutString(txData);
 189:main.c        ****             
 190:main.c        ****             /* Clear the isrFlag */
 191:main.c        ****             isrFlag = 0u;
 192:main.c        ****         }
 193:main.c        **** 
 194:main.c        ****         CyDelay(100u);
 195:main.c        ****     }
 196:main.c        **** }
 197:main.c        **** 
 198:main.c        **** 
 199:main.c        **** /*******************************************************************************
 200:main.c        **** * Function Name: ISR_CAN
 201:main.c        **** ********************************************************************************
ARM GAS  C:\Users\austc\AppData\Local\Temp\ccOnTNnk.s 			page 5


 202:main.c        **** *
 203:main.c        **** * Summary:
 204:main.c        **** *  This ISR is executed at a Receive Message event and set the isrFlag.
 205:main.c        **** *
 206:main.c        **** * Parameters:
 207:main.c        **** *  None.
 208:main.c        **** *
 209:main.c        **** * Return:
 210:main.c        **** *  None.
 211:main.c        **** *
 212:main.c        **** *******************************************************************************/
 213:main.c        **** CY_ISR(ISR_CAN)
 214:main.c        **** {
  28              		.loc 1 214 0
  29              		.cfi_startproc
  30              		@ args = 0, pretend = 0, frame = 0
  31              		@ frame_needed = 0, uses_anonymous_args = 0
  32              		@ link register save eliminated.
 215:main.c        ****     /* Clear Receive Message flag */
 216:main.c        ****     CAN_INT_SR_REG = CAN_RX_MESSAGE_MASK;
  33              		.loc 1 216 0
  34 0000 8022     		movs	r2, #128
  35 0002 5201     		lsls	r2, r2, #5
  36 0004 044B     		ldr	r3, .L2
  37 0006 1A60     		str	r2, [r3]
 217:main.c        **** 
 218:main.c        ****     /* Set the isrFlag */
 219:main.c        ****     isrFlag = 1u;
  38              		.loc 1 219 0
  39 0008 0123     		movs	r3, #1
  40 000a 044A     		ldr	r2, .L2+4
  41 000c 1370     		strb	r3, [r2]
 220:main.c        **** 
 221:main.c        ****     /* Acknowledges receipt of new message */
 222:main.c        ****     CAN_RX_ACK_MESSAGE(CAN_RX_MAILBOX_0);
  42              		.loc 1 222 0
  43 000e 044A     		ldr	r2, .L2+8
  44 0010 1168     		ldr	r1, [r2]
  45 0012 0B43     		orrs	r3, r1
  46 0014 1360     		str	r3, [r2]
 223:main.c        **** }
  47              		.loc 1 223 0
  48              		@ sp needed
  49 0016 7047     		bx	lr
  50              	.L3:
  51              		.align	2
  52              	.L2:
  53 0018 00002F40 		.word	1076822016
  54 001c 00000000 		.word	.LANCHOR0
  55 0020 A0002F40 		.word	1076822176
  56              		.cfi_endproc
  57              	.LFE36:
  58              		.size	ISR_CAN, .-ISR_CAN
  59              		.section	.text.ReadSwSwitch,"ax",%progbits
  60              		.align	2
  61              		.code	16
  62              		.thumb_func
ARM GAS  C:\Users\austc\AppData\Local\Temp\ccOnTNnk.s 			page 6


  63              		.type	ReadSwSwitch, %function
  64              	ReadSwSwitch:
  65              	.LFB37:
 224:main.c        **** 
 225:main.c        **** 
 226:main.c        **** /*******************************************************************************
 227:main.c        **** * Function Name: ReadSwSwitch
 228:main.c        **** ********************************************************************************
 229:main.c        **** * Summary:
 230:main.c        **** *  Reads and returns the current status of the switch.
 231:main.c        **** *
 232:main.c        **** * Parameters:
 233:main.c        **** *  None
 234:main.c        **** *
 235:main.c        **** * Return:
 236:main.c        **** *  Returns a non-zero value, if switch is pressed, and a zero value otherwise.
 237:main.c        **** *
 238:main.c        **** *******************************************************************************/
 239:main.c        **** static uint32 ReadSwSwitch(void)
 240:main.c        **** {
  66              		.loc 1 240 0
  67              		.cfi_startproc
  68              		@ args = 0, pretend = 0, frame = 0
  69              		@ frame_needed = 0, uses_anonymous_args = 0
  70 0000 10B5     		push	{r4, lr}
  71              		.cfi_def_cfa_offset 8
  72              		.cfi_offset 4, -8
  73              		.cfi_offset 14, -4
  74              	.LVL0:
 241:main.c        ****     uint32 heldDown;
 242:main.c        ****     uint32 swStatus;
 243:main.c        **** 
 244:main.c        ****     swStatus = 0u;  /* Switch is not active */
 245:main.c        ****     heldDown = 0u;  /* Reset debounce counter */
  75              		.loc 1 245 0
  76 0002 0024     		movs	r4, #0
 246:main.c        **** 
 247:main.c        ****     /* Wait for debounce period before determining whether the switch is pressed */
 248:main.c        ****     while (Switch1_Read() == SWITCH_PRESSED)
  77              		.loc 1 248 0
  78 0004 05E0     		b	.L5
  79              	.LVL1:
  80              	.L7:
 249:main.c        ****     {
 250:main.c        ****         /* Count debounce period */
 251:main.c        ****         CyDelay(SWITCH_DEBOUNCE_UNIT);
  81              		.loc 1 251 0
  82 0006 0120     		movs	r0, #1
  83 0008 FFF7FEFF 		bl	CyDelay
  84              	.LVL2:
 252:main.c        ****         ++heldDown;
  85              		.loc 1 252 0
  86 000c 0134     		adds	r4, r4, #1
  87              	.LVL3:
 253:main.c        **** 
 254:main.c        ****         if (heldDown > SWITCH_DEBOUNCE_PERIOD)
  88              		.loc 1 254 0
ARM GAS  C:\Users\austc\AppData\Local\Temp\ccOnTNnk.s 			page 7


  89 000e 0A2C     		cmp	r4, #10
  90 0010 05D8     		bhi	.L8
  91              	.LVL4:
  92              	.L5:
 248:main.c        ****     {
  93              		.loc 1 248 0
  94 0012 FFF7FEFF 		bl	Switch1_Read
  95              	.LVL5:
  96 0016 0128     		cmp	r0, #1
  97 0018 F5D0     		beq	.L7
 244:main.c        ****     heldDown = 0u;  /* Reset debounce counter */
  98              		.loc 1 244 0
  99 001a 0020     		movs	r0, #0
 100 001c 00E0     		b	.L6
 101              	.L8:
 255:main.c        ****         {
 256:main.c        ****             swStatus = 1u; /* Switch is pressed */
 102              		.loc 1 256 0
 103 001e 0120     		movs	r0, #1
 104              	.L6:
 105              	.LVL6:
 257:main.c        ****             break;
 258:main.c        ****         }
 259:main.c        ****     }
 260:main.c        **** 
 261:main.c        ****     return (swStatus);
 262:main.c        **** }
 106              		.loc 1 262 0
 107              		@ sp needed
 108              	.LVL7:
 109 0020 10BD     		pop	{r4, pc}
 110              		.cfi_endproc
 111              	.LFE37:
 112              		.size	ReadSwSwitch, .-ReadSwSwitch
 113              		.global	__aeabi_uidivmod
 114              		.global	__aeabi_uidiv
 115 0022 C046     		.section	.text.main,"ax",%progbits
 116              		.align	2
 117              		.global	main
 118              		.code	16
 119              		.thumb_func
 120              		.type	main, %function
 121              	main:
 122              	.LFB35:
  84:main.c        ****     int16 output;
 123              		.loc 1 84 0
 124              		.cfi_startproc
 125              		@ args = 0, pretend = 0, frame = 32
 126              		@ frame_needed = 0, uses_anonymous_args = 0
 127 0000 F0B5     		push	{r4, r5, r6, r7, lr}
 128              		.cfi_def_cfa_offset 20
 129              		.cfi_offset 4, -20
 130              		.cfi_offset 5, -16
 131              		.cfi_offset 6, -12
 132              		.cfi_offset 7, -8
 133              		.cfi_offset 14, -4
 134 0002 8BB0     		sub	sp, sp, #44
ARM GAS  C:\Users\austc\AppData\Local\Temp\ccOnTNnk.s 			page 8


 135              		.cfi_def_cfa_offset 64
  89:main.c        ****     ADC_Start();
 136              		.loc 1 89 0
 137 0004 FFF7FEFF 		bl	UART_Start
 138              	.LVL8:
  90:main.c        ****     PWM_Start();
 139              		.loc 1 90 0
 140 0008 FFF7FEFF 		bl	ADC_Start
 141              	.LVL9:
  91:main.c        **** 
 142              		.loc 1 91 0
 143 000c FFF7FEFF 		bl	PWM_Start
 144              	.LVL10:
  94:main.c        **** 
 145              		.loc 1 94 0
 146 0010 FFF7FEFF 		bl	ADC_StartConvert
 147              	.LVL11:
  96:main.c        ****     //CAN_Start();
 148              		.loc 1 96 0
 149 0014 FFF7FEFF 		bl	CAN_GlobalIntEnable
 150              	.LVL12:
  98:main.c        ****     UART_UartPutString(txData);
 151              		.loc 1 98 0
 152 0018 FFF7FEFF 		bl	CAN_Init
 153              	.LVL13:
 154 001c 0200     		movs	r2, r0
 155 001e 7849     		ldr	r1, .L18
 156 0020 03A8     		add	r0, sp, #12
 157 0022 FFF7FEFF 		bl	sprintf
 158              	.LVL14:
  99:main.c        ****     CAN_GlobalIntEnable();
 159              		.loc 1 99 0
 160 0026 03A8     		add	r0, sp, #12
 161 0028 FFF7FEFF 		bl	UART_UartPutString
 162              	.LVL15:
 100:main.c        ****    /* int test = CAN_Enable();
 163              		.loc 1 100 0
 164 002c FFF7FEFF 		bl	CAN_GlobalIntEnable
 165              	.LVL16:
 105:main.c        ****     UART_UartPutString(txData);
 166              		.loc 1 105 0
 167 0030 FFF7FEFF 		bl	CAN_Enable
 168              	.LVL17:
 169 0034 0200     		movs	r2, r0
 170 0036 7349     		ldr	r1, .L18+4
 171 0038 03A8     		add	r0, sp, #12
 172 003a FFF7FEFF 		bl	sprintf
 173              	.LVL18:
 106:main.c        **** 
 174              		.loc 1 106 0
 175 003e 03A8     		add	r0, sp, #12
 176 0040 FFF7FEFF 		bl	UART_UartPutString
 177              	.LVL19:
 109:main.c        **** 
 178              		.loc 1 109 0
 179 0044 7049     		ldr	r1, .L18+8
 180 0046 1D20     		movs	r0, #29
ARM GAS  C:\Users\austc\AppData\Local\Temp\ccOnTNnk.s 			page 9


 181 0048 FFF7FEFF 		bl	CyIntSetVector
 182              	.LVL20:
 111:main.c        **** 
 183              		.loc 1 111 0
 184              		.syntax divided
 185              	@ 111 "main.c" 1
 186 004c 62B6     		CPSIE   i
 187              	@ 0 "" 2
 188              		.thumb
 189              		.syntax unified
 190              	.L16:
 115:main.c        ****         UART_UartPutString(txData);
 191              		.loc 1 115 0
 192 004e FFF7FEFF 		bl	CAN_GetErrorState
 193              	.LVL21:
 194 0052 0200     		movs	r2, r0
 195 0054 6D49     		ldr	r1, .L18+12
 196 0056 03A8     		add	r0, sp, #12
 197 0058 FFF7FEFF 		bl	sprintf
 198              	.LVL22:
 116:main.c        ****         sprintf(txData, "Can error msg:  %lx\n", CAN_ReadErrorCaptureRegister());
 199              		.loc 1 116 0
 200 005c 03A8     		add	r0, sp, #12
 201 005e FFF7FEFF 		bl	UART_UartPutString
 202              	.LVL23:
 117:main.c        ****         UART_UartPutString(txData);
 203              		.loc 1 117 0
 204 0062 FFF7FEFF 		bl	CAN_ReadErrorCaptureRegister
 205              	.LVL24:
 206 0066 0200     		movs	r2, r0
 207 0068 6949     		ldr	r1, .L18+16
 208 006a 03A8     		add	r0, sp, #12
 209 006c FFF7FEFF 		bl	sprintf
 210              	.LVL25:
 118:main.c        ****         if (ADC_IsEndConversion(ADC_RETURN_STATUS))
 211              		.loc 1 118 0
 212 0070 03A8     		add	r0, sp, #12
 213 0072 FFF7FEFF 		bl	UART_UartPutString
 214              	.LVL26:
 119:main.c        ****         {
 215              		.loc 1 119 0
 216 0076 0120     		movs	r0, #1
 217 0078 FFF7FEFF 		bl	ADC_IsEndConversion
 218              	.LVL27:
 219 007c 0028     		cmp	r0, #0
 220 007e 5FD0     		beq	.L10
 122:main.c        **** 
 221              		.loc 1 122 0
 222 0080 0020     		movs	r0, #0
 223 0082 FFF7FEFF 		bl	ADC_GetResult16
 224              	.LVL28:
 225 0086 011E     		subs	r1, r0, #0
 226              	.LVL29:
 125:main.c        ****             {
 227              		.loc 1 125 0
 228 0088 00DA     		bge	.L11
 127:main.c        ****             }
ARM GAS  C:\Users\austc\AppData\Local\Temp\ccOnTNnk.s 			page 10


 229              		.loc 1 127 0
 230 008a 0021     		movs	r1, #0
 231              	.L11:
 232              	.LVL30:
 131:main.c        ****             
 233              		.loc 1 131 0
 234 008c 0020     		movs	r0, #0
 235 008e FFF7FEFF 		bl	ADC_CountsTo_mVolts
 236              	.LVL31:
 237 0092 0400     		movs	r4, r0
 238 0094 85B2     		uxth	r5, r0
 239              	.LVL32:
 134:main.c        ****             CAN_TX_DATA_BYTE2(CAN_TX_MAILBOX_ADCdata, 2);
 240              		.loc 1 134 0
 241 0096 5F4A     		ldr	r2, .L18+20
 242 0098 1368     		ldr	r3, [r2]
 243 009a 1B02     		lsls	r3, r3, #8
 244 009c 1B0A     		lsrs	r3, r3, #8
 245 009e 8021     		movs	r1, #128
 246 00a0 4904     		lsls	r1, r1, #17
 247 00a2 0B43     		orrs	r3, r1
 248 00a4 1360     		str	r3, [r2]
 135:main.c        ****             CAN_TX_DATA_BYTE3(CAN_TX_MAILBOX_ADCdata, 3);
 249              		.loc 1 135 0
 250 00a6 1368     		ldr	r3, [r2]
 251 00a8 5B48     		ldr	r0, .L18+24
 252 00aa 0340     		ands	r3, r0
 253 00ac 8021     		movs	r1, #128
 254 00ae 8902     		lsls	r1, r1, #10
 255 00b0 0B43     		orrs	r3, r1
 256 00b2 1360     		str	r3, [r2]
 136:main.c        ****             CAN_TX_DATA_BYTE4(CAN_TX_MAILBOX_ADCdata, 4);
 257              		.loc 1 136 0
 258 00b4 1368     		ldr	r3, [r2]
 259 00b6 594E     		ldr	r6, .L18+28
 260 00b8 3340     		ands	r3, r6
 261 00ba C021     		movs	r1, #192
 262 00bc 8900     		lsls	r1, r1, #2
 263 00be 0B43     		orrs	r3, r1
 264 00c0 1360     		str	r3, [r2]
 137:main.c        ****             CAN_TX_DATA_BYTE5(CAN_TX_MAILBOX_ADCdata, 5);
 265              		.loc 1 137 0
 266 00c2 1368     		ldr	r3, [r2]
 267 00c4 FF27     		movs	r7, #255
 268 00c6 BB43     		bics	r3, r7
 269 00c8 0421     		movs	r1, #4
 270 00ca 0B43     		orrs	r3, r1
 271 00cc 1360     		str	r3, [r2]
 138:main.c        ****             CAN_TX_DATA_BYTE6(CAN_TX_MAILBOX_ADCdata, 0u);
 272              		.loc 1 138 0
 273 00ce 544A     		ldr	r2, .L18+32
 274 00d0 1168     		ldr	r1, [r2]
 275 00d2 0902     		lsls	r1, r1, #8
 276 00d4 090A     		lsrs	r1, r1, #8
 277 00d6 A023     		movs	r3, #160
 278 00d8 DB04     		lsls	r3, r3, #19
 279 00da 1943     		orrs	r1, r3
ARM GAS  C:\Users\austc\AppData\Local\Temp\ccOnTNnk.s 			page 11


 280 00dc 1160     		str	r1, [r2]
 139:main.c        ****             CAN_TX_DATA_BYTE7(CAN_TX_MAILBOX_ADCdata, 0u);
 281              		.loc 1 139 0
 282 00de 1368     		ldr	r3, [r2]
 283 00e0 1840     		ands	r0, r3
 284 00e2 1060     		str	r0, [r2]
 140:main.c        ****             CAN_TX_DATA_BYTE8(CAN_TX_MAILBOX_ADCdata, 0u);
 285              		.loc 1 140 0
 286 00e4 1368     		ldr	r3, [r2]
 287 00e6 1E40     		ands	r6, r3
 288 00e8 1660     		str	r6, [r2]
 141:main.c        ****             sprintf(txData, "Can send adc msg:  %u\r\n", CAN_SendMsgADCdata());
 289              		.loc 1 141 0
 290 00ea 1368     		ldr	r3, [r2]
 291 00ec BB43     		bics	r3, r7
 292 00ee 1360     		str	r3, [r2]
 142:main.c        ****             UART_UartPutString(txData);
 293              		.loc 1 142 0
 294 00f0 FFF7FEFF 		bl	CAN_SendMsgADCdata
 295              	.LVL33:
 296 00f4 0200     		movs	r2, r0
 297 00f6 4B49     		ldr	r1, .L18+36
 298 00f8 03A8     		add	r0, sp, #12
 299 00fa FFF7FEFF 		bl	sprintf
 300              	.LVL34:
 143:main.c        ****             /* Display value of ADC output on LCD */
 301              		.loc 1 143 0
 302 00fe 03A8     		add	r0, sp, #12
 303 0100 FFF7FEFF 		bl	UART_UartPutString
 304              	.LVL35:
 145:main.c        ****             UART_UartPutString(txData);
 305              		.loc 1 145 0
 306 0104 FA21     		movs	r1, #250
 307 0106 8900     		lsls	r1, r1, #2
 308 0108 2800     		movs	r0, r5
 309 010a FFF7FEFF 		bl	__aeabi_uidivmod
 310              	.LVL36:
 311 010e 8EB2     		uxth	r6, r1
 312 0110 FA21     		movs	r1, #250
 313 0112 8900     		lsls	r1, r1, #2
 314 0114 2800     		movs	r0, r5
 315 0116 FFF7FEFF 		bl	__aeabi_uidiv
 316              	.LVL37:
 317 011a 82B2     		uxth	r2, r0
 318 011c 3300     		movs	r3, r6
 319 011e 4249     		ldr	r1, .L18+40
 320 0120 03A8     		add	r0, sp, #12
 321 0122 FFF7FEFF 		bl	sprintf
 322              	.LVL38:
 146:main.c        ****             sprintf(txData, "ADC out: %x + %x = %x\r\n", HI8(resMilliVolts),LO8(resMilliVolts), res
 323              		.loc 1 146 0
 324 0126 03A8     		add	r0, sp, #12
 325 0128 FFF7FEFF 		bl	UART_UartPutString
 326              	.LVL39:
 147:main.c        ****             UART_UartPutString(txData);
 327              		.loc 1 147 0
 328 012c 2A0A     		lsrs	r2, r5, #8
ARM GAS  C:\Users\austc\AppData\Local\Temp\ccOnTNnk.s 			page 12


 329 012e E3B2     		uxtb	r3, r4
 330 0130 0095     		str	r5, [sp]
 331 0132 3E49     		ldr	r1, .L18+44
 332 0134 03A8     		add	r0, sp, #12
 333 0136 FFF7FEFF 		bl	sprintf
 334              	.LVL40:
 148:main.c        ****         }
 335              		.loc 1 148 0
 336 013a 03A8     		add	r0, sp, #12
 337 013c FFF7FEFF 		bl	UART_UartPutString
 338              	.LVL41:
 339              	.L10:
 152:main.c        ****         {
 340              		.loc 1 152 0
 341 0140 3B4B     		ldr	r3, .L18+48
 342 0142 5C78     		ldrb	r4, [r3, #1]
 343 0144 FFF7FEFF 		bl	ReadSwSwitch
 344              	.LVL42:
 345 0148 8442     		cmp	r4, r0
 346 014a 40D0     		beq	.L12
 155:main.c        **** 
 347              		.loc 1 155 0
 348 014c FFF7FEFF 		bl	ReadSwSwitch
 349              	.LVL43:
 350 0150 374B     		ldr	r3, .L18+48
 351 0152 5870     		strb	r0, [r3, #1]
 158:main.c        ****             {
 352              		.loc 1 158 0
 353 0154 FFF7FEFF 		bl	Switch1_Read
 354              	.LVL44:
 355 0158 0028     		cmp	r0, #0
 356 015a 0BD1     		bne	.L13
 160:main.c        ****                 UART_UartPutString("switch1 pressed.\r\n");
 357              		.loc 1 160 0
 358 015c 354A     		ldr	r2, .L18+52
 359 015e 1368     		ldr	r3, [r2]
 360 0160 1B02     		lsls	r3, r3, #8
 361 0162 1B0A     		lsrs	r3, r3, #8
 362 0164 8021     		movs	r1, #128
 363 0166 4904     		lsls	r1, r1, #17
 364 0168 0B43     		orrs	r3, r1
 365 016a 1360     		str	r3, [r2]
 161:main.c        ****             }
 366              		.loc 1 161 0
 367 016c 3248     		ldr	r0, .L18+56
 368 016e FFF7FEFF 		bl	UART_UartPutString
 369              	.LVL45:
 370 0172 07E0     		b	.L14
 371              	.L13:
 165:main.c        ****                 UART_UartPutString("switch1 released.\r\n");
 372              		.loc 1 165 0
 373 0174 2F4A     		ldr	r2, .L18+52
 374 0176 1368     		ldr	r3, [r2]
 375 0178 1B02     		lsls	r3, r3, #8
 376 017a 1B0A     		lsrs	r3, r3, #8
 377 017c 1360     		str	r3, [r2]
 166:main.c        ****             }
ARM GAS  C:\Users\austc\AppData\Local\Temp\ccOnTNnk.s 			page 13


 378              		.loc 1 166 0
 379 017e 2F48     		ldr	r0, .L18+60
 380 0180 FFF7FEFF 		bl	UART_UartPutString
 381              	.LVL46:
 382              	.L14:
 168:main.c        ****             CAN_TX_DATA_BYTE3(CAN_TX_MAILBOX_switchStatus, 0u);
 383              		.loc 1 168 0
 384 0184 2B4B     		ldr	r3, .L18+52
 385 0186 1A68     		ldr	r2, [r3]
 386 0188 2348     		ldr	r0, .L18+24
 387 018a 0240     		ands	r2, r0
 388 018c 1A60     		str	r2, [r3]
 169:main.c        ****             CAN_TX_DATA_BYTE4(CAN_TX_MAILBOX_switchStatus, 0u);
 389              		.loc 1 169 0
 390 018e 1A68     		ldr	r2, [r3]
 391 0190 2249     		ldr	r1, .L18+28
 392 0192 0A40     		ands	r2, r1
 393 0194 1A60     		str	r2, [r3]
 170:main.c        ****             CAN_TX_DATA_BYTE5(CAN_TX_MAILBOX_switchStatus, 0u);
 394              		.loc 1 170 0
 395 0196 1A68     		ldr	r2, [r3]
 396 0198 FF24     		movs	r4, #255
 397 019a A243     		bics	r2, r4
 398 019c 1A60     		str	r2, [r3]
 171:main.c        ****             CAN_TX_DATA_BYTE6(CAN_TX_MAILBOX_switchStatus, 0u);
 399              		.loc 1 171 0
 400 019e 284B     		ldr	r3, .L18+64
 401 01a0 1A68     		ldr	r2, [r3]
 402 01a2 1202     		lsls	r2, r2, #8
 403 01a4 120A     		lsrs	r2, r2, #8
 404 01a6 1A60     		str	r2, [r3]
 172:main.c        ****             CAN_TX_DATA_BYTE7(CAN_TX_MAILBOX_switchStatus, 0u);
 405              		.loc 1 172 0
 406 01a8 1A68     		ldr	r2, [r3]
 407 01aa 1040     		ands	r0, r2
 408 01ac 1860     		str	r0, [r3]
 173:main.c        ****             CAN_TX_DATA_BYTE8(CAN_TX_MAILBOX_switchStatus, 0u);
 409              		.loc 1 173 0
 410 01ae 1A68     		ldr	r2, [r3]
 411 01b0 1140     		ands	r1, r2
 412 01b2 1960     		str	r1, [r3]
 174:main.c        **** 
 413              		.loc 1 174 0
 414 01b4 1A68     		ldr	r2, [r3]
 415 01b6 A243     		bics	r2, r4
 416 01b8 1A60     		str	r2, [r3]
 177:main.c        ****                 UART_UartPutString(txData);
 417              		.loc 1 177 0
 418 01ba FFF7FEFF 		bl	CAN_SendMsgswitchStatus
 419              	.LVL47:
 420 01be 0200     		movs	r2, r0
 421 01c0 2049     		ldr	r1, .L18+68
 422 01c2 03A8     		add	r0, sp, #12
 423 01c4 FFF7FEFF 		bl	sprintf
 424              	.LVL48:
 178:main.c        ****         }
 425              		.loc 1 178 0
ARM GAS  C:\Users\austc\AppData\Local\Temp\ccOnTNnk.s 			page 14


 426 01c8 03A8     		add	r0, sp, #12
 427 01ca FFF7FEFF 		bl	UART_UartPutString
 428              	.LVL49:
 429              	.L12:
 181:main.c        ****         {
 430              		.loc 1 181 0
 431 01ce 184B     		ldr	r3, .L18+48
 432 01d0 1B78     		ldrb	r3, [r3]
 433 01d2 002B     		cmp	r3, #0
 434 01d4 10D0     		beq	.L15
 184:main.c        **** 
 435              		.loc 1 184 0
 436 01d6 1C4C     		ldr	r4, .L18+72
 437 01d8 2068     		ldr	r0, [r4]
 438 01da 000E     		lsrs	r0, r0, #24
 439 01dc FFF7FEFF 		bl	PWM_WriteCompare
 440              	.LVL50:
 187:main.c        ****             UART_UartPutString(txData);
 441              		.loc 1 187 0
 442 01e0 2268     		ldr	r2, [r4]
 443 01e2 120E     		lsrs	r2, r2, #24
 444 01e4 1949     		ldr	r1, .L18+76
 445 01e6 03A8     		add	r0, sp, #12
 446 01e8 FFF7FEFF 		bl	sprintf
 447              	.LVL51:
 188:main.c        ****             
 448              		.loc 1 188 0
 449 01ec 03A8     		add	r0, sp, #12
 450 01ee FFF7FEFF 		bl	UART_UartPutString
 451              	.LVL52:
 191:main.c        ****         }
 452              		.loc 1 191 0
 453 01f2 0022     		movs	r2, #0
 454 01f4 0E4B     		ldr	r3, .L18+48
 455 01f6 1A70     		strb	r2, [r3]
 456              	.L15:
 194:main.c        ****     }
 457              		.loc 1 194 0
 458 01f8 6420     		movs	r0, #100
 459 01fa FFF7FEFF 		bl	CyDelay
 460              	.LVL53:
 195:main.c        **** }
 461              		.loc 1 195 0
 462 01fe 26E7     		b	.L16
 463              	.L19:
 464              		.align	2
 465              	.L18:
 466 0200 00000000 		.word	.LC1
 467 0204 10000000 		.word	.LC3
 468 0208 00000000 		.word	ISR_CAN
 469 020c 48000000 		.word	.LC6
 470 0210 60000000 		.word	.LC8
 471 0214 38002F40 		.word	1076822072
 472 0218 FFFF00FF 		.word	-16711681
 473 021c FF00FFFF 		.word	-65281
 474 0220 3C002F40 		.word	1076822076
 475 0224 78000000 		.word	.LC10
ARM GAS  C:\Users\austc\AppData\Local\Temp\ccOnTNnk.s 			page 15


 476 0228 90000000 		.word	.LC12
 477 022c A4000000 		.word	.LC14
 478 0230 00000000 		.word	.LANCHOR0
 479 0234 28002F40 		.word	1076822056
 480 0238 BC000000 		.word	.LC17
 481 023c D0000000 		.word	.LC19
 482 0240 2C002F40 		.word	1076822060
 483 0244 E4000000 		.word	.LC21
 484 0248 A8002F40 		.word	1076822184
 485 024c 00010000 		.word	.LC23
 486              		.cfi_endproc
 487              	.LFE35:
 488              		.size	main, .-main
 489              		.global	isrFlag
 490              		.global	switchState
 491              		.section	.rodata.str1.4,"aMS",%progbits,1
 492              		.align	2
 493              	.LC1:
 494 0000 43616E20 		.ascii	"Can Init:  %u\015\012\000"
 494      496E6974 
 494      3A202025 
 494      750D0A00 
 495              	.LC3:
 496 0010 2B2B2B2B 		.ascii	"++++++++++++++++++++++++++++++++++++Can Enable:  %u"
 496      2B2B2B2B 
 496      2B2B2B2B 
 496      2B2B2B2B 
 496      2B2B2B2B 
 497 0043 0D0A00   		.ascii	"\015\012\000"
 498 0046 0000     		.space	2
 499              	.LC6:
 500 0048 43616E20 		.ascii	"Can error state:  %u\015\012\000"
 500      6572726F 
 500      72207374 
 500      6174653A 
 500      20202575 
 501 005f 00       		.space	1
 502              	.LC8:
 503 0060 43616E20 		.ascii	"Can error msg:  %lx\012\000"
 503      6572726F 
 503      72206D73 
 503      673A2020 
 503      256C780A 
 504 0075 000000   		.space	3
 505              	.LC10:
 506 0078 43616E20 		.ascii	"Can send adc msg:  %u\015\012\000"
 506      73656E64 
 506      20616463 
 506      206D7367 
 506      3A202025 
 507              	.LC12:
 508 0090 41444320 		.ascii	"ADC out: %u.%.3u \015\012\000"
 508      6F75743A 
 508      2025752E 
 508      252E3375 
 508      200D0A00 
 509              	.LC14:
ARM GAS  C:\Users\austc\AppData\Local\Temp\ccOnTNnk.s 			page 16


 510 00a4 41444320 		.ascii	"ADC out: %x + %x = %x\015\012\000"
 510      6F75743A 
 510      20257820 
 510      2B202578 
 510      203D2025 
 511              	.LC17:
 512 00bc 73776974 		.ascii	"switch1 pressed.\015\012\000"
 512      63683120 
 512      70726573 
 512      7365642E 
 512      0D0A00
 513 00cf 00       		.space	1
 514              	.LC19:
 515 00d0 73776974 		.ascii	"switch1 released.\015\012\000"
 515      63683120 
 515      72656C65 
 515      61736564 
 515      2E0D0A00 
 516              	.LC21:
 517 00e4 43616E20 		.ascii	"Can send switch msg:  %u\015\012\000"
 517      73656E64 
 517      20737769 
 517      74636820 
 517      6D73673A 
 518 00ff 00       		.space	1
 519              	.LC23:
 520 0100 50574D20 		.ascii	"PWM pulse width: %X \015\012\000"
 520      70756C73 
 520      65207769 
 520      6474683A 
 520      20255820 
 521              		.bss
 522              		.set	.LANCHOR0,. + 0
 523              		.type	isrFlag, %object
 524              		.size	isrFlag, 1
 525              	isrFlag:
 526 0000 00       		.space	1
 527              		.type	switchState, %object
 528              		.size	switchState, 1
 529              	switchState:
 530 0001 00       		.space	1
 531              		.text
 532              	.Letext0:
 533              		.file 2 "Generated_Source\\PSoC4/cytypes.h"
 534              		.file 3 "Generated_Source\\PSoC4/CAN.h"
 535              		.file 4 "Generated_Source\\PSoC4/CyLib.h"
 536              		.file 5 "Generated_Source\\PSoC4/Switch1.h"
 537              		.file 6 "Generated_Source\\PSoC4/UART.h"
 538              		.file 7 "Generated_Source\\PSoC4/ADC.h"
 539              		.file 8 "Generated_Source\\PSoC4/PWM.h"
 540              		.file 9 "c:\\program files (x86)\\cypress\\psoc creator\\4.2\\psoc creator\\import\\gnu\\arm\\5.4.
 541              		.file 10 "Generated_Source\\PSoC4/UART_SPI_UART.h"