ARM GAS  C:\Users\austc\AppData\Local\Temp\ccJOGwuu.s 			page 1


   1              		.syntax unified
   2              		.cpu cortex-m0
   3              		.fpu softvfp
   4              		.eabi_attribute 20, 1
   5              		.eabi_attribute 21, 1
   6              		.eabi_attribute 23, 3
   7              		.eabi_attribute 24, 1
   8              		.eabi_attribute 25, 1
   9              		.eabi_attribute 26, 1
  10              		.eabi_attribute 30, 1
  11              		.eabi_attribute 34, 0
  12              		.eabi_attribute 18, 4
  13              		.thumb
  14              		.syntax unified
  15              		.file	"main.c"
  16              		.text
  17              	.Ltext0:
  18              		.cfi_sections	.debug_frame
  19              		.section	.text.ISR_CAN,"ax",%progbits
  20              		.align	2
  21              		.global	ISR_CAN
  22              		.code	16
  23              		.thumb_func
  24              		.type	ISR_CAN, %function
  25              	ISR_CAN:
  26              	.LFB36:
  27              		.file 1 "main.c"
   1:main.c        **** /*******************************************************************************
   2:main.c        **** * File Name: main.c
   3:main.c        **** *
   4:main.c        **** * Version: 1.0
   5:main.c        **** *
   6:main.c        **** * Description:
   7:main.c        **** *  In this project, the CAN component is configured to transmit two messages
   8:main.c        **** *  over the CAN bus:
   9:main.c        **** *   Message 1 - Status of Switch 1. Sent whenever there is a change in the
  10:main.c        **** *               status.
  11:main.c        **** *   Message 2 - ADC data. Sent every 100ms.
  12:main.c        **** *
  13:main.c        **** *  The component is also configured to receive data which is used to set the
  14:main.c        **** *  pulse width of the PWM used in the project.
  15:main.c        **** *  Both transmitted and received data are send out over UART, so that it can be
  16:main.c        **** *  received on a PC using a USB-UART bridge (PSoC 5LP) on CY8CKIT-044
  17:main.c        **** *  Development Kit and the terminal software.
  18:main.c        **** *
  19:main.c        **** *  This is only one part of the CAN example project. Use this example along
  20:main.c        **** *  with CAN_Full_P4_Example for complete demonstration.
  21:main.c        **** *
  22:main.c        **** * Hardware Dependency:
  23:main.c        **** *  CY8CKIT-044
  24:main.c        **** *  CY8CKIT-017
  25:main.c        **** *
  26:main.c        **** ********************************************************************************
  27:main.c        **** * Copyright 2015, Cypress Semiconductor Corporation. All rights reserved.
  28:main.c        **** * This software is owned by Cypress Semiconductor Corporation and is protected
  29:main.c        **** * by and subject to worldwide patent and copyright laws and treaties.
  30:main.c        **** * Therefore, you may use this software ony as provided in the license agreement
ARM GAS  C:\Users\austc\AppData\Local\Temp\ccJOGwuu.s 			page 2


  31:main.c        **** * accompanying the software package from which you obtained this software.
  32:main.c        **** * CYPRESS AND ITS SUPPLIERS MAKE NO WARRANTY OF ANY KIND, EXPRESS OR IMPLIED,
  33:main.c        **** * WITH REGARD TO THIS SOFTWARE, INCLUDING, BUT NOT LIMITED TO, NONINFRINGEMENT,
  34:main.c        **** * IMPLIED WARRANTIES OF MERCHANTABILITY AND FITNESS FOR A PARTICULAR PURPOSE.
  35:main.c        **** *******************************************************************************/
  36:main.c        **** #include <project.h>
  37:main.c        **** #include <stdio.h>
  38:main.c        **** 
  39:main.c        **** /* Switch debounce delay in milliseconds */
  40:main.c        **** #define SWITCH_DEBOUNCE_UNIT   (1u)
  41:main.c        **** 
  42:main.c        **** /* Number of debounce units to count delay, before consider that switch is pressed */
  43:main.c        **** #define SWITCH_DEBOUNCE_PERIOD (10u)
  44:main.c        **** 
  45:main.c        **** /* Switch state defines */
  46:main.c        **** #define SWITCH_RELEASED        (0u)
  47:main.c        **** #define SWITCH_PRESSED         (1u)
  48:main.c        **** 
  49:main.c        **** #define TX_DATA_SIZE           (25u)
  50:main.c        **** #define ADC_CHANNEL_NUMBER_0   (0u)
  51:main.c        **** 
  52:main.c        **** /* Function prototypes */
  53:main.c        **** static uint32 ReadSwSwitch(void);
  54:main.c        **** CY_ISR_PROTO(ISR_CAN);
  55:main.c        **** 
  56:main.c        **** /* Global variable used to store switch state */
  57:main.c        **** uint8 switchState = SWITCH_RELEASED;
  58:main.c        **** 
  59:main.c        **** /* Global variable used to store ISR flag */
  60:main.c        **** volatile uint8 isrFlag = 0u;
  61:main.c        **** 
  62:main.c        **** 
  63:main.c        **** /*******************************************************************************
  64:main.c        **** * Function Name: main
  65:main.c        **** ********************************************************************************
  66:main.c        **** *
  67:main.c        **** * Summary:
  68:main.c        **** *  main() performs the following functions:
  69:main.c        **** *  1: Starts the ADC, UART, PWM, CAN, ISR components.
  70:main.c        **** *  2: Starts ADC conversion.
  71:main.c        **** *  3: Gets the converted result, sends message over a CAN and sends the 
  72:main.c        **** *     converted result over UART.
  73:main.c        **** *  4: Polls the status of Switch 1 and sends a message over CAN if it changes.
  74:main.c        **** *  5: Sets a PWM pulse width and sends it over UART.
  75:main.c        **** *
  76:main.c        **** * Parameters:
  77:main.c        **** *  None.
  78:main.c        **** *
  79:main.c        **** * Return:
  80:main.c        **** *  None.
  81:main.c        **** *
  82:main.c        **** *******************************************************************************/
  83:main.c        **** int main()
  84:main.c        **** {
  85:main.c        ****     int16 output;
  86:main.c        ****     uint16 resMilliVolts;
  87:main.c        ****     char8 txData[TX_DATA_SIZE];
ARM GAS  C:\Users\austc\AppData\Local\Temp\ccJOGwuu.s 			page 3


  88:main.c        **** 
  89:main.c        ****     UART_Start();
  90:main.c        ****     ADC_Start();
  91:main.c        ****     PWM_Start();
  92:main.c        **** 
  93:main.c        ****     /* Start ADC conversion */
  94:main.c        ****     ADC_StartConvert();
  95:main.c        ****     CAN_Init();
  96:main.c        ****     CAN_Start();
  97:main.c        **** 
  98:main.c        ****     /* Set CAN interrupt handler to local routine */
  99:main.c        ****     CyIntSetVector(CAN_ISR_NUMBER, ISR_CAN);
 100:main.c        **** 
 101:main.c        ****     CyGlobalIntEnable;
 102:main.c        **** 
 103:main.c        ****     for(;;)
 104:main.c        ****     {
 105:main.c        ****         if (ADC_IsEndConversion(ADC_RETURN_STATUS))
 106:main.c        ****         {
 107:main.c        ****             /* Gets ADC conversion result */
 108:main.c        ****             output = ADC_GetResult16(ADC_CHANNEL_NUMBER_0);
 109:main.c        **** 
 110:main.c        ****             /* Saturates ADC result to positive numbers */
 111:main.c        ****             if (output < 0)
 112:main.c        ****             {
 113:main.c        ****                 output = 0;
 114:main.c        ****             }
 115:main.c        ****             
 116:main.c        ****             /* Converts ADC result to milli volts */
 117:main.c        ****             resMilliVolts = (uint16) ADC_CountsTo_mVolts(ADC_CHANNEL_NUMBER_0, output);
 118:main.c        ****             
 119:main.c        ****             /* Sends value of ADC output via CAN */
 120:main.c        ****             CAN_TX_DATA_BYTE1(CAN_TX_MAILBOX_ADCdata, HI8(resMilliVolts));
 121:main.c        ****             CAN_TX_DATA_BYTE2(CAN_TX_MAILBOX_ADCdata, LO8(resMilliVolts));
 122:main.c        ****             CAN_TX_DATA_BYTE3(CAN_TX_MAILBOX_ADCdata, 0u);
 123:main.c        ****             CAN_TX_DATA_BYTE4(CAN_TX_MAILBOX_ADCdata, 0u);
 124:main.c        ****             CAN_TX_DATA_BYTE5(CAN_TX_MAILBOX_ADCdata, 0u);
 125:main.c        ****             CAN_TX_DATA_BYTE6(CAN_TX_MAILBOX_ADCdata, 0u);
 126:main.c        ****             CAN_TX_DATA_BYTE7(CAN_TX_MAILBOX_ADCdata, 0u);
 127:main.c        ****             CAN_TX_DATA_BYTE8(CAN_TX_MAILBOX_ADCdata, 0u);
 128:main.c        ****             CAN_SendMsgADCdata();
 129:main.c        **** 
 130:main.c        ****             /* Display value of ADC output on LCD */
 131:main.c        ****             sprintf(txData, "ADC out: %u.%.3u \r\n", (resMilliVolts / 1000u), (resMilliVolts % 1000
 132:main.c        ****             UART_UartPutString(txData);
 133:main.c        ****         }
 134:main.c        **** 
 135:main.c        ****         /* Change configuration at switch press or release event */
 136:main.c        ****         if (switchState != ReadSwSwitch())    /* Switch state changed status */
 137:main.c        ****         {
 138:main.c        ****             /* Store the current switch state */
 139:main.c        ****             switchState = ReadSwSwitch();
 140:main.c        **** 
 141:main.c        ****             /* Fill CAN data depending on switch state */
 142:main.c        ****             if (Switch1_Read() == 0u)
 143:main.c        ****             {
 144:main.c        ****                 CAN_TX_DATA_BYTE1(CAN_TX_MAILBOX_switchStatus, SWITCH_PRESSED);
ARM GAS  C:\Users\austc\AppData\Local\Temp\ccJOGwuu.s 			page 4


 145:main.c        ****                 UART_UartPutString("switch1 pressed.\r\n");
 146:main.c        ****             }
 147:main.c        ****             else
 148:main.c        ****             {
 149:main.c        ****                 CAN_TX_DATA_BYTE1(CAN_TX_MAILBOX_switchStatus, SWITCH_RELEASED);
 150:main.c        ****                 UART_UartPutString("switch1 released.\r\n");
 151:main.c        ****             }
 152:main.c        ****             CAN_TX_DATA_BYTE2(CAN_TX_MAILBOX_switchStatus, 0u);
 153:main.c        ****             CAN_TX_DATA_BYTE3(CAN_TX_MAILBOX_switchStatus, 0u);
 154:main.c        ****             CAN_TX_DATA_BYTE4(CAN_TX_MAILBOX_switchStatus, 0u);
 155:main.c        ****             CAN_TX_DATA_BYTE5(CAN_TX_MAILBOX_switchStatus, 0u);
 156:main.c        ****             CAN_TX_DATA_BYTE6(CAN_TX_MAILBOX_switchStatus, 0u);
 157:main.c        ****             CAN_TX_DATA_BYTE7(CAN_TX_MAILBOX_switchStatus, 0u);
 158:main.c        ****             CAN_TX_DATA_BYTE8(CAN_TX_MAILBOX_switchStatus, 0u);
 159:main.c        **** 
 160:main.c        ****             /* Send CAN message with switch state */
 161:main.c        ****             CAN_SendMsgswitchStatus();
 162:main.c        ****         }
 163:main.c        **** 
 164:main.c        ****         if (isrFlag != 0u)
 165:main.c        ****         {
 166:main.c        ****             /* Set PWM pulse width */
 167:main.c        ****             PWM_WriteCompare(CAN_RX_DATA_BYTE1(CAN_RX_MAILBOX_0));
 168:main.c        **** 
 169:main.c        ****             /* Puts out over UART value of PWM pulse width */
 170:main.c        ****             sprintf(txData, "PWM pulse width: %X \r\n", CAN_RX_DATA_BYTE1(CAN_RX_MAILBOX_0));
 171:main.c        ****             UART_UartPutString(txData);
 172:main.c        ****             
 173:main.c        ****             /* Clear the isrFlag */
 174:main.c        ****             isrFlag = 0u;
 175:main.c        ****         }
 176:main.c        **** 
 177:main.c        ****         CyDelay(100u);
 178:main.c        ****     }
 179:main.c        **** }
 180:main.c        **** 
 181:main.c        **** 
 182:main.c        **** /*******************************************************************************
 183:main.c        **** * Function Name: ISR_CAN
 184:main.c        **** ********************************************************************************
 185:main.c        **** *
 186:main.c        **** * Summary:
 187:main.c        **** *  This ISR is executed at a Receive Message event and set the isrFlag.
 188:main.c        **** *
 189:main.c        **** * Parameters:
 190:main.c        **** *  None.
 191:main.c        **** *
 192:main.c        **** * Return:
 193:main.c        **** *  None.
 194:main.c        **** *
 195:main.c        **** *******************************************************************************/
 196:main.c        **** CY_ISR(ISR_CAN)
 197:main.c        **** {
  28              		.loc 1 197 0
  29              		.cfi_startproc
  30              		@ args = 0, pretend = 0, frame = 0
  31              		@ frame_needed = 0, uses_anonymous_args = 0
ARM GAS  C:\Users\austc\AppData\Local\Temp\ccJOGwuu.s 			page 5


  32              		@ link register save eliminated.
 198:main.c        ****     /* Clear Receive Message flag */
 199:main.c        ****     CAN_INT_SR_REG = CAN_RX_MESSAGE_MASK;
  33              		.loc 1 199 0
  34 0000 8022     		movs	r2, #128
  35 0002 5201     		lsls	r2, r2, #5
  36 0004 044B     		ldr	r3, .L2
  37 0006 1A60     		str	r2, [r3]
 200:main.c        **** 
 201:main.c        ****     /* Set the isrFlag */
 202:main.c        ****     isrFlag = 1u;
  38              		.loc 1 202 0
  39 0008 0123     		movs	r3, #1
  40 000a 044A     		ldr	r2, .L2+4
  41 000c 1370     		strb	r3, [r2]
 203:main.c        **** 
 204:main.c        ****     /* Acknowledges receipt of new message */
 205:main.c        ****     CAN_RX_ACK_MESSAGE(CAN_RX_MAILBOX_0);
  42              		.loc 1 205 0
  43 000e 044A     		ldr	r2, .L2+8
  44 0010 1168     		ldr	r1, [r2]
  45 0012 0B43     		orrs	r3, r1
  46 0014 1360     		str	r3, [r2]
 206:main.c        **** }
  47              		.loc 1 206 0
  48              		@ sp needed
  49 0016 7047     		bx	lr
  50              	.L3:
  51              		.align	2
  52              	.L2:
  53 0018 00002F40 		.word	1076822016
  54 001c 00000000 		.word	.LANCHOR0
  55 0020 A0002F40 		.word	1076822176
  56              		.cfi_endproc
  57              	.LFE36:
  58              		.size	ISR_CAN, .-ISR_CAN
  59              		.section	.text.ReadSwSwitch,"ax",%progbits
  60              		.align	2
  61              		.code	16
  62              		.thumb_func
  63              		.type	ReadSwSwitch, %function
  64              	ReadSwSwitch:
  65              	.LFB37:
 207:main.c        **** 
 208:main.c        **** 
 209:main.c        **** /*******************************************************************************
 210:main.c        **** * Function Name: ReadSwSwitch
 211:main.c        **** ********************************************************************************
 212:main.c        **** * Summary:
 213:main.c        **** *  Reads and returns the current status of the switch.
 214:main.c        **** *
 215:main.c        **** * Parameters:
 216:main.c        **** *  None
 217:main.c        **** *
 218:main.c        **** * Return:
 219:main.c        **** *  Returns a non-zero value, if switch is pressed, and a zero value otherwise.
 220:main.c        **** *
ARM GAS  C:\Users\austc\AppData\Local\Temp\ccJOGwuu.s 			page 6


 221:main.c        **** *******************************************************************************/
 222:main.c        **** static uint32 ReadSwSwitch(void)
 223:main.c        **** {
  66              		.loc 1 223 0
  67              		.cfi_startproc
  68              		@ args = 0, pretend = 0, frame = 0
  69              		@ frame_needed = 0, uses_anonymous_args = 0
  70 0000 10B5     		push	{r4, lr}
  71              		.cfi_def_cfa_offset 8
  72              		.cfi_offset 4, -8
  73              		.cfi_offset 14, -4
  74              	.LVL0:
 224:main.c        ****     uint32 heldDown;
 225:main.c        ****     uint32 swStatus;
 226:main.c        **** 
 227:main.c        ****     swStatus = 0u;  /* Switch is not active */
 228:main.c        ****     heldDown = 0u;  /* Reset debounce counter */
  75              		.loc 1 228 0
  76 0002 0024     		movs	r4, #0
 229:main.c        **** 
 230:main.c        ****     /* Wait for debounce period before determining whether the switch is pressed */
 231:main.c        ****     while (Switch1_Read() == SWITCH_PRESSED)
  77              		.loc 1 231 0
  78 0004 05E0     		b	.L5
  79              	.LVL1:
  80              	.L7:
 232:main.c        ****     {
 233:main.c        ****         /* Count debounce period */
 234:main.c        ****         CyDelay(SWITCH_DEBOUNCE_UNIT);
  81              		.loc 1 234 0
  82 0006 0120     		movs	r0, #1
  83 0008 FFF7FEFF 		bl	CyDelay
  84              	.LVL2:
 235:main.c        ****         ++heldDown;
  85              		.loc 1 235 0
  86 000c 0134     		adds	r4, r4, #1
  87              	.LVL3:
 236:main.c        **** 
 237:main.c        ****         if (heldDown > SWITCH_DEBOUNCE_PERIOD)
  88              		.loc 1 237 0
  89 000e 0A2C     		cmp	r4, #10
  90 0010 05D8     		bhi	.L8
  91              	.LVL4:
  92              	.L5:
 231:main.c        ****     {
  93              		.loc 1 231 0
  94 0012 FFF7FEFF 		bl	Switch1_Read
  95              	.LVL5:
  96 0016 0128     		cmp	r0, #1
  97 0018 F5D0     		beq	.L7
 227:main.c        ****     heldDown = 0u;  /* Reset debounce counter */
  98              		.loc 1 227 0
  99 001a 0020     		movs	r0, #0
 100 001c 00E0     		b	.L6
 101              	.L8:
 238:main.c        ****         {
 239:main.c        ****             swStatus = 1u; /* Switch is pressed */
ARM GAS  C:\Users\austc\AppData\Local\Temp\ccJOGwuu.s 			page 7


 102              		.loc 1 239 0
 103 001e 0120     		movs	r0, #1
 104              	.L6:
 105              	.LVL6:
 240:main.c        ****             break;
 241:main.c        ****         }
 242:main.c        ****     }
 243:main.c        **** 
 244:main.c        ****     return (swStatus);
 245:main.c        **** }
 106              		.loc 1 245 0
 107              		@ sp needed
 108              	.LVL7:
 109 0020 10BD     		pop	{r4, pc}
 110              		.cfi_endproc
 111              	.LFE37:
 112              		.size	ReadSwSwitch, .-ReadSwSwitch
 113              		.global	__aeabi_uidivmod
 114              		.global	__aeabi_uidiv
 115 0022 C046     		.section	.text.main,"ax",%progbits
 116              		.align	2
 117              		.global	main
 118              		.code	16
 119              		.thumb_func
 120              		.type	main, %function
 121              	main:
 122              	.LFB35:
  84:main.c        ****     int16 output;
 123              		.loc 1 84 0
 124              		.cfi_startproc
 125              		@ args = 0, pretend = 0, frame = 32
 126              		@ frame_needed = 0, uses_anonymous_args = 0
 127 0000 30B5     		push	{r4, r5, lr}
 128              		.cfi_def_cfa_offset 12
 129              		.cfi_offset 4, -12
 130              		.cfi_offset 5, -8
 131              		.cfi_offset 14, -4
 132 0002 89B0     		sub	sp, sp, #36
 133              		.cfi_def_cfa_offset 48
  89:main.c        ****     ADC_Start();
 134              		.loc 1 89 0
 135 0004 FFF7FEFF 		bl	UART_Start
 136              	.LVL8:
  90:main.c        ****     PWM_Start();
 137              		.loc 1 90 0
 138 0008 FFF7FEFF 		bl	ADC_Start
 139              	.LVL9:
  91:main.c        **** 
 140              		.loc 1 91 0
 141 000c FFF7FEFF 		bl	PWM_Start
 142              	.LVL10:
  94:main.c        ****     CAN_Init();
 143              		.loc 1 94 0
 144 0010 FFF7FEFF 		bl	ADC_StartConvert
 145              	.LVL11:
  95:main.c        ****     CAN_Start();
 146              		.loc 1 95 0
ARM GAS  C:\Users\austc\AppData\Local\Temp\ccJOGwuu.s 			page 8


 147 0014 FFF7FEFF 		bl	CAN_Init
 148              	.LVL12:
  96:main.c        **** 
 149              		.loc 1 96 0
 150 0018 FFF7FEFF 		bl	CAN_Start
 151              	.LVL13:
  99:main.c        **** 
 152              		.loc 1 99 0
 153 001c 5349     		ldr	r1, .L18
 154 001e 1D20     		movs	r0, #29
 155 0020 FFF7FEFF 		bl	CyIntSetVector
 156              	.LVL14:
 101:main.c        **** 
 157              		.loc 1 101 0
 158              		.syntax divided
 159              	@ 101 "main.c" 1
 160 0024 62B6     		CPSIE   i
 161              	@ 0 "" 2
 162              		.thumb
 163              		.syntax unified
 164              	.L16:
 105:main.c        ****         {
 165              		.loc 1 105 0
 166 0026 0120     		movs	r0, #1
 167 0028 FFF7FEFF 		bl	ADC_IsEndConversion
 168              	.LVL15:
 169 002c 0028     		cmp	r0, #0
 170 002e 44D0     		beq	.L10
 108:main.c        **** 
 171              		.loc 1 108 0
 172 0030 0020     		movs	r0, #0
 173 0032 FFF7FEFF 		bl	ADC_GetResult16
 174              	.LVL16:
 175 0036 011E     		subs	r1, r0, #0
 176              	.LVL17:
 111:main.c        ****             {
 177              		.loc 1 111 0
 178 0038 00DA     		bge	.L11
 113:main.c        ****             }
 179              		.loc 1 113 0
 180 003a 0021     		movs	r1, #0
 181              	.L11:
 182              	.LVL18:
 117:main.c        ****             
 183              		.loc 1 117 0
 184 003c 0020     		movs	r0, #0
 185 003e FFF7FEFF 		bl	ADC_CountsTo_mVolts
 186              	.LVL19:
 187 0042 84B2     		uxth	r4, r0
 188              	.LVL20:
 120:main.c        ****             CAN_TX_DATA_BYTE2(CAN_TX_MAILBOX_ADCdata, LO8(resMilliVolts));
 189              		.loc 1 120 0
 190 0044 4A4B     		ldr	r3, .L18+4
 191 0046 1A68     		ldr	r2, [r3]
 192 0048 1202     		lsls	r2, r2, #8
 193 004a 120A     		lsrs	r2, r2, #8
 194 004c 210A     		lsrs	r1, r4, #8
ARM GAS  C:\Users\austc\AppData\Local\Temp\ccJOGwuu.s 			page 9


 195 004e 0906     		lsls	r1, r1, #24
 196 0050 0A43     		orrs	r2, r1
 197 0052 1A60     		str	r2, [r3]
 121:main.c        ****             CAN_TX_DATA_BYTE3(CAN_TX_MAILBOX_ADCdata, 0u);
 198              		.loc 1 121 0
 199 0054 1A68     		ldr	r2, [r3]
 200 0056 474D     		ldr	r5, .L18+8
 201 0058 2A40     		ands	r2, r5
 202 005a C0B2     		uxtb	r0, r0
 203 005c 0004     		lsls	r0, r0, #16
 204 005e 1043     		orrs	r0, r2
 205 0060 1860     		str	r0, [r3]
 122:main.c        ****             CAN_TX_DATA_BYTE4(CAN_TX_MAILBOX_ADCdata, 0u);
 206              		.loc 1 122 0
 207 0062 1A68     		ldr	r2, [r3]
 208 0064 4449     		ldr	r1, .L18+12
 209 0066 0A40     		ands	r2, r1
 210 0068 1A60     		str	r2, [r3]
 123:main.c        ****             CAN_TX_DATA_BYTE5(CAN_TX_MAILBOX_ADCdata, 0u);
 211              		.loc 1 123 0
 212 006a 1A68     		ldr	r2, [r3]
 213 006c FF20     		movs	r0, #255
 214 006e 8243     		bics	r2, r0
 215 0070 1A60     		str	r2, [r3]
 124:main.c        ****             CAN_TX_DATA_BYTE6(CAN_TX_MAILBOX_ADCdata, 0u);
 216              		.loc 1 124 0
 217 0072 424B     		ldr	r3, .L18+16
 218 0074 1A68     		ldr	r2, [r3]
 219 0076 1202     		lsls	r2, r2, #8
 220 0078 120A     		lsrs	r2, r2, #8
 221 007a 1A60     		str	r2, [r3]
 125:main.c        ****             CAN_TX_DATA_BYTE7(CAN_TX_MAILBOX_ADCdata, 0u);
 222              		.loc 1 125 0
 223 007c 1A68     		ldr	r2, [r3]
 224 007e 1540     		ands	r5, r2
 225 0080 1D60     		str	r5, [r3]
 126:main.c        ****             CAN_TX_DATA_BYTE8(CAN_TX_MAILBOX_ADCdata, 0u);
 226              		.loc 1 126 0
 227 0082 1A68     		ldr	r2, [r3]
 228 0084 1140     		ands	r1, r2
 229 0086 1960     		str	r1, [r3]
 127:main.c        ****             CAN_SendMsgADCdata();
 230              		.loc 1 127 0
 231 0088 1A68     		ldr	r2, [r3]
 232 008a 8243     		bics	r2, r0
 233 008c 1A60     		str	r2, [r3]
 128:main.c        **** 
 234              		.loc 1 128 0
 235 008e FFF7FEFF 		bl	CAN_SendMsgADCdata
 236              	.LVL21:
 131:main.c        ****             UART_UartPutString(txData);
 237              		.loc 1 131 0
 238 0092 FA21     		movs	r1, #250
 239 0094 8900     		lsls	r1, r1, #2
 240 0096 2000     		movs	r0, r4
 241 0098 FFF7FEFF 		bl	__aeabi_uidivmod
 242              	.LVL22:
ARM GAS  C:\Users\austc\AppData\Local\Temp\ccJOGwuu.s 			page 10


 243 009c 8DB2     		uxth	r5, r1
 244 009e FA21     		movs	r1, #250
 245 00a0 8900     		lsls	r1, r1, #2
 246 00a2 2000     		movs	r0, r4
 247 00a4 FFF7FEFF 		bl	__aeabi_uidiv
 248              	.LVL23:
 249 00a8 82B2     		uxth	r2, r0
 250 00aa 2B00     		movs	r3, r5
 251 00ac 3449     		ldr	r1, .L18+20
 252 00ae 01A8     		add	r0, sp, #4
 253 00b0 FFF7FEFF 		bl	sprintf
 254              	.LVL24:
 132:main.c        ****         }
 255              		.loc 1 132 0
 256 00b4 01A8     		add	r0, sp, #4
 257 00b6 FFF7FEFF 		bl	UART_UartPutString
 258              	.LVL25:
 259              	.L10:
 136:main.c        ****         {
 260              		.loc 1 136 0
 261 00ba 324B     		ldr	r3, .L18+24
 262 00bc 5C78     		ldrb	r4, [r3, #1]
 263 00be FFF7FEFF 		bl	ReadSwSwitch
 264              	.LVL26:
 265 00c2 8442     		cmp	r4, r0
 266 00c4 38D0     		beq	.L12
 139:main.c        **** 
 267              		.loc 1 139 0
 268 00c6 FFF7FEFF 		bl	ReadSwSwitch
 269              	.LVL27:
 270 00ca 2E4B     		ldr	r3, .L18+24
 271 00cc 5870     		strb	r0, [r3, #1]
 142:main.c        ****             {
 272              		.loc 1 142 0
 273 00ce FFF7FEFF 		bl	Switch1_Read
 274              	.LVL28:
 275 00d2 0028     		cmp	r0, #0
 276 00d4 0BD1     		bne	.L13
 144:main.c        ****                 UART_UartPutString("switch1 pressed.\r\n");
 277              		.loc 1 144 0
 278 00d6 2C4A     		ldr	r2, .L18+28
 279 00d8 1368     		ldr	r3, [r2]
 280 00da 1B02     		lsls	r3, r3, #8
 281 00dc 1B0A     		lsrs	r3, r3, #8
 282 00de 8021     		movs	r1, #128
 283 00e0 4904     		lsls	r1, r1, #17
 284 00e2 0B43     		orrs	r3, r1
 285 00e4 1360     		str	r3, [r2]
 145:main.c        ****             }
 286              		.loc 1 145 0
 287 00e6 2948     		ldr	r0, .L18+32
 288 00e8 FFF7FEFF 		bl	UART_UartPutString
 289              	.LVL29:
 290 00ec 07E0     		b	.L14
 291              	.L13:
 149:main.c        ****                 UART_UartPutString("switch1 released.\r\n");
 292              		.loc 1 149 0
ARM GAS  C:\Users\austc\AppData\Local\Temp\ccJOGwuu.s 			page 11


 293 00ee 264A     		ldr	r2, .L18+28
 294 00f0 1368     		ldr	r3, [r2]
 295 00f2 1B02     		lsls	r3, r3, #8
 296 00f4 1B0A     		lsrs	r3, r3, #8
 297 00f6 1360     		str	r3, [r2]
 150:main.c        ****             }
 298              		.loc 1 150 0
 299 00f8 2548     		ldr	r0, .L18+36
 300 00fa FFF7FEFF 		bl	UART_UartPutString
 301              	.LVL30:
 302              	.L14:
 152:main.c        ****             CAN_TX_DATA_BYTE3(CAN_TX_MAILBOX_switchStatus, 0u);
 303              		.loc 1 152 0
 304 00fe 224B     		ldr	r3, .L18+28
 305 0100 1A68     		ldr	r2, [r3]
 306 0102 1C48     		ldr	r0, .L18+8
 307 0104 0240     		ands	r2, r0
 308 0106 1A60     		str	r2, [r3]
 153:main.c        ****             CAN_TX_DATA_BYTE4(CAN_TX_MAILBOX_switchStatus, 0u);
 309              		.loc 1 153 0
 310 0108 1A68     		ldr	r2, [r3]
 311 010a 1B49     		ldr	r1, .L18+12
 312 010c 0A40     		ands	r2, r1
 313 010e 1A60     		str	r2, [r3]
 154:main.c        ****             CAN_TX_DATA_BYTE5(CAN_TX_MAILBOX_switchStatus, 0u);
 314              		.loc 1 154 0
 315 0110 1A68     		ldr	r2, [r3]
 316 0112 FF24     		movs	r4, #255
 317 0114 A243     		bics	r2, r4
 318 0116 1A60     		str	r2, [r3]
 155:main.c        ****             CAN_TX_DATA_BYTE6(CAN_TX_MAILBOX_switchStatus, 0u);
 319              		.loc 1 155 0
 320 0118 1E4B     		ldr	r3, .L18+40
 321 011a 1A68     		ldr	r2, [r3]
 322 011c 1202     		lsls	r2, r2, #8
 323 011e 120A     		lsrs	r2, r2, #8
 324 0120 1A60     		str	r2, [r3]
 156:main.c        ****             CAN_TX_DATA_BYTE7(CAN_TX_MAILBOX_switchStatus, 0u);
 325              		.loc 1 156 0
 326 0122 1A68     		ldr	r2, [r3]
 327 0124 1040     		ands	r0, r2
 328 0126 1860     		str	r0, [r3]
 157:main.c        ****             CAN_TX_DATA_BYTE8(CAN_TX_MAILBOX_switchStatus, 0u);
 329              		.loc 1 157 0
 330 0128 1A68     		ldr	r2, [r3]
 331 012a 1140     		ands	r1, r2
 332 012c 1960     		str	r1, [r3]
 158:main.c        **** 
 333              		.loc 1 158 0
 334 012e 1A68     		ldr	r2, [r3]
 335 0130 A243     		bics	r2, r4
 336 0132 1A60     		str	r2, [r3]
 161:main.c        ****         }
 337              		.loc 1 161 0
 338 0134 FFF7FEFF 		bl	CAN_SendMsgswitchStatus
 339              	.LVL31:
 340              	.L12:
ARM GAS  C:\Users\austc\AppData\Local\Temp\ccJOGwuu.s 			page 12


 164:main.c        ****         {
 341              		.loc 1 164 0
 342 0138 124B     		ldr	r3, .L18+24
 343 013a 1B78     		ldrb	r3, [r3]
 344 013c 002B     		cmp	r3, #0
 345 013e 10D0     		beq	.L15
 167:main.c        **** 
 346              		.loc 1 167 0
 347 0140 154C     		ldr	r4, .L18+44
 348 0142 2068     		ldr	r0, [r4]
 349 0144 000E     		lsrs	r0, r0, #24
 350 0146 FFF7FEFF 		bl	PWM_WriteCompare
 351              	.LVL32:
 170:main.c        ****             UART_UartPutString(txData);
 352              		.loc 1 170 0
 353 014a 2268     		ldr	r2, [r4]
 354 014c 120E     		lsrs	r2, r2, #24
 355 014e 1349     		ldr	r1, .L18+48
 356 0150 01A8     		add	r0, sp, #4
 357 0152 FFF7FEFF 		bl	sprintf
 358              	.LVL33:
 171:main.c        ****             
 359              		.loc 1 171 0
 360 0156 01A8     		add	r0, sp, #4
 361 0158 FFF7FEFF 		bl	UART_UartPutString
 362              	.LVL34:
 174:main.c        ****         }
 363              		.loc 1 174 0
 364 015c 0022     		movs	r2, #0
 365 015e 094B     		ldr	r3, .L18+24
 366 0160 1A70     		strb	r2, [r3]
 367              	.L15:
 177:main.c        ****     }
 368              		.loc 1 177 0
 369 0162 6420     		movs	r0, #100
 370 0164 FFF7FEFF 		bl	CyDelay
 371              	.LVL35:
 178:main.c        **** }
 372              		.loc 1 178 0
 373 0168 5DE7     		b	.L16
 374              	.L19:
 375 016a C046     		.align	2
 376              	.L18:
 377 016c 00000000 		.word	ISR_CAN
 378 0170 38002F40 		.word	1076822072
 379 0174 FFFF00FF 		.word	-16711681
 380 0178 FF00FFFF 		.word	-65281
 381 017c 3C002F40 		.word	1076822076
 382 0180 00000000 		.word	.LC2
 383 0184 00000000 		.word	.LANCHOR0
 384 0188 28002F40 		.word	1076822056
 385 018c 14000000 		.word	.LC5
 386 0190 28000000 		.word	.LC7
 387 0194 2C002F40 		.word	1076822060
 388 0198 A8002F40 		.word	1076822184
 389 019c 3C000000 		.word	.LC9
 390              		.cfi_endproc
ARM GAS  C:\Users\austc\AppData\Local\Temp\ccJOGwuu.s 			page 13


 391              	.LFE35:
 392              		.size	main, .-main
 393              		.global	isrFlag
 394              		.global	switchState
 395              		.section	.rodata.str1.4,"aMS",%progbits,1
 396              		.align	2
 397              	.LC2:
 398 0000 41444320 		.ascii	"ADC out: %u.%.3u \015\012\000"
 398      6F75743A 
 398      2025752E 
 398      252E3375 
 398      200D0A00 
 399              	.LC5:
 400 0014 73776974 		.ascii	"switch1 pressed.\015\012\000"
 400      63683120 
 400      70726573 
 400      7365642E 
 400      0D0A00
 401 0027 00       		.space	1
 402              	.LC7:
 403 0028 73776974 		.ascii	"switch1 released.\015\012\000"
 403      63683120 
 403      72656C65 
 403      61736564 
 403      2E0D0A00 
 404              	.LC9:
 405 003c 50574D20 		.ascii	"PWM pulse width: %X \015\012\000"
 405      70756C73 
 405      65207769 
 405      6474683A 
 405      20255820 
 406              		.bss
 407              		.set	.LANCHOR0,. + 0
 408              		.type	isrFlag, %object
 409              		.size	isrFlag, 1
 410              	isrFlag:
 411 0000 00       		.space	1
 412              		.type	switchState, %object
 413              		.size	switchState, 1
 414              	switchState:
 415 0001 00       		.space	1
 416              		.text
 417              	.Letext0:
 418              		.file 2 "Generated_Source\\PSoC4/cytypes.h"
 419              		.file 3 "Generated_Source\\PSoC4/CAN.h"
 420              		.file 4 "Generated_Source\\PSoC4/CyLib.h"
 421              		.file 5 "Generated_Source\\PSoC4/Switch1.h"
 422              		.file 6 "Generated_Source\\PSoC4/UART.h"
 423              		.file 7 "Generated_Source\\PSoC4/ADC.h"
 424              		.file 8 "Generated_Source\\PSoC4/PWM.h"
 425              		.file 9 "c:\\program files (x86)\\cypress\\psoc creator\\4.2\\psoc creator\\import\\gnu\\arm\\5.4.
 426              		.file 10 "Generated_Source\\PSoC4/UART_SPI_UART.h"