ARM GAS  C:\Users\austc\AppData\Local\Temp\ccvQQc8k.s 			page 1


   1              		.syntax unified
   2              		.cpu cortex-m0
   3              		.fpu softvfp
   4              		.eabi_attribute 20, 1
   5              		.eabi_attribute 21, 1
   6              		.eabi_attribute 23, 3
   7              		.eabi_attribute 24, 1
   8              		.eabi_attribute 25, 1
   9              		.eabi_attribute 26, 1
  10              		.eabi_attribute 30, 1
  11              		.eabi_attribute 34, 0
  12              		.eabi_attribute 18, 4
  13              		.thumb
  14              		.syntax unified
  15              		.file	"main.c"
  16              		.text
  17              	.Ltext0:
  18              		.cfi_sections	.debug_frame
  19              		.section	.text.WriteCommandPacket,"ax",%progbits
  20              		.align	2
  21              		.global	WriteCommandPacket
  22              		.code	16
  23              		.thumb_func
  24              		.type	WriteCommandPacket, %function
  25              	WriteCommandPacket:
  26              	.LFB35:
  27              		.file 1 "main.c"
   1:main.c        **** /******************************************************************************
   2:main.c        **** * File Name: main.c
   3:main.c        **** *
   4:main.c        **** * Version: 2.0
   5:main.c        **** *
   6:main.c        **** * Description: This example project demonstrates the basic operation of the I2C master (SCB 
   7:main.c        **** * mode) component using high-level functions. The I2C master sends the command packets
   8:main.c        **** * to the I2C slave to control the RGB LED color. The packet with a status is read back.
   9:main.c        **** *
  10:main.c        **** * Related Document: CE222306.pdf
  11:main.c        **** *
  12:main.c        **** * Hardware Dependency: CY8CKIT-042 PSoC 4 Pioneer Kit 
  13:main.c        **** *
  14:main.c        **** ******************************************************************************
  15:main.c        **** * Copyright (2018), Cypress Semiconductor Corporation.
  16:main.c        **** ******************************************************************************
  17:main.c        **** * This software, including source code, documentation and related materials
  18:main.c        **** * ("Software") is owned by Cypress Semiconductor Corporation (Cypress) and is
  19:main.c        **** * protected by and subject to worldwide patent protection (United States and 
  20:main.c        **** * foreign), United States copyright laws and international treaty provisions. 
  21:main.c        **** * Cypress hereby grants to licensee a personal, non-exclusive, non-transferable
  22:main.c        **** * license to copy, use, modify, create derivative works of, and compile the 
  23:main.c        **** * Cypress source code and derivative works for the sole purpose of creating 
  24:main.c        **** * custom software in support of licensee product, such licensee product to be
  25:main.c        **** * used only in conjunction with Cypress's integrated circuit as specified in the
  26:main.c        **** * applicable agreement. Any reproduction, modification, translation, compilation,
  27:main.c        **** * or representation of this Software except as specified above is prohibited 
  28:main.c        **** * without the express written permission of Cypress.
  29:main.c        **** * 
  30:main.c        **** * Disclaimer: THIS SOFTWARE IS PROVIDED AS-IS, WITH NO WARRANTY OF ANY KIND, 
ARM GAS  C:\Users\austc\AppData\Local\Temp\ccvQQc8k.s 			page 2


  31:main.c        **** * EXPRESS OR IMPLIED, INCLUDING, BUT NOT LIMITED TO, NONINFRINGEMENT, IMPLIED 
  32:main.c        **** * WARRANTIES OF MERCHANTABILITY AND FITNESS FOR A PARTICULAR PURPOSE.
  33:main.c        **** * Cypress reserves the right to make changes to the Software without notice. 
  34:main.c        **** * Cypress does not assume any liability arising out of the application or use
  35:main.c        **** * of Software or any product or circuit described in the Software. Cypress does
  36:main.c        **** * not authorize its products for use as critical components in any products 
  37:main.c        **** * where a malfunction or failure may reasonably be expected to result in 
  38:main.c        **** * significant injury or death ("ACTIVE Risk Product"). By including Cypress's 
  39:main.c        **** * product in a ACTIVE Risk Product, the manufacturer of such system or application
  40:main.c        **** * assumes all risk of such use and in doing so indemnifies Cypress against all
  41:main.c        **** * liability. Use of this Software may be limited by and subject to the applicable
  42:main.c        **** * Cypress software license agreement.
  43:main.c        **** *****************************************************************************/
  44:main.c        **** 
  45:main.c        **** #include <project.h>
  46:main.c        **** 
  47:main.c        **** /***************************************
  48:main.c        **** *              Constants
  49:main.c        **** ****************************************/
  50:main.c        ****     
  51:main.c        **** #define I2C_SLAVE_ADDR      (0x9u)
  52:main.c        **** 
  53:main.c        **** /* Buffer and packet size */
  54:main.c        **** #define BUFFER_SIZE         (5u)
  55:main.c        **** #define PACKET_SIZE         (BUFFER_SIZE)
  56:main.c        **** #define RD_BUFFER_SIZE      (3u)
  57:main.c        **** 
  58:main.c        **** /* Packet positions */
  59:main.c        **** #define PACKET_SOP_POS      (0u)
  60:main.c        **** #define PACKET_RED_POS      (1u)
  61:main.c        **** #define PACKET_GREEN_POS    (2u)
  62:main.c        **** #define PACKET_BLUE_POS     (3u)
  63:main.c        **** #define PACKET_EOP_POS      (4u)
  64:main.c        **** #define RD_PACKET_SOP_POS   (0u)
  65:main.c        **** #define RD_PACKET_STS_POS   (1u)
  66:main.c        **** #define RD_PACKET_EOP_POS   (2u)
  67:main.c        **** 
  68:main.c        **** /* Start and end of packet markers */
  69:main.c        **** #define PACKET_SOP          (0x01u)
  70:main.c        **** #define PACKET_EOP          (0x17u)
  71:main.c        **** 
  72:main.c        **** /* Command statuses */
  73:main.c        **** #define STS_CMD_DONE        (0x00u)
  74:main.c        **** #define STS_CMD_FAIL        (0xFFu)
  75:main.c        **** 
  76:main.c        **** /* Transfer statuses */
  77:main.c        **** #define TRANSFER_CMPLT      (0x00u)
  78:main.c        **** #define TRANSFER_ERROR      (0xFFu)
  79:main.c        **** 
  80:main.c        **** /* List of supported commands */
  81:main.c        **** #define COLOR_RED       (0u)
  82:main.c        **** #define COLOR_GREEN     (1u)
  83:main.c        **** #define COLOR_BLUE      (2u)
  84:main.c        **** #define COLOR_CYAN      (3u)
  85:main.c        **** #define COLOR_PURPLE    (4u)
  86:main.c        **** #define COLOR_YELLOW    (5u)
  87:main.c        **** #define COLOR_WHITE     (6u)
ARM GAS  C:\Users\austc\AppData\Local\Temp\ccvQQc8k.s 			page 3


  88:main.c        **** 
  89:main.c        **** /* Time between LED color changes (ms) */
  90:main.c        **** #define CMD_TO_CMD_DELAY    (500u)
  91:main.c        **** 
  92:main.c        **** /* Create the buffers for writing and reading */
  93:main.c        **** uint8_t buffer[BUFFER_SIZE];
  94:main.c        **** uint8_t rd_Buffer[RD_BUFFER_SIZE];
  95:main.c        **** 
  96:main.c        **** /********************************************************************************
  97:main.c        **** * Function Name: CreateCommandPacketBuffer
  98:main.c        **** *********************************************************************************
  99:main.c        **** * This function initializes the buffer with data related to color.
 100:main.c        **** *  
 101:main.c        **** * Parameters: cmd
 102:main.c        **** *
 103:main.c        **** * Depending on this value packet is created for different colors and sent to slave.
 104:main.c        **** *   - COLOR_RED:    set red color of the LED.
 105:main.c        **** *   - COLOR_GREEN:  set green color of the LED.
 106:main.c        **** *   - COLOR_BLUE:   set blue color of the LED.
 107:main.c        **** *   - COLOR_CYAN:   set cyan color of the LED.
 108:main.c        **** *   - COLOR_PURPLE: set purple color of the LED.
 109:main.c        **** *   - COLOR_YELLOW: set yellow color of the LED.
 110:main.c        **** *   - COLOR_WHITE:  set white color of the LED.
 111:main.c        **** *
 112:main.c        **** *********************************************************************************/
 113:main.c        **** static void CreateCommandPacketBuffer(uint8_t cmd)
 114:main.c        **** { 
 115:main.c        ****     /* Initialize buffer with commands to be sent. */
 116:main.c        ****     buffer[PACKET_SOP_POS] = PACKET_SOP;
 117:main.c        ****     buffer[PACKET_EOP_POS] = PACKET_EOP;
 118:main.c        ****     
 119:main.c        ****     switch(cmd)
 120:main.c        ****     {
 121:main.c        ****         case COLOR_RED:
 122:main.c        ****             buffer[PACKET_RED_POS] =   0xFF;
 123:main.c        ****             buffer[PACKET_GREEN_POS] = 0x00;
 124:main.c        ****             buffer[PACKET_BLUE_POS] =  0x00;
 125:main.c        ****             break;
 126:main.c        ****         
 127:main.c        ****         case COLOR_GREEN:
 128:main.c        ****             buffer[PACKET_RED_POS] =   0x00;
 129:main.c        ****             buffer[PACKET_GREEN_POS] = 0xFF;
 130:main.c        ****             buffer[PACKET_BLUE_POS] =  0x00;
 131:main.c        ****             break;
 132:main.c        ****         
 133:main.c        ****         case COLOR_BLUE:
 134:main.c        ****             buffer[PACKET_RED_POS] =   0x00;
 135:main.c        ****             buffer[PACKET_GREEN_POS] = 0x00;
 136:main.c        ****             buffer[PACKET_BLUE_POS] =  0xFF;
 137:main.c        ****             break;
 138:main.c        ****         
 139:main.c        ****         case COLOR_CYAN:
 140:main.c        ****             buffer[PACKET_RED_POS] =   0x00;
 141:main.c        ****             buffer[PACKET_GREEN_POS] = 0x7F;
 142:main.c        ****             buffer[PACKET_BLUE_POS] =  0x7F;
 143:main.c        ****             break;
 144:main.c        ****         
ARM GAS  C:\Users\austc\AppData\Local\Temp\ccvQQc8k.s 			page 4


 145:main.c        ****         case COLOR_PURPLE:
 146:main.c        ****             buffer[PACKET_RED_POS] =   0x7F;
 147:main.c        ****             buffer[PACKET_GREEN_POS] = 0x00;
 148:main.c        ****             buffer[PACKET_BLUE_POS] =  0x7F;
 149:main.c        ****             break;
 150:main.c        ****         
 151:main.c        ****         case COLOR_YELLOW:
 152:main.c        ****             buffer[PACKET_RED_POS] =   0x7F;
 153:main.c        ****             buffer[PACKET_GREEN_POS] = 0x7F;
 154:main.c        ****             buffer[PACKET_BLUE_POS] =  0x00;
 155:main.c        ****             break;
 156:main.c        ****         
 157:main.c        ****         case COLOR_WHITE:
 158:main.c        ****             buffer[PACKET_RED_POS] =   0xFF;
 159:main.c        ****             buffer[PACKET_GREEN_POS] = 0xFF;
 160:main.c        ****             buffer[PACKET_BLUE_POS] =  0xFF;
 161:main.c        ****             break;
 162:main.c        ****         
 163:main.c        ****         default:
 164:main.c        ****             break;  
 165:main.c        ****     } 
 166:main.c        **** }
 167:main.c        **** /********************************************************************************
 168:main.c        **** * Function Name: WriteCommandPacket()
 169:main.c        **** ******************************************************************************
 170:main.c        **** * Uses high level api to write to the 
 171:main.c        **** * slave device.
 172:main.c        **** *
 173:main.c        **** * Parameters: cmd
 174:main.c        **** * The command to be written to the slave device
 175:main.c        **** *
 176:main.c        **** * Return:
 177:main.c        **** * Status of the transfer. There are two statuses
 178:main.c        **** *  - TRANSFER_CMPLT: transfer completed successfully.
 179:main.c        **** *  - TRANSFER_ERROR: an error occurred durring transfer.
 180:main.c        **** *
 181:main.c        **** ********************************************************************************/
 182:main.c        **** uint32 WriteCommandPacket(uint8 cmd)
 183:main.c        **** {   
  28              		.loc 1 183 0
  29              		.cfi_startproc
  30              		@ args = 0, pretend = 0, frame = 0
  31              		@ frame_needed = 0, uses_anonymous_args = 0
  32              	.LVL0:
  33 0000 10B5     		push	{r4, lr}
  34              		.cfi_def_cfa_offset 8
  35              		.cfi_offset 4, -8
  36              		.cfi_offset 14, -4
  37              	.LVL1:
 184:main.c        ****     uint32 status = TRANSFER_ERROR;
 185:main.c        **** 
 186:main.c        ****     buffer[0u] = 0x10;
  38              		.loc 1 186 0
  39 0002 144C     		ldr	r4, .L7
  40 0004 1023     		movs	r3, #16
  41 0006 2370     		strb	r3, [r4]
 187:main.c        ****     buffer[1u] = 0x20;
ARM GAS  C:\Users\austc\AppData\Local\Temp\ccvQQc8k.s 			page 5


  42              		.loc 1 187 0
  43 0008 1033     		adds	r3, r3, #16
  44 000a 6370     		strb	r3, [r4, #1]
 188:main.c        ****     buffer[2u] = 0x30;
  45              		.loc 1 188 0
  46 000c 1033     		adds	r3, r3, #16
  47 000e A370     		strb	r3, [r4, #2]
 189:main.c        ****     buffer[3u] = 0x40;
  48              		.loc 1 189 0
  49 0010 1033     		adds	r3, r3, #16
  50 0012 E370     		strb	r3, [r4, #3]
 190:main.c        ****     buffer[4u] = 0x50;
  51              		.loc 1 190 0
  52 0014 1033     		adds	r3, r3, #16
  53 0016 2371     		strb	r3, [r4, #4]
 191:main.c        ****     
 192:main.c        ****    // CreateCommandPacketBuffer(cmd);
 193:main.c        **** 
 194:main.c        ****     (void) mI2C_I2CMasterClearStatus();
  54              		.loc 1 194 0
  55 0018 FFF7FEFF 		bl	mI2C_I2CMasterClearStatus
  56              	.LVL2:
 195:main.c        ****     
 196:main.c        ****     /* Start I2C write and check status */
 197:main.c        ****     if(mI2C_I2C_MSTR_NO_ERROR == mI2C_I2CMasterWriteBuf(I2C_SLAVE_ADDR,
  57              		.loc 1 197 0
  58 001c 0023     		movs	r3, #0
  59 001e 0522     		movs	r2, #5
  60 0020 2100     		movs	r1, r4
  61 0022 0920     		movs	r0, #9
  62 0024 FFF7FEFF 		bl	mI2C_I2CMasterWriteBuf
  63              	.LVL3:
  64 0028 0028     		cmp	r0, #0
  65 002a 0DD1     		bne	.L4
  66              	.L3:
 198:main.c        ****                                                         buffer, BUFFER_SIZE,
 199:main.c        ****                                                         mI2C_I2C_MODE_COMPLETE_XFER))
 200:main.c        ****     {
 201:main.c        ****         /* If I2C write started without errors, 
 202:main.c        ****          * wait until I2C Master completes write transfer */
 203:main.c        ****         while (0u == (mI2C_I2CMasterStatus() & mI2C_I2C_MSTAT_WR_CMPLT))
  67              		.loc 1 203 0 discriminator 1
  68 002c FFF7FEFF 		bl	mI2C_I2CMasterStatus
  69              	.LVL4:
  70 0030 8307     		lsls	r3, r0, #30
  71 0032 FBD5     		bpl	.L3
 204:main.c        ****         {
 205:main.c        ****         }
 206:main.c        ****         
 207:main.c        ****         /* Report transfer status */
 208:main.c        ****         if (0u == (mI2C_I2CMasterStatus() & mI2C_I2C_MSTAT_ERR_XFER))
  72              		.loc 1 208 0
  73 0034 FFF7FEFF 		bl	mI2C_I2CMasterStatus
  74              	.LVL5:
  75 0038 8305     		lsls	r3, r0, #22
  76 003a 07D4     		bmi	.L5
 209:main.c        ****         {
ARM GAS  C:\Users\austc\AppData\Local\Temp\ccvQQc8k.s 			page 6


 210:main.c        ****             /* Check if all bytes were written */
 211:main.c        ****             if (mI2C_I2CMasterGetWriteBufSize() == BUFFER_SIZE)
  77              		.loc 1 211 0
  78 003c FFF7FEFF 		bl	mI2C_I2CMasterGetWriteBufSize
  79              	.LVL6:
  80 0040 0528     		cmp	r0, #5
  81 0042 05D0     		beq	.L6
 184:main.c        **** 
  82              		.loc 1 184 0
  83 0044 FF20     		movs	r0, #255
  84 0046 04E0     		b	.L2
  85              	.L4:
  86 0048 FF20     		movs	r0, #255
  87 004a 02E0     		b	.L2
  88              	.L5:
  89 004c FF20     		movs	r0, #255
  90 004e 00E0     		b	.L2
  91              	.L6:
 212:main.c        ****             {
 213:main.c        ****                 status = TRANSFER_CMPLT;
  92              		.loc 1 213 0
  93 0050 0020     		movs	r0, #0
  94              	.L2:
  95              	.LVL7:
 214:main.c        ****             }
 215:main.c        ****         }
 216:main.c        ****     }
 217:main.c        **** 
 218:main.c        ****     return (status);
 219:main.c        **** }
  96              		.loc 1 219 0
  97              		@ sp needed
  98 0052 10BD     		pop	{r4, pc}
  99              	.L8:
 100              		.align	2
 101              	.L7:
 102 0054 00000000 		.word	buffer
 103              		.cfi_endproc
 104              	.LFE35:
 105              		.size	WriteCommandPacket, .-WriteCommandPacket
 106              		.section	.text.ReadStatusPacket,"ax",%progbits
 107              		.align	2
 108              		.global	ReadStatusPacket
 109              		.code	16
 110              		.thumb_func
 111              		.type	ReadStatusPacket, %function
 112              	ReadStatusPacket:
 113              	.LFB36:
 220:main.c        **** 
 221:main.c        **** /*******************************************************************************
 222:main.c        **** * Function Name: ReadStatusPacket
 223:main.c        **** ********************************************************************************
 224:main.c        **** * 
 225:main.c        **** * Summary:
 226:main.c        **** *  Master initiates the transfer to read status packet from the Slave.
 227:main.c        **** *  The status of the transfer is returned. Uses high level API I2CMasterStatus()
 228:main.c        **** *
ARM GAS  C:\Users\austc\AppData\Local\Temp\ccvQQc8k.s 			page 7


 229:main.c        **** * Parameters:
 230:main.c        **** *  None
 231:main.c        **** *
 232:main.c        **** * Return:
 233:main.c        **** *  Status of the transfer. There are two statuses
 234:main.c        **** *  - TRANSFER_CMPLT: transfer completed successfully.
 235:main.c        **** *  - TRANSFER_ERROR: an error occurred durring transfer.
 236:main.c        **** *
 237:main.c        **** *******************************************************************************/
 238:main.c        **** uint32 ReadStatusPacket(void)
 239:main.c        **** {
 114              		.loc 1 239 0
 115              		.cfi_startproc
 116              		@ args = 0, pretend = 0, frame = 0
 117              		@ frame_needed = 0, uses_anonymous_args = 0
 118 0000 10B5     		push	{r4, lr}
 119              		.cfi_def_cfa_offset 8
 120              		.cfi_offset 4, -8
 121              		.cfi_offset 14, -4
 122              	.LVL8:
 240:main.c        ****     uint32 status = TRANSFER_ERROR;
 241:main.c        ****     
 242:main.c        ****     (void) mI2C_I2CMasterClearStatus();
 123              		.loc 1 242 0
 124 0002 FFF7FEFF 		bl	mI2C_I2CMasterClearStatus
 125              	.LVL9:
 243:main.c        ****     
 244:main.c        ****     if(mI2C_I2C_MSTR_NO_ERROR ==  mI2C_I2CMasterReadBuf(I2C_SLAVE_ADDR,
 126              		.loc 1 244 0
 127 0006 0023     		movs	r3, #0
 128 0008 0322     		movs	r2, #3
 129 000a 1649     		ldr	r1, .L18
 130 000c 0920     		movs	r0, #9
 131 000e FFF7FEFF 		bl	mI2C_I2CMasterReadBuf
 132              	.LVL10:
 133 0012 0028     		cmp	r0, #0
 134 0014 19D1     		bne	.L12
 135              	.L11:
 245:main.c        ****                                                         rd_Buffer, RD_BUFFER_SIZE,
 246:main.c        ****                                                         mI2C_I2C_MODE_COMPLETE_XFER))
 247:main.c        ****     {
 248:main.c        ****         /* If I2C read started without errors, 
 249:main.c        ****         / wait until master complete read transfer */
 250:main.c        ****         while (0u == (mI2C_I2CMasterStatus() & mI2C_I2C_MSTAT_RD_CMPLT))
 136              		.loc 1 250 0 discriminator 1
 137 0016 FFF7FEFF 		bl	mI2C_I2CMasterStatus
 138              	.LVL11:
 139 001a C307     		lsls	r3, r0, #31
 140 001c FBD5     		bpl	.L11
 251:main.c        ****         { 
 252:main.c        ****         }
 253:main.c        ****         
 254:main.c        ****         /* Display transfer status */
 255:main.c        ****         if (0u == (mI2C_I2C_MSTAT_ERR_XFER & mI2C_I2CMasterStatus()))
 141              		.loc 1 255 0
 142 001e FFF7FEFF 		bl	mI2C_I2CMasterStatus
 143              	.LVL12:
ARM GAS  C:\Users\austc\AppData\Local\Temp\ccvQQc8k.s 			page 8


 144 0022 8305     		lsls	r3, r0, #22
 145 0024 13D4     		bmi	.L13
 256:main.c        ****         {
 257:main.c        ****             /* Check packet structure is correct */
 258:main.c        ****             if ((mI2C_I2CMasterGetReadBufSize() == RD_BUFFER_SIZE) &&
 146              		.loc 1 258 0
 147 0026 FFF7FEFF 		bl	mI2C_I2CMasterGetReadBufSize
 148              	.LVL13:
 149 002a 0328     		cmp	r0, #3
 150 002c 11D1     		bne	.L14
 259:main.c        ****                 (PACKET_SOP == rd_Buffer[RD_PACKET_SOP_POS]) &&
 151              		.loc 1 259 0 discriminator 1
 152 002e 0D4B     		ldr	r3, .L18
 153 0030 1B78     		ldrb	r3, [r3]
 258:main.c        ****                 (PACKET_SOP == rd_Buffer[RD_PACKET_SOP_POS]) &&
 154              		.loc 1 258 0 discriminator 1
 155 0032 012B     		cmp	r3, #1
 156 0034 0FD1     		bne	.L15
 260:main.c        ****                 (PACKET_EOP == rd_Buffer[RD_PACKET_EOP_POS]))
 157              		.loc 1 260 0
 158 0036 0B4B     		ldr	r3, .L18
 159 0038 9B78     		ldrb	r3, [r3, #2]
 259:main.c        ****                 (PACKET_SOP == rd_Buffer[RD_PACKET_SOP_POS]) &&
 160              		.loc 1 259 0
 161 003a 172B     		cmp	r3, #23
 162 003c 0DD1     		bne	.L16
 261:main.c        ****             {
 262:main.c        ****                 /* Check packet status */
 263:main.c        ****                 if (STS_CMD_DONE == rd_Buffer[RD_PACKET_STS_POS])
 163              		.loc 1 263 0
 164 003e 094B     		ldr	r3, .L18
 165 0040 5B78     		ldrb	r3, [r3, #1]
 166 0042 002B     		cmp	r3, #0
 167 0044 0BD0     		beq	.L17
 240:main.c        ****     
 168              		.loc 1 240 0
 169 0046 FC30     		adds	r0, r0, #252
 170 0048 0AE0     		b	.L10
 171              	.L12:
 172 004a FF20     		movs	r0, #255
 173 004c 08E0     		b	.L10
 174              	.L13:
 175 004e FF20     		movs	r0, #255
 176 0050 06E0     		b	.L10
 177              	.L14:
 178 0052 FF20     		movs	r0, #255
 179 0054 04E0     		b	.L10
 180              	.L15:
 181 0056 FF20     		movs	r0, #255
 182 0058 02E0     		b	.L10
 183              	.L16:
 184 005a FF20     		movs	r0, #255
 185 005c 00E0     		b	.L10
 186              	.L17:
 264:main.c        ****                 {
 265:main.c        ****                     status = TRANSFER_CMPLT;
 187              		.loc 1 265 0
ARM GAS  C:\Users\austc\AppData\Local\Temp\ccvQQc8k.s 			page 9


 188 005e 0020     		movs	r0, #0
 189              	.L10:
 190              	.LVL14:
 266:main.c        ****                 }
 267:main.c        ****             }
 268:main.c        ****         }
 269:main.c        ****     }
 270:main.c        **** 
 271:main.c        ****     return (status);
 272:main.c        **** }
 191              		.loc 1 272 0
 192              		@ sp needed
 193 0060 10BD     		pop	{r4, pc}
 194              	.L19:
 195 0062 C046     		.align	2
 196              	.L18:
 197 0064 00000000 		.word	rd_Buffer
 198              		.cfi_endproc
 199              	.LFE36:
 200              		.size	ReadStatusPacket, .-ReadStatusPacket
 201              		.section	.text.main,"ax",%progbits
 202              		.align	2
 203              		.global	main
 204              		.code	16
 205              		.thumb_func
 206              		.type	main, %function
 207              	main:
 208              	.LFB37:
 273:main.c        **** 
 274:main.c        **** /*******************************************************************************
 275:main.c        **** * Function Name: main
 276:main.c        **** ********************************************************************************
 277:main.c        **** * 
 278:main.c        **** * Main function performs the following actions:
 279:main.c        **** *   1. Initializes I2C Component.
 280:main.c        **** *   2. Writes a command packet to the slave.
 281:main.c        **** *   3. Reads back the status of the write from the slave.
 282:main.c        **** *   4. Iterates through each command and loops back when the maximum number 
 283:main.c        **** *      of commands is complete.
 284:main.c        **** *
 285:main.c        **** *******************************************************************************/
 286:main.c        **** int main()
 287:main.c        **** {
 209              		.loc 1 287 0
 210              		.cfi_startproc
 211              		@ args = 0, pretend = 0, frame = 0
 212              		@ frame_needed = 0, uses_anonymous_args = 0
 213 0000 10B5     		push	{r4, lr}
 214              		.cfi_def_cfa_offset 8
 215              		.cfi_offset 4, -8
 216              		.cfi_offset 14, -4
 217              	.LVL15:
 288:main.c        ****     uint8 command = COLOR_RED;
 289:main.c        ****     
 290:main.c        ****     CyGlobalIntEnable;
 218              		.loc 1 290 0
 219              		.syntax divided
ARM GAS  C:\Users\austc\AppData\Local\Temp\ccvQQc8k.s 			page 10


 220              	@ 290 "main.c" 1
 221 0002 62B6     		CPSIE   i
 222              	@ 0 "" 2
 291:main.c        ****     
 292:main.c        ****     /* Start the I2C Master */
 293:main.c        ****     mI2C_Start();
 223              		.loc 1 293 0
 224              		.thumb
 225              		.syntax unified
 226 0004 FFF7FEFF 		bl	mI2C_Start
 227              	.LVL16:
 294:main.c        ****     
 295:main.c        ****     rd_Buffer[RD_PACKET_SOP_POS] = PACKET_SOP;
 228              		.loc 1 295 0
 229 0008 0C4B     		ldr	r3, .L24
 230 000a 0122     		movs	r2, #1
 231 000c 1A70     		strb	r2, [r3]
 296:main.c        ****     rd_Buffer[RD_PACKET_EOP_POS] = PACKET_EOP;
 232              		.loc 1 296 0
 233 000e 1632     		adds	r2, r2, #22
 234 0010 9A70     		strb	r2, [r3, #2]
 288:main.c        ****     
 235              		.loc 1 288 0
 236 0012 0024     		movs	r4, #0
 237              	.LVL17:
 238              	.L22:
 297:main.c        **** 
 298:main.c        ****     for(;;)
 299:main.c        ****     {   
 300:main.c        ****         
 301:main.c        ****         /* Send packet with command to the slave */
 302:main.c        ****         if (TRANSFER_CMPLT == WriteCommandPacket(command))
 239              		.loc 1 302 0
 240 0014 2000     		movs	r0, r4
 241 0016 FFF7FEFF 		bl	WriteCommandPacket
 242              	.LVL18:
 243 001a 0028     		cmp	r0, #0
 244 001c 08D1     		bne	.L21
 303:main.c        ****         {
 304:main.c        ****             /* Read response packet from the slave */
 305:main.c        ****             if (TRANSFER_CMPLT == ReadStatusPacket())
 245              		.loc 1 305 0
 246 001e FFF7FEFF 		bl	ReadStatusPacket
 247              	.LVL19:
 248 0022 0028     		cmp	r0, #0
 249 0024 04D1     		bne	.L21
 306:main.c        ****             {                
 307:main.c        ****                 /* Cycle through LED Colors */
 308:main.c        ****                 command++;
 250              		.loc 1 308 0
 251 0026 0134     		adds	r4, r4, #1
 252              	.LVL20:
 253 0028 E4B2     		uxtb	r4, r4
 254              	.LVL21:
 309:main.c        ****                 if (command > COLOR_WHITE)
 255              		.loc 1 309 0
 256 002a 062C     		cmp	r4, #6
ARM GAS  C:\Users\austc\AppData\Local\Temp\ccvQQc8k.s 			page 11


 257 002c 00D9     		bls	.L21
 310:main.c        ****                 {
 311:main.c        ****                     command = COLOR_RED;
 258              		.loc 1 311 0
 259 002e 0024     		movs	r4, #0
 260              	.LVL22:
 261              	.L21:
 312:main.c        ****                 }
 313:main.c        ****             }
 314:main.c        ****         }
 315:main.c        ****  
 316:main.c        ****         /* Delay before changing LED color */
 317:main.c        ****         CyDelay(500u); 
 262              		.loc 1 317 0
 263 0030 FA20     		movs	r0, #250
 264 0032 4000     		lsls	r0, r0, #1
 265 0034 FFF7FEFF 		bl	CyDelay
 266              	.LVL23:
 318:main.c        ****     }
 267              		.loc 1 318 0
 268 0038 ECE7     		b	.L22
 269              	.L25:
 270 003a C046     		.align	2
 271              	.L24:
 272 003c 00000000 		.word	rd_Buffer
 273              		.cfi_endproc
 274              	.LFE37:
 275              		.size	main, .-main
 276              		.comm	rd_Buffer,3,4
 277              		.comm	buffer,5,4
 278              		.text
 279              	.Letext0:
 280              		.file 2 "c:\\program files (x86)\\cypress\\psoc creator\\4.2\\psoc creator\\import\\gnu\\arm\\5.4.
 281              		.file 3 "c:\\program files (x86)\\cypress\\psoc creator\\4.2\\psoc creator\\import\\gnu\\arm\\5.4.
 282              		.file 4 "Generated_Source\\PSoC4/cytypes.h"
 283              		.file 5 "Generated_Source\\PSoC4/mI2C_I2C.h"
 284              		.file 6 "Generated_Source\\PSoC4/mI2C.h"
 285              		.file 7 "Generated_Source\\PSoC4/CyLib.h"