ARM GAS  C:\Users\austc\AppData\Local\Temp\cci5Td7B.s 			page 1


   1              		.syntax unified
   2              		.cpu cortex-m0
   3              		.fpu softvfp
   4              		.eabi_attribute 20, 1
   5              		.eabi_attribute 21, 1
   6              		.eabi_attribute 23, 3
   7              		.eabi_attribute 24, 1
   8              		.eabi_attribute 25, 1
   9              		.eabi_attribute 26, 1
  10              		.eabi_attribute 30, 1
  11              		.eabi_attribute 34, 0
  12              		.eabi_attribute 18, 4
  13              		.thumb
  14              		.syntax unified
  15              		.file	"cyfitter_cfg.c"
  16              		.text
  17              	.Ltext0:
  18              		.cfi_sections	.debug_frame
  19              		.section	.text.cfg_write_bytes32,"ax",%progbits
  20              		.align	2
  21              		.code	16
  22              		.thumb_func
  23              		.type	cfg_write_bytes32, %function
  24              	cfg_write_bytes32:
  25              	.LFB37:
  26              		.file 1 "Generated_Source\\PSoC4\\cyfitter_cfg.c"
   1:Generated_Source\PSoC4/cyfitter_cfg.c **** 
   2:Generated_Source\PSoC4/cyfitter_cfg.c **** /*******************************************************************************
   3:Generated_Source\PSoC4/cyfitter_cfg.c **** * File Name: cyfitter_cfg.c
   4:Generated_Source\PSoC4/cyfitter_cfg.c **** * 
   5:Generated_Source\PSoC4/cyfitter_cfg.c **** * PSoC Creator  4.2
   6:Generated_Source\PSoC4/cyfitter_cfg.c **** *
   7:Generated_Source\PSoC4/cyfitter_cfg.c **** * Description:
   8:Generated_Source\PSoC4/cyfitter_cfg.c **** * This file contains device initialization code.
   9:Generated_Source\PSoC4/cyfitter_cfg.c **** * Except for the user defined sections in CyClockStartupError(), this file should not be modified.
  10:Generated_Source\PSoC4/cyfitter_cfg.c **** * This file is automatically generated by PSoC Creator.
  11:Generated_Source\PSoC4/cyfitter_cfg.c **** *
  12:Generated_Source\PSoC4/cyfitter_cfg.c **** ********************************************************************************
  13:Generated_Source\PSoC4/cyfitter_cfg.c **** * Copyright (c) 2007-2018 Cypress Semiconductor.  All rights reserved.
  14:Generated_Source\PSoC4/cyfitter_cfg.c **** * You may use this file only in accordance with the license, terms, conditions, 
  15:Generated_Source\PSoC4/cyfitter_cfg.c **** * disclaimers, and limitations in the end user license agreement accompanying 
  16:Generated_Source\PSoC4/cyfitter_cfg.c **** * the software package with which this file was provided.
  17:Generated_Source\PSoC4/cyfitter_cfg.c **** ********************************************************************************/
  18:Generated_Source\PSoC4/cyfitter_cfg.c **** 
  19:Generated_Source\PSoC4/cyfitter_cfg.c **** #include <string.h>
  20:Generated_Source\PSoC4/cyfitter_cfg.c **** #include "cytypes.h"
  21:Generated_Source\PSoC4/cyfitter_cfg.c **** #include "cydevice_trm.h"
  22:Generated_Source\PSoC4/cyfitter_cfg.c **** #include "cyfitter.h"
  23:Generated_Source\PSoC4/cyfitter_cfg.c **** #include "CyLib.h"
  24:Generated_Source\PSoC4/cyfitter_cfg.c **** #include "CyLFClk.h"
  25:Generated_Source\PSoC4/cyfitter_cfg.c **** #include "cyfitter_cfg.h"
  26:Generated_Source\PSoC4/cyfitter_cfg.c **** #include "cyapicallbacks.h"
  27:Generated_Source\PSoC4/cyfitter_cfg.c **** 
  28:Generated_Source\PSoC4/cyfitter_cfg.c **** 
  29:Generated_Source\PSoC4/cyfitter_cfg.c **** #if defined(__GNUC__) || defined(__ARMCC_VERSION)
  30:Generated_Source\PSoC4/cyfitter_cfg.c ****     #define CYPACKED 
  31:Generated_Source\PSoC4/cyfitter_cfg.c ****     #define CYPACKED_ATTR __attribute__ ((packed))
ARM GAS  C:\Users\austc\AppData\Local\Temp\cci5Td7B.s 			page 2


  32:Generated_Source\PSoC4/cyfitter_cfg.c ****     #define CYALIGNED __attribute__ ((aligned))
  33:Generated_Source\PSoC4/cyfitter_cfg.c ****     #define CY_CFG_UNUSED __attribute__ ((unused))
  34:Generated_Source\PSoC4/cyfitter_cfg.c ****     #ifndef CY_CFG_SECTION
  35:Generated_Source\PSoC4/cyfitter_cfg.c ****         #define CY_CFG_SECTION __attribute__ ((section(".psocinit")))
  36:Generated_Source\PSoC4/cyfitter_cfg.c ****     #endif
  37:Generated_Source\PSoC4/cyfitter_cfg.c ****     
  38:Generated_Source\PSoC4/cyfitter_cfg.c ****     #if defined(__ARMCC_VERSION)
  39:Generated_Source\PSoC4/cyfitter_cfg.c ****         #define CY_CFG_MEMORY_BARRIER() __memory_changed()
  40:Generated_Source\PSoC4/cyfitter_cfg.c ****     #else
  41:Generated_Source\PSoC4/cyfitter_cfg.c ****         #define CY_CFG_MEMORY_BARRIER() __sync_synchronize()
  42:Generated_Source\PSoC4/cyfitter_cfg.c ****     #endif
  43:Generated_Source\PSoC4/cyfitter_cfg.c ****     
  44:Generated_Source\PSoC4/cyfitter_cfg.c **** #elif defined(__ICCARM__)
  45:Generated_Source\PSoC4/cyfitter_cfg.c ****     #include <intrinsics.h>
  46:Generated_Source\PSoC4/cyfitter_cfg.c **** 
  47:Generated_Source\PSoC4/cyfitter_cfg.c ****     #define CYPACKED __packed
  48:Generated_Source\PSoC4/cyfitter_cfg.c ****     #define CYPACKED_ATTR 
  49:Generated_Source\PSoC4/cyfitter_cfg.c ****     #define CYALIGNED _Pragma("data_alignment=4")
  50:Generated_Source\PSoC4/cyfitter_cfg.c ****     #define CY_CFG_UNUSED _Pragma("diag_suppress=Pe177")
  51:Generated_Source\PSoC4/cyfitter_cfg.c ****     #define CY_CFG_SECTION _Pragma("location=\".psocinit\"")
  52:Generated_Source\PSoC4/cyfitter_cfg.c ****     
  53:Generated_Source\PSoC4/cyfitter_cfg.c ****     #define CY_CFG_MEMORY_BARRIER() __DMB()
  54:Generated_Source\PSoC4/cyfitter_cfg.c ****     
  55:Generated_Source\PSoC4/cyfitter_cfg.c **** #else
  56:Generated_Source\PSoC4/cyfitter_cfg.c ****     #error Unsupported toolchain
  57:Generated_Source\PSoC4/cyfitter_cfg.c **** #endif
  58:Generated_Source\PSoC4/cyfitter_cfg.c **** 
  59:Generated_Source\PSoC4/cyfitter_cfg.c **** #ifndef CYCODE
  60:Generated_Source\PSoC4/cyfitter_cfg.c ****     #define CYCODE
  61:Generated_Source\PSoC4/cyfitter_cfg.c **** #endif
  62:Generated_Source\PSoC4/cyfitter_cfg.c **** #ifndef CYDATA
  63:Generated_Source\PSoC4/cyfitter_cfg.c ****     #define CYDATA
  64:Generated_Source\PSoC4/cyfitter_cfg.c **** #endif
  65:Generated_Source\PSoC4/cyfitter_cfg.c **** #ifndef CYFAR
  66:Generated_Source\PSoC4/cyfitter_cfg.c ****     #define CYFAR
  67:Generated_Source\PSoC4/cyfitter_cfg.c **** #endif
  68:Generated_Source\PSoC4/cyfitter_cfg.c **** #ifndef CYXDATA
  69:Generated_Source\PSoC4/cyfitter_cfg.c ****     #define CYXDATA
  70:Generated_Source\PSoC4/cyfitter_cfg.c **** #endif
  71:Generated_Source\PSoC4/cyfitter_cfg.c **** 
  72:Generated_Source\PSoC4/cyfitter_cfg.c **** 
  73:Generated_Source\PSoC4/cyfitter_cfg.c **** CY_CFG_UNUSED
  74:Generated_Source\PSoC4/cyfitter_cfg.c **** static void CYMEMZERO(void *s, size_t n);
  75:Generated_Source\PSoC4/cyfitter_cfg.c **** CY_CFG_UNUSED
  76:Generated_Source\PSoC4/cyfitter_cfg.c **** static void CYMEMZERO(void *s, size_t n)
  77:Generated_Source\PSoC4/cyfitter_cfg.c **** {
  78:Generated_Source\PSoC4/cyfitter_cfg.c **** 	(void)memset(s, 0, n);
  79:Generated_Source\PSoC4/cyfitter_cfg.c **** }
  80:Generated_Source\PSoC4/cyfitter_cfg.c **** CY_CFG_UNUSED
  81:Generated_Source\PSoC4/cyfitter_cfg.c **** static void CYCONFIGCPY(void *dest, const void *src, size_t n);
  82:Generated_Source\PSoC4/cyfitter_cfg.c **** CY_CFG_UNUSED
  83:Generated_Source\PSoC4/cyfitter_cfg.c **** static void CYCONFIGCPY(void *dest, const void *src, size_t n)
  84:Generated_Source\PSoC4/cyfitter_cfg.c **** {
  85:Generated_Source\PSoC4/cyfitter_cfg.c **** 	(void)memcpy(dest, src, n);
  86:Generated_Source\PSoC4/cyfitter_cfg.c **** }
  87:Generated_Source\PSoC4/cyfitter_cfg.c **** CY_CFG_UNUSED
  88:Generated_Source\PSoC4/cyfitter_cfg.c **** static void CYCONFIGCPYCODE(void *dest, const void *src, size_t n);
ARM GAS  C:\Users\austc\AppData\Local\Temp\cci5Td7B.s 			page 3


  89:Generated_Source\PSoC4/cyfitter_cfg.c **** CY_CFG_UNUSED
  90:Generated_Source\PSoC4/cyfitter_cfg.c **** static void CYCONFIGCPYCODE(void *dest, const void *src, size_t n)
  91:Generated_Source\PSoC4/cyfitter_cfg.c **** {
  92:Generated_Source\PSoC4/cyfitter_cfg.c **** 	(void)memcpy(dest, src, n);
  93:Generated_Source\PSoC4/cyfitter_cfg.c **** }
  94:Generated_Source\PSoC4/cyfitter_cfg.c **** 
  95:Generated_Source\PSoC4/cyfitter_cfg.c **** 
  96:Generated_Source\PSoC4/cyfitter_cfg.c **** 
  97:Generated_Source\PSoC4/cyfitter_cfg.c **** 
  98:Generated_Source\PSoC4/cyfitter_cfg.c **** /* Clock startup error codes                                                   */
  99:Generated_Source\PSoC4/cyfitter_cfg.c **** #define CYCLOCKSTART_NO_ERROR    0u
 100:Generated_Source\PSoC4/cyfitter_cfg.c **** #define CYCLOCKSTART_XTAL_ERROR  1u
 101:Generated_Source\PSoC4/cyfitter_cfg.c **** #define CYCLOCKSTART_32KHZ_ERROR 2u
 102:Generated_Source\PSoC4/cyfitter_cfg.c **** #define CYCLOCKSTART_PLL_ERROR   3u
 103:Generated_Source\PSoC4/cyfitter_cfg.c **** #define CYCLOCKSTART_FLL_ERROR   4u
 104:Generated_Source\PSoC4/cyfitter_cfg.c **** #define CYCLOCKSTART_WCO_ERROR   5u
 105:Generated_Source\PSoC4/cyfitter_cfg.c **** 
 106:Generated_Source\PSoC4/cyfitter_cfg.c **** 
 107:Generated_Source\PSoC4/cyfitter_cfg.c **** #ifdef CY_NEED_CYCLOCKSTARTUPERROR
 108:Generated_Source\PSoC4/cyfitter_cfg.c **** /*******************************************************************************
 109:Generated_Source\PSoC4/cyfitter_cfg.c **** * Function Name: CyClockStartupError
 110:Generated_Source\PSoC4/cyfitter_cfg.c **** ********************************************************************************
 111:Generated_Source\PSoC4/cyfitter_cfg.c **** * Summary:
 112:Generated_Source\PSoC4/cyfitter_cfg.c **** *  If an error is encountered during clock configuration (crystal startup error,
 113:Generated_Source\PSoC4/cyfitter_cfg.c **** *  PLL lock error, etc.), the system will end up here.  Unless reimplemented by
 114:Generated_Source\PSoC4/cyfitter_cfg.c **** *  the customer, this function will stop in an infinite loop.
 115:Generated_Source\PSoC4/cyfitter_cfg.c **** *
 116:Generated_Source\PSoC4/cyfitter_cfg.c **** * Parameters:
 117:Generated_Source\PSoC4/cyfitter_cfg.c **** *   void
 118:Generated_Source\PSoC4/cyfitter_cfg.c **** *
 119:Generated_Source\PSoC4/cyfitter_cfg.c **** * Return:
 120:Generated_Source\PSoC4/cyfitter_cfg.c **** *   void
 121:Generated_Source\PSoC4/cyfitter_cfg.c **** *
 122:Generated_Source\PSoC4/cyfitter_cfg.c **** *******************************************************************************/
 123:Generated_Source\PSoC4/cyfitter_cfg.c **** CY_CFG_UNUSED
 124:Generated_Source\PSoC4/cyfitter_cfg.c **** static void CyClockStartupError(uint8 errorCode);
 125:Generated_Source\PSoC4/cyfitter_cfg.c **** CY_CFG_UNUSED
 126:Generated_Source\PSoC4/cyfitter_cfg.c **** static void CyClockStartupError(uint8 errorCode)
 127:Generated_Source\PSoC4/cyfitter_cfg.c **** {
 128:Generated_Source\PSoC4/cyfitter_cfg.c ****     /* To remove the compiler warning if errorCode not used.                */
 129:Generated_Source\PSoC4/cyfitter_cfg.c ****     errorCode = errorCode;
 130:Generated_Source\PSoC4/cyfitter_cfg.c **** 
 131:Generated_Source\PSoC4/cyfitter_cfg.c ****     /* If we have a clock startup error (bad MHz crystal, PLL lock, etc.),  */
 132:Generated_Source\PSoC4/cyfitter_cfg.c ****     /* we will end up here to allow the customer to implement something to  */
 133:Generated_Source\PSoC4/cyfitter_cfg.c ****     /* deal with the clock condition.                                       */
 134:Generated_Source\PSoC4/cyfitter_cfg.c **** 
 135:Generated_Source\PSoC4/cyfitter_cfg.c **** #ifdef CY_CFG_CLOCK_STARTUP_ERROR_CALLBACK
 136:Generated_Source\PSoC4/cyfitter_cfg.c ****     CY_CFG_Clock_Startup_ErrorCallback();
 137:Generated_Source\PSoC4/cyfitter_cfg.c **** #else
 138:Generated_Source\PSoC4/cyfitter_cfg.c ****     /*  If not using CY_CFG_CLOCK_STARTUP_ERROR_CALLBACK, place your clock startup code here. */
 139:Generated_Source\PSoC4/cyfitter_cfg.c ****     /* `#START CyClockStartupError` */
 140:Generated_Source\PSoC4/cyfitter_cfg.c **** 
 141:Generated_Source\PSoC4/cyfitter_cfg.c **** 
 142:Generated_Source\PSoC4/cyfitter_cfg.c **** 
 143:Generated_Source\PSoC4/cyfitter_cfg.c ****     /* `#END` */
 144:Generated_Source\PSoC4/cyfitter_cfg.c **** 
 145:Generated_Source\PSoC4/cyfitter_cfg.c ****     while(1) {}
ARM GAS  C:\Users\austc\AppData\Local\Temp\cci5Td7B.s 			page 4


 146:Generated_Source\PSoC4/cyfitter_cfg.c **** #endif /* CY_CFG_CLOCK_STARTUP_ERROR_CALLBACK */
 147:Generated_Source\PSoC4/cyfitter_cfg.c **** }
 148:Generated_Source\PSoC4/cyfitter_cfg.c **** #endif
 149:Generated_Source\PSoC4/cyfitter_cfg.c **** 
 150:Generated_Source\PSoC4/cyfitter_cfg.c **** #define CY_CFG_BASE_ADDR_COUNT 14u
 151:Generated_Source\PSoC4/cyfitter_cfg.c **** CYPACKED typedef struct
 152:Generated_Source\PSoC4/cyfitter_cfg.c **** {
 153:Generated_Source\PSoC4/cyfitter_cfg.c **** 	uint8 offset;
 154:Generated_Source\PSoC4/cyfitter_cfg.c **** 	uint8 value;
 155:Generated_Source\PSoC4/cyfitter_cfg.c **** } CYPACKED_ATTR cy_cfg_addrvalue_t;
 156:Generated_Source\PSoC4/cyfitter_cfg.c **** 
 157:Generated_Source\PSoC4/cyfitter_cfg.c **** 
 158:Generated_Source\PSoC4/cyfitter_cfg.c **** 
 159:Generated_Source\PSoC4/cyfitter_cfg.c **** /*******************************************************************************
 160:Generated_Source\PSoC4/cyfitter_cfg.c **** * Function Name: cfg_write_bytes32
 161:Generated_Source\PSoC4/cyfitter_cfg.c **** ********************************************************************************
 162:Generated_Source\PSoC4/cyfitter_cfg.c **** * Summary:
 163:Generated_Source\PSoC4/cyfitter_cfg.c **** *  This function is used for setting up the chip configuration areas that
 164:Generated_Source\PSoC4/cyfitter_cfg.c **** *  contain relatively sparse data.
 165:Generated_Source\PSoC4/cyfitter_cfg.c **** *
 166:Generated_Source\PSoC4/cyfitter_cfg.c **** * Parameters:
 167:Generated_Source\PSoC4/cyfitter_cfg.c **** *   void
 168:Generated_Source\PSoC4/cyfitter_cfg.c **** *
 169:Generated_Source\PSoC4/cyfitter_cfg.c **** * Return:
 170:Generated_Source\PSoC4/cyfitter_cfg.c **** *   void
 171:Generated_Source\PSoC4/cyfitter_cfg.c **** *
 172:Generated_Source\PSoC4/cyfitter_cfg.c **** *******************************************************************************/
 173:Generated_Source\PSoC4/cyfitter_cfg.c **** static void cfg_write_bytes32(const uint32 addr_table[], const cy_cfg_addrvalue_t data_table[]);
 174:Generated_Source\PSoC4/cyfitter_cfg.c **** static void cfg_write_bytes32(const uint32 addr_table[], const cy_cfg_addrvalue_t data_table[])
 175:Generated_Source\PSoC4/cyfitter_cfg.c **** {
  27              		.loc 1 175 0
  28              		.cfi_startproc
  29              		@ args = 0, pretend = 0, frame = 0
  30              		@ frame_needed = 0, uses_anonymous_args = 0
  31              	.LVL0:
  32 0000 F0B5     		push	{r4, r5, r6, r7, lr}
  33              		.cfi_def_cfa_offset 20
  34              		.cfi_offset 4, -20
  35              		.cfi_offset 5, -16
  36              		.cfi_offset 6, -12
  37              		.cfi_offset 7, -8
  38              		.cfi_offset 14, -4
  39              	.LVL1:
 176:Generated_Source\PSoC4/cyfitter_cfg.c **** 	/* For 32-bit little-endian architectures */
 177:Generated_Source\PSoC4/cyfitter_cfg.c **** 	uint32 i, j = 0u;
  40              		.loc 1 177 0
  41 0002 0025     		movs	r5, #0
 178:Generated_Source\PSoC4/cyfitter_cfg.c **** 	for (i = 0u; i < CY_CFG_BASE_ADDR_COUNT; i++)
  42              		.loc 1 178 0
  43 0004 0027     		movs	r7, #0
  44 0006 11E0     		b	.L2
  45              	.LVL2:
  46              	.L5:
  47              	.LBB2:
 179:Generated_Source\PSoC4/cyfitter_cfg.c **** 	{
 180:Generated_Source\PSoC4/cyfitter_cfg.c **** 		uint32 baseAddr = addr_table[i];
  48              		.loc 1 180 0
ARM GAS  C:\Users\austc\AppData\Local\Temp\cci5Td7B.s 			page 5


  49 0008 BB00     		lsls	r3, r7, #2
  50 000a C658     		ldr	r6, [r0, r3]
  51              	.LVL3:
 181:Generated_Source\PSoC4/cyfitter_cfg.c **** 		uint8 count = (uint8)baseAddr;
  52              		.loc 1 181 0
  53 000c F3B2     		uxtb	r3, r6
  54              	.LVL4:
 182:Generated_Source\PSoC4/cyfitter_cfg.c **** 		baseAddr &= 0xFFFFFF00u;
  55              		.loc 1 182 0
  56 000e FF22     		movs	r2, #255
  57 0010 9643     		bics	r6, r2
  58              	.LVL5:
 183:Generated_Source\PSoC4/cyfitter_cfg.c **** 		while (count != 0u)
  59              		.loc 1 183 0
  60 0012 08E0     		b	.L3
  61              	.L4:
 184:Generated_Source\PSoC4/cyfitter_cfg.c **** 		{
 185:Generated_Source\PSoC4/cyfitter_cfg.c **** 			CY_SET_REG8((void *)(baseAddr + data_table[j].offset), data_table[j].value);
  62              		.loc 1 185 0
  63 0014 6A00     		lsls	r2, r5, #1
  64 0016 8A18     		adds	r2, r1, r2
  65 0018 1478     		ldrb	r4, [r2]
  66 001a A419     		adds	r4, r4, r6
  67 001c 5278     		ldrb	r2, [r2, #1]
  68 001e 2270     		strb	r2, [r4]
 186:Generated_Source\PSoC4/cyfitter_cfg.c **** 			j++;
  69              		.loc 1 186 0
  70 0020 0135     		adds	r5, r5, #1
  71              	.LVL6:
 187:Generated_Source\PSoC4/cyfitter_cfg.c **** 			count--;
  72              		.loc 1 187 0
  73 0022 013B     		subs	r3, r3, #1
  74              	.LVL7:
  75 0024 DBB2     		uxtb	r3, r3
  76              	.LVL8:
  77              	.L3:
 183:Generated_Source\PSoC4/cyfitter_cfg.c **** 		{
  78              		.loc 1 183 0
  79 0026 002B     		cmp	r3, #0
  80 0028 F4D1     		bne	.L4
  81              	.LBE2:
 178:Generated_Source\PSoC4/cyfitter_cfg.c **** 	{
  82              		.loc 1 178 0 discriminator 2
  83 002a 0137     		adds	r7, r7, #1
  84              	.LVL9:
  85              	.L2:
 178:Generated_Source\PSoC4/cyfitter_cfg.c **** 	{
  86              		.loc 1 178 0 is_stmt 0 discriminator 1
  87 002c 0D2F     		cmp	r7, #13
  88 002e EBD9     		bls	.L5
 188:Generated_Source\PSoC4/cyfitter_cfg.c **** 		}
 189:Generated_Source\PSoC4/cyfitter_cfg.c **** 	}
 190:Generated_Source\PSoC4/cyfitter_cfg.c **** }
  89              		.loc 1 190 0 is_stmt 1
  90              		@ sp needed
  91              	.LVL10:
  92              	.LVL11:
ARM GAS  C:\Users\austc\AppData\Local\Temp\cci5Td7B.s 			page 6


  93 0030 F0BD     		pop	{r4, r5, r6, r7, pc}
  94              		.cfi_endproc
  95              	.LFE37:
  96              		.size	cfg_write_bytes32, .-cfg_write_bytes32
  97 0032 C046     		.section	.text.AnalogSetDefault,"ax",%progbits
  98              		.align	2
  99              		.code	16
 100              		.thumb_func
 101              		.type	AnalogSetDefault, %function
 102              	AnalogSetDefault:
 103              	.LFB39:
 191:Generated_Source\PSoC4/cyfitter_cfg.c **** 
 192:Generated_Source\PSoC4/cyfitter_cfg.c **** 
 193:Generated_Source\PSoC4/cyfitter_cfg.c **** /*******************************************************************************
 194:Generated_Source\PSoC4/cyfitter_cfg.c **** * Function Name: ClockSetup
 195:Generated_Source\PSoC4/cyfitter_cfg.c **** ********************************************************************************
 196:Generated_Source\PSoC4/cyfitter_cfg.c **** *
 197:Generated_Source\PSoC4/cyfitter_cfg.c **** * Summary:
 198:Generated_Source\PSoC4/cyfitter_cfg.c **** *   Performs the initialization of all of the clocks in the device based on the
 199:Generated_Source\PSoC4/cyfitter_cfg.c **** *   settings in the Clock tab of the DWR.  This includes enabling the requested
 200:Generated_Source\PSoC4/cyfitter_cfg.c **** *   clocks and setting the necessary dividers to produce the desired frequency. 
 201:Generated_Source\PSoC4/cyfitter_cfg.c **** *
 202:Generated_Source\PSoC4/cyfitter_cfg.c **** * Parameters:
 203:Generated_Source\PSoC4/cyfitter_cfg.c **** *   void
 204:Generated_Source\PSoC4/cyfitter_cfg.c **** *
 205:Generated_Source\PSoC4/cyfitter_cfg.c **** * Return:
 206:Generated_Source\PSoC4/cyfitter_cfg.c **** *   void
 207:Generated_Source\PSoC4/cyfitter_cfg.c **** *
 208:Generated_Source\PSoC4/cyfitter_cfg.c **** *******************************************************************************/
 209:Generated_Source\PSoC4/cyfitter_cfg.c **** static void ClockSetup(void);
 210:Generated_Source\PSoC4/cyfitter_cfg.c **** CY_CFG_SECTION
 211:Generated_Source\PSoC4/cyfitter_cfg.c **** static void ClockSetup(void)
 212:Generated_Source\PSoC4/cyfitter_cfg.c **** {
 213:Generated_Source\PSoC4/cyfitter_cfg.c **** 
 214:Generated_Source\PSoC4/cyfitter_cfg.c **** 	/* Set Flash Cycles based on max possible frequency in case a glitch occurs during ClockSetup(). *
 215:Generated_Source\PSoC4/cyfitter_cfg.c **** 	CY_SET_REG32((void CYXDATA *)(CYREG_CPUSS_FLASH_CTL), (0x0012u));
 216:Generated_Source\PSoC4/cyfitter_cfg.c **** 	/* Setup and trim IMO based on desired frequency. */
 217:Generated_Source\PSoC4/cyfitter_cfg.c **** 	CySysClkWriteImoFreq(48u);
 218:Generated_Source\PSoC4/cyfitter_cfg.c **** 	/* CYDEV_CLK_ILO_CONFIG Starting address: CYDEV_CLK_ILO_CONFIG */
 219:Generated_Source\PSoC4/cyfitter_cfg.c **** 	CY_SET_REG32((void *)(CYREG_CLK_ILO_CONFIG), 0x80000006u);
 220:Generated_Source\PSoC4/cyfitter_cfg.c **** 
 221:Generated_Source\PSoC4/cyfitter_cfg.c **** 
 222:Generated_Source\PSoC4/cyfitter_cfg.c **** 	/* Setup phase aligned clocks */
 223:Generated_Source\PSoC4/cyfitter_cfg.c **** 	CY_SET_REG32((void *)CYREG_PERI_DIV_24_5_CTL, 0x0752FF00u);
 224:Generated_Source\PSoC4/cyfitter_cfg.c **** 	CY_SET_REG32((void *)CYREG_PERI_DIV_CMD, 0x8000FFC0u);
 225:Generated_Source\PSoC4/cyfitter_cfg.c **** 	CY_SET_REG32((void *)CYREG_PERI_DIV_16_CTL1, 0x00BB7F00u);
 226:Generated_Source\PSoC4/cyfitter_cfg.c **** 	CY_SET_REG32((void *)CYREG_PERI_DIV_CMD, 0x8000FF41u);
 227:Generated_Source\PSoC4/cyfitter_cfg.c **** 	CY_SET_REG32((void *)CYREG_PERI_DIV_16_CTL0, 0x00000100u);
 228:Generated_Source\PSoC4/cyfitter_cfg.c **** 	CY_SET_REG32((void *)CYREG_PERI_DIV_CMD, 0x8000FF40u);
 229:Generated_Source\PSoC4/cyfitter_cfg.c **** 
 230:Generated_Source\PSoC4/cyfitter_cfg.c **** 	/* CYDEV_CLK_IMO_CONFIG Starting address: CYDEV_CLK_IMO_CONFIG */
 231:Generated_Source\PSoC4/cyfitter_cfg.c **** 	CY_SET_REG32((void *)(CYREG_CLK_IMO_CONFIG), 0x80000000u);
 232:Generated_Source\PSoC4/cyfitter_cfg.c **** 
 233:Generated_Source\PSoC4/cyfitter_cfg.c **** 	/* CYDEV_CLK_SELECT Starting address: CYDEV_CLK_SELECT */
 234:Generated_Source\PSoC4/cyfitter_cfg.c **** 	CY_SET_REG32((void *)(CYREG_CLK_SELECT), 0x00040000u);
 235:Generated_Source\PSoC4/cyfitter_cfg.c **** 
 236:Generated_Source\PSoC4/cyfitter_cfg.c **** 	/* CYDEV_PERI_PCLK_CTL22 Starting address: CYDEV_PERI_PCLK_CTL22 */
ARM GAS  C:\Users\austc\AppData\Local\Temp\cci5Td7B.s 			page 7


 237:Generated_Source\PSoC4/cyfitter_cfg.c **** 	CY_SET_REG32((void *)(CYREG_PERI_PCLK_CTL22), 0x000000C0u);
 238:Generated_Source\PSoC4/cyfitter_cfg.c **** 
 239:Generated_Source\PSoC4/cyfitter_cfg.c **** 	/* CYDEV_PERI_PCLK_CTL20 Starting address: CYDEV_PERI_PCLK_CTL20 */
 240:Generated_Source\PSoC4/cyfitter_cfg.c **** 	CY_SET_REG32((void *)(CYREG_PERI_PCLK_CTL20), 0x00000041u);
 241:Generated_Source\PSoC4/cyfitter_cfg.c **** 
 242:Generated_Source\PSoC4/cyfitter_cfg.c **** 	/* CYDEV_PERI_PCLK_CTL18 Starting address: CYDEV_PERI_PCLK_CTL18 */
 243:Generated_Source\PSoC4/cyfitter_cfg.c **** 	CY_SET_REG32((void *)(CYREG_PERI_PCLK_CTL18), 0x00000040u);
 244:Generated_Source\PSoC4/cyfitter_cfg.c **** 
 245:Generated_Source\PSoC4/cyfitter_cfg.c **** 	(void)CyIntSetVector(8u, &CySysWdtIsr);
 246:Generated_Source\PSoC4/cyfitter_cfg.c **** 	CyIntEnable(8u);
 247:Generated_Source\PSoC4/cyfitter_cfg.c **** 	CY_SET_REG32((void *)(CYREG_WDT_CONFIG), 0x00000000u);
 248:Generated_Source\PSoC4/cyfitter_cfg.c **** }
 249:Generated_Source\PSoC4/cyfitter_cfg.c **** 
 250:Generated_Source\PSoC4/cyfitter_cfg.c **** 
 251:Generated_Source\PSoC4/cyfitter_cfg.c **** /* Analog API Functions */
 252:Generated_Source\PSoC4/cyfitter_cfg.c **** 
 253:Generated_Source\PSoC4/cyfitter_cfg.c **** 
 254:Generated_Source\PSoC4/cyfitter_cfg.c **** /*******************************************************************************
 255:Generated_Source\PSoC4/cyfitter_cfg.c **** * Function Name: AnalogSetDefault
 256:Generated_Source\PSoC4/cyfitter_cfg.c **** ********************************************************************************
 257:Generated_Source\PSoC4/cyfitter_cfg.c **** *
 258:Generated_Source\PSoC4/cyfitter_cfg.c **** * Summary:
 259:Generated_Source\PSoC4/cyfitter_cfg.c **** *  Sets up the analog portions of the chip to default values based on chip
 260:Generated_Source\PSoC4/cyfitter_cfg.c **** *  configuration options from the project.
 261:Generated_Source\PSoC4/cyfitter_cfg.c **** *
 262:Generated_Source\PSoC4/cyfitter_cfg.c **** * Parameters:
 263:Generated_Source\PSoC4/cyfitter_cfg.c **** *  void
 264:Generated_Source\PSoC4/cyfitter_cfg.c **** *
 265:Generated_Source\PSoC4/cyfitter_cfg.c **** * Return:
 266:Generated_Source\PSoC4/cyfitter_cfg.c **** *  void
 267:Generated_Source\PSoC4/cyfitter_cfg.c **** *
 268:Generated_Source\PSoC4/cyfitter_cfg.c **** *******************************************************************************/
 269:Generated_Source\PSoC4/cyfitter_cfg.c **** static void AnalogSetDefault(void);
 270:Generated_Source\PSoC4/cyfitter_cfg.c **** static void AnalogSetDefault(void)
 271:Generated_Source\PSoC4/cyfitter_cfg.c **** {
 104              		.loc 1 271 0
 105              		.cfi_startproc
 106              		@ args = 0, pretend = 0, frame = 0
 107              		@ frame_needed = 0, uses_anonymous_args = 0
 108              		@ link register save eliminated.
 272:Generated_Source\PSoC4/cyfitter_cfg.c **** 	CY_SET_XTND_REG32((void CYFAR *)CYREG_CTBM0_DFT_CTRL, 0x00000003u);
 109              		.loc 1 272 0
 110 0000 0323     		movs	r3, #3
 111 0002 044A     		ldr	r2, .L7
 112 0004 1360     		str	r3, [r2]
 273:Generated_Source\PSoC4/cyfitter_cfg.c **** 	CY_SET_XTND_REG32((void CYFAR *)CYREG_CTBM1_DFT_CTRL, 0x00000003u);
 113              		.loc 1 273 0
 114 0006 044A     		ldr	r2, .L7+4
 115 0008 1360     		str	r3, [r2]
 274:Generated_Source\PSoC4/cyfitter_cfg.c **** 	CY_SET_XTND_REG32((void CYFAR *)CYREG_PASS_DSAB_DSAB_CTRL, 0x00000000u);
 116              		.loc 1 274 0
 117 000a 0022     		movs	r2, #0
 118 000c 034B     		ldr	r3, .L7+8
 119 000e 1A60     		str	r2, [r3]
 275:Generated_Source\PSoC4/cyfitter_cfg.c **** }
 120              		.loc 1 275 0
 121              		@ sp needed
ARM GAS  C:\Users\austc\AppData\Local\Temp\cci5Td7B.s 			page 8


 122 0010 7047     		bx	lr
 123              	.L8:
 124 0012 C046     		.align	2
 125              	.L7:
 126 0014 30003040 		.word	1076887600
 127 0018 30003140 		.word	1076953136
 128 001c 000E3F40 		.word	1077874176
 129              		.cfi_endproc
 130              	.LFE39:
 131              		.size	AnalogSetDefault, .-AnalogSetDefault
 132              		.section	.text.CYMEMZERO,"ax",%progbits
 133              		.align	2
 134              		.code	16
 135              		.thumb_func
 136              		.type	CYMEMZERO, %function
 137              	CYMEMZERO:
 138              	.LFB34:
  77:Generated_Source\PSoC4/cyfitter_cfg.c **** 	(void)memset(s, 0, n);
 139              		.loc 1 77 0
 140              		.cfi_startproc
 141              		@ args = 0, pretend = 0, frame = 0
 142              		@ frame_needed = 0, uses_anonymous_args = 0
 143              	.LVL12:
 144 0000 10B5     		push	{r4, lr}
 145              		.cfi_def_cfa_offset 8
 146              		.cfi_offset 4, -8
 147              		.cfi_offset 14, -4
 148 0002 0A00     		movs	r2, r1
  78:Generated_Source\PSoC4/cyfitter_cfg.c **** }
 149              		.loc 1 78 0
 150 0004 0021     		movs	r1, #0
 151              	.LVL13:
 152 0006 FFF7FEFF 		bl	memset
 153              	.LVL14:
  79:Generated_Source\PSoC4/cyfitter_cfg.c **** CY_CFG_UNUSED
 154              		.loc 1 79 0
 155              		@ sp needed
 156 000a 10BD     		pop	{r4, pc}
 157              		.cfi_endproc
 158              	.LFE34:
 159              		.size	CYMEMZERO, .-CYMEMZERO
 160              		.section	.psocinit,"ax",%progbits
 161              		.align	2
 162              		.code	16
 163              		.thumb_func
 164              		.type	ClockSetup, %function
 165              	ClockSetup:
 166              	.LFB38:
 212:Generated_Source\PSoC4/cyfitter_cfg.c **** 
 167              		.loc 1 212 0
 168              		.cfi_startproc
 169              		@ args = 0, pretend = 0, frame = 0
 170              		@ frame_needed = 0, uses_anonymous_args = 0
 171 0000 10B5     		push	{r4, lr}
 172              		.cfi_def_cfa_offset 8
 173              		.cfi_offset 4, -8
 174              		.cfi_offset 14, -4
ARM GAS  C:\Users\austc\AppData\Local\Temp\cci5Td7B.s 			page 9


 215:Generated_Source\PSoC4/cyfitter_cfg.c **** 	/* Setup and trim IMO based on desired frequency. */
 175              		.loc 1 215 0
 176 0002 1222     		movs	r2, #18
 177 0004 1A4B     		ldr	r3, .L11
 178 0006 1A60     		str	r2, [r3]
 217:Generated_Source\PSoC4/cyfitter_cfg.c **** 	/* CYDEV_CLK_ILO_CONFIG Starting address: CYDEV_CLK_ILO_CONFIG */
 179              		.loc 1 217 0
 180 0008 3020     		movs	r0, #48
 181 000a FFF7FEFF 		bl	CySysClkWriteImoFreq
 182              	.LVL15:
 219:Generated_Source\PSoC4/cyfitter_cfg.c **** 
 183              		.loc 1 219 0
 184 000e 194A     		ldr	r2, .L11+4
 185 0010 194B     		ldr	r3, .L11+8
 186 0012 1A60     		str	r2, [r3]
 223:Generated_Source\PSoC4/cyfitter_cfg.c **** 	CY_SET_REG32((void *)CYREG_PERI_DIV_CMD, 0x8000FFC0u);
 187              		.loc 1 223 0
 188 0014 194A     		ldr	r2, .L11+12
 189 0016 1A4B     		ldr	r3, .L11+16
 190 0018 1A60     		str	r2, [r3]
 224:Generated_Source\PSoC4/cyfitter_cfg.c **** 	CY_SET_REG32((void *)CYREG_PERI_DIV_16_CTL1, 0x00BB7F00u);
 191              		.loc 1 224 0
 192 001a 1A4B     		ldr	r3, .L11+20
 193 001c 1A4A     		ldr	r2, .L11+24
 194 001e 1A60     		str	r2, [r3]
 225:Generated_Source\PSoC4/cyfitter_cfg.c **** 	CY_SET_REG32((void *)CYREG_PERI_DIV_CMD, 0x8000FF41u);
 195              		.loc 1 225 0
 196 0020 1A49     		ldr	r1, .L11+28
 197 0022 1B4A     		ldr	r2, .L11+32
 198 0024 1160     		str	r1, [r2]
 226:Generated_Source\PSoC4/cyfitter_cfg.c **** 	CY_SET_REG32((void *)CYREG_PERI_DIV_16_CTL0, 0x00000100u);
 199              		.loc 1 226 0
 200 0026 1B4A     		ldr	r2, .L11+36
 201 0028 1A60     		str	r2, [r3]
 227:Generated_Source\PSoC4/cyfitter_cfg.c **** 	CY_SET_REG32((void *)CYREG_PERI_DIV_CMD, 0x8000FF40u);
 202              		.loc 1 227 0
 203 002a 8021     		movs	r1, #128
 204 002c 4900     		lsls	r1, r1, #1
 205 002e 1A4A     		ldr	r2, .L11+40
 206 0030 1160     		str	r1, [r2]
 228:Generated_Source\PSoC4/cyfitter_cfg.c **** 
 207              		.loc 1 228 0
 208 0032 1A4A     		ldr	r2, .L11+44
 209 0034 1A60     		str	r2, [r3]
 231:Generated_Source\PSoC4/cyfitter_cfg.c **** 
 210              		.loc 1 231 0
 211 0036 8022     		movs	r2, #128
 212 0038 1206     		lsls	r2, r2, #24
 213 003a 194B     		ldr	r3, .L11+48
 214 003c 1A60     		str	r2, [r3]
 234:Generated_Source\PSoC4/cyfitter_cfg.c **** 
 215              		.loc 1 234 0
 216 003e 8022     		movs	r2, #128
 217 0040 D202     		lsls	r2, r2, #11
 218 0042 184B     		ldr	r3, .L11+52
 219 0044 1A60     		str	r2, [r3]
 237:Generated_Source\PSoC4/cyfitter_cfg.c **** 
ARM GAS  C:\Users\austc\AppData\Local\Temp\cci5Td7B.s 			page 10


 220              		.loc 1 237 0
 221 0046 C022     		movs	r2, #192
 222 0048 174B     		ldr	r3, .L11+56
 223 004a 1A60     		str	r2, [r3]
 240:Generated_Source\PSoC4/cyfitter_cfg.c **** 
 224              		.loc 1 240 0
 225 004c 7F3A     		subs	r2, r2, #127
 226 004e 174B     		ldr	r3, .L11+60
 227 0050 1A60     		str	r2, [r3]
 243:Generated_Source\PSoC4/cyfitter_cfg.c **** 
 228              		.loc 1 243 0
 229 0052 013A     		subs	r2, r2, #1
 230 0054 164B     		ldr	r3, .L11+64
 231 0056 1A60     		str	r2, [r3]
 245:Generated_Source\PSoC4/cyfitter_cfg.c **** 	CyIntEnable(8u);
 232              		.loc 1 245 0
 233 0058 1649     		ldr	r1, .L11+68
 234 005a 0820     		movs	r0, #8
 235 005c FFF7FEFF 		bl	CyIntSetVector
 236              	.LVL16:
 246:Generated_Source\PSoC4/cyfitter_cfg.c **** 	CY_SET_REG32((void *)(CYREG_WDT_CONFIG), 0x00000000u);
 237              		.loc 1 246 0
 238 0060 0820     		movs	r0, #8
 239 0062 FFF7FEFF 		bl	CyIntEnable
 240              	.LVL17:
 247:Generated_Source\PSoC4/cyfitter_cfg.c **** }
 241              		.loc 1 247 0
 242 0066 0022     		movs	r2, #0
 243 0068 134B     		ldr	r3, .L11+72
 244 006a 1A60     		str	r2, [r3]
 248:Generated_Source\PSoC4/cyfitter_cfg.c **** 
 245              		.loc 1 248 0
 246              		@ sp needed
 247 006c 10BD     		pop	{r4, pc}
 248              	.L12:
 249 006e C046     		.align	2
 250              	.L11:
 251 0070 30001040 		.word	1074790448
 252 0074 06000080 		.word	-2147483642
 253 0078 04010B40 		.word	1074462980
 254 007c 00FF5207 		.word	122879744
 255 0080 00050140 		.word	1073808640
 256 0084 00000140 		.word	1073807360
 257 0088 C0FF0080 		.word	-2147418176
 258 008c 007FBB00 		.word	12287744
 259 0090 04030140 		.word	1073808132
 260 0094 41FF0080 		.word	-2147418303
 261 0098 00030140 		.word	1073808128
 262 009c 40FF0080 		.word	-2147418304
 263 00a0 08010B40 		.word	1074462984
 264 00a4 00010B40 		.word	1074462976
 265 00a8 58010140 		.word	1073807704
 266 00ac 50010140 		.word	1073807696
 267 00b0 48010140 		.word	1073807688
 268 00b4 00000000 		.word	CySysWdtIsr
 269 00b8 0C020B40 		.word	1074463244
 270              		.cfi_endproc
ARM GAS  C:\Users\austc\AppData\Local\Temp\cci5Td7B.s 			page 11


 271              	.LFE38:
 272              		.size	ClockSetup, .-ClockSetup
 273              		.align	2
 274              		.global	cyfitter_cfg
 275              		.code	16
 276              		.thumb_func
 277              		.type	cyfitter_cfg, %function
 278              	cyfitter_cfg:
 279              	.LFB40:
 276:Generated_Source\PSoC4/cyfitter_cfg.c **** 
 277:Generated_Source\PSoC4/cyfitter_cfg.c **** 
 278:Generated_Source\PSoC4/cyfitter_cfg.c **** 
 279:Generated_Source\PSoC4/cyfitter_cfg.c **** 
 280:Generated_Source\PSoC4/cyfitter_cfg.c **** /*******************************************************************************
 281:Generated_Source\PSoC4/cyfitter_cfg.c **** * Function Name: cyfitter_cfg
 282:Generated_Source\PSoC4/cyfitter_cfg.c **** ********************************************************************************
 283:Generated_Source\PSoC4/cyfitter_cfg.c **** * Summary:
 284:Generated_Source\PSoC4/cyfitter_cfg.c **** *  This function is called by the start-up code for the selected device. It
 285:Generated_Source\PSoC4/cyfitter_cfg.c **** *  performs all of the necessary device configuration based on the design
 286:Generated_Source\PSoC4/cyfitter_cfg.c **** *  settings.  This includes settings from the Design Wide Resources (DWR) such
 287:Generated_Source\PSoC4/cyfitter_cfg.c **** *  as Clocks and Pins as well as any component configuration that is necessary.
 288:Generated_Source\PSoC4/cyfitter_cfg.c **** *
 289:Generated_Source\PSoC4/cyfitter_cfg.c **** * Parameters:
 290:Generated_Source\PSoC4/cyfitter_cfg.c **** *   void
 291:Generated_Source\PSoC4/cyfitter_cfg.c **** *
 292:Generated_Source\PSoC4/cyfitter_cfg.c **** * Return:
 293:Generated_Source\PSoC4/cyfitter_cfg.c **** *   void
 294:Generated_Source\PSoC4/cyfitter_cfg.c **** *
 295:Generated_Source\PSoC4/cyfitter_cfg.c **** *******************************************************************************/
 296:Generated_Source\PSoC4/cyfitter_cfg.c **** CY_CFG_SECTION
 297:Generated_Source\PSoC4/cyfitter_cfg.c **** void cyfitter_cfg(void)
 298:Generated_Source\PSoC4/cyfitter_cfg.c **** {
 280              		.loc 1 298 0
 281              		.cfi_startproc
 282              		@ args = 0, pretend = 0, frame = 0
 283              		@ frame_needed = 0, uses_anonymous_args = 0
 284 00bc 10B5     		push	{r4, lr}
 285              		.cfi_def_cfa_offset 8
 286              		.cfi_offset 4, -8
 287              		.cfi_offset 14, -4
 299:Generated_Source\PSoC4/cyfitter_cfg.c **** 	/* Disable interrupts by default. Let user enable if/when they want. */
 300:Generated_Source\PSoC4/cyfitter_cfg.c **** 	CyGlobalIntDisable;
 288              		.loc 1 300 0
 289              		.syntax divided
 290              	@ 300 "Generated_Source\PSoC4\cyfitter_cfg.c" 1
 291 00be 72B6     		CPSID   i
 292              	@ 0 "" 2
 301:Generated_Source\PSoC4/cyfitter_cfg.c **** 
 302:Generated_Source\PSoC4/cyfitter_cfg.c **** 	/* Enable the clock in the interrupt controller for the routed interrupts */
 303:Generated_Source\PSoC4/cyfitter_cfg.c **** 	CY_SET_REG8((void *)CYREG_UDB_UDB_INT_CLK_CTL, 0x01u);
 293              		.loc 1 303 0
 294              		.thumb
 295              		.syntax unified
 296 00c0 0122     		movs	r2, #1
 297 00c2 304B     		ldr	r3, .L16
 298 00c4 1A70     		strb	r2, [r3]
 299              	.LVL18:
ARM GAS  C:\Users\austc\AppData\Local\Temp\cci5Td7B.s 			page 12


 300              	.LBB3:
 304:Generated_Source\PSoC4/cyfitter_cfg.c **** 	{
 305:Generated_Source\PSoC4/cyfitter_cfg.c **** 		static const uint32 CYCODE cy_cfg_addr_table[] = {
 306:Generated_Source\PSoC4/cyfitter_cfg.c **** 			0x400F0002u, /* Base address: 0x400F0000 Count: 2 */
 307:Generated_Source\PSoC4/cyfitter_cfg.c **** 			0x400F303Bu, /* Base address: 0x400F3000 Count: 59 */
 308:Generated_Source\PSoC4/cyfitter_cfg.c **** 			0x400F312Cu, /* Base address: 0x400F3100 Count: 44 */
 309:Generated_Source\PSoC4/cyfitter_cfg.c **** 			0x400F325Eu, /* Base address: 0x400F3200 Count: 94 */
 310:Generated_Source\PSoC4/cyfitter_cfg.c **** 			0x400F333Cu, /* Base address: 0x400F3300 Count: 60 */
 311:Generated_Source\PSoC4/cyfitter_cfg.c **** 			0x400F3444u, /* Base address: 0x400F3400 Count: 68 */
 312:Generated_Source\PSoC4/cyfitter_cfg.c **** 			0x400F353Fu, /* Base address: 0x400F3500 Count: 63 */
 313:Generated_Source\PSoC4/cyfitter_cfg.c **** 			0x400F3703u, /* Base address: 0x400F3700 Count: 3 */
 314:Generated_Source\PSoC4/cyfitter_cfg.c **** 			0x400F4007u, /* Base address: 0x400F4000 Count: 7 */
 315:Generated_Source\PSoC4/cyfitter_cfg.c **** 			0x400F4107u, /* Base address: 0x400F4100 Count: 7 */
 316:Generated_Source\PSoC4/cyfitter_cfg.c **** 			0x400F4203u, /* Base address: 0x400F4200 Count: 3 */
 317:Generated_Source\PSoC4/cyfitter_cfg.c **** 			0x400F4301u, /* Base address: 0x400F4300 Count: 1 */
 318:Generated_Source\PSoC4/cyfitter_cfg.c **** 			0x400F4504u, /* Base address: 0x400F4500 Count: 4 */
 319:Generated_Source\PSoC4/cyfitter_cfg.c **** 			0x400F6003u, /* Base address: 0x400F6000 Count: 3 */
 320:Generated_Source\PSoC4/cyfitter_cfg.c **** 		};
 321:Generated_Source\PSoC4/cyfitter_cfg.c **** 
 322:Generated_Source\PSoC4/cyfitter_cfg.c **** 		static const cy_cfg_addrvalue_t CYCODE cy_cfg_data_table[] = {
 323:Generated_Source\PSoC4/cyfitter_cfg.c **** 			{0x80u, 0x6Fu},
 324:Generated_Source\PSoC4/cyfitter_cfg.c **** 			{0x85u, 0x0Fu},
 325:Generated_Source\PSoC4/cyfitter_cfg.c **** 			{0x01u, 0x0Fu},
 326:Generated_Source\PSoC4/cyfitter_cfg.c **** 			{0x04u, 0x01u},
 327:Generated_Source\PSoC4/cyfitter_cfg.c **** 			{0x09u, 0x0Au},
 328:Generated_Source\PSoC4/cyfitter_cfg.c **** 			{0x0Bu, 0x05u},
 329:Generated_Source\PSoC4/cyfitter_cfg.c **** 			{0x0Fu, 0x10u},
 330:Generated_Source\PSoC4/cyfitter_cfg.c **** 			{0x15u, 0x03u},
 331:Generated_Source\PSoC4/cyfitter_cfg.c **** 			{0x17u, 0x0Cu},
 332:Generated_Source\PSoC4/cyfitter_cfg.c **** 			{0x18u, 0x02u},
 333:Generated_Source\PSoC4/cyfitter_cfg.c **** 			{0x19u, 0x07u},
 334:Generated_Source\PSoC4/cyfitter_cfg.c **** 			{0x1Du, 0x05u},
 335:Generated_Source\PSoC4/cyfitter_cfg.c **** 			{0x1Fu, 0x0Au},
 336:Generated_Source\PSoC4/cyfitter_cfg.c **** 			{0x21u, 0x0Cu},
 337:Generated_Source\PSoC4/cyfitter_cfg.c **** 			{0x22u, 0x01u},
 338:Generated_Source\PSoC4/cyfitter_cfg.c **** 			{0x23u, 0x03u},
 339:Generated_Source\PSoC4/cyfitter_cfg.c **** 			{0x2Au, 0x06u},
 340:Generated_Source\PSoC4/cyfitter_cfg.c **** 			{0x30u, 0x02u},
 341:Generated_Source\PSoC4/cyfitter_cfg.c **** 			{0x31u, 0x0Fu},
 342:Generated_Source\PSoC4/cyfitter_cfg.c **** 			{0x34u, 0x04u},
 343:Generated_Source\PSoC4/cyfitter_cfg.c **** 			{0x35u, 0x10u},
 344:Generated_Source\PSoC4/cyfitter_cfg.c **** 			{0x36u, 0x01u},
 345:Generated_Source\PSoC4/cyfitter_cfg.c **** 			{0x3Eu, 0x41u},
 346:Generated_Source\PSoC4/cyfitter_cfg.c **** 			{0x54u, 0x0Fu},
 347:Generated_Source\PSoC4/cyfitter_cfg.c **** 			{0x58u, 0x04u},
 348:Generated_Source\PSoC4/cyfitter_cfg.c **** 			{0x59u, 0x04u},
 349:Generated_Source\PSoC4/cyfitter_cfg.c **** 			{0x5Bu, 0x04u},
 350:Generated_Source\PSoC4/cyfitter_cfg.c **** 			{0x5Cu, 0x11u},
 351:Generated_Source\PSoC4/cyfitter_cfg.c **** 			{0x5Du, 0x10u},
 352:Generated_Source\PSoC4/cyfitter_cfg.c **** 			{0x5Fu, 0x05u},
 353:Generated_Source\PSoC4/cyfitter_cfg.c **** 			{0x80u, 0x30u},
 354:Generated_Source\PSoC4/cyfitter_cfg.c **** 			{0x82u, 0xC9u},
 355:Generated_Source\PSoC4/cyfitter_cfg.c **** 			{0x83u, 0x08u},
 356:Generated_Source\PSoC4/cyfitter_cfg.c **** 			{0x85u, 0x0Eu},
 357:Generated_Source\PSoC4/cyfitter_cfg.c **** 			{0x88u, 0x9Eu},
 358:Generated_Source\PSoC4/cyfitter_cfg.c **** 			{0x89u, 0x02u},
 359:Generated_Source\PSoC4/cyfitter_cfg.c **** 			{0x8Au, 0x60u},
ARM GAS  C:\Users\austc\AppData\Local\Temp\cci5Td7B.s 			page 13


 360:Generated_Source\PSoC4/cyfitter_cfg.c **** 			{0x8Bu, 0x04u},
 361:Generated_Source\PSoC4/cyfitter_cfg.c **** 			{0x8Du, 0x0Eu},
 362:Generated_Source\PSoC4/cyfitter_cfg.c **** 			{0x90u, 0xFDu},
 363:Generated_Source\PSoC4/cyfitter_cfg.c **** 			{0x92u, 0x02u},
 364:Generated_Source\PSoC4/cyfitter_cfg.c **** 			{0x94u, 0x94u},
 365:Generated_Source\PSoC4/cyfitter_cfg.c **** 			{0x95u, 0x02u},
 366:Generated_Source\PSoC4/cyfitter_cfg.c **** 			{0x96u, 0x60u},
 367:Generated_Source\PSoC4/cyfitter_cfg.c **** 			{0x97u, 0x04u},
 368:Generated_Source\PSoC4/cyfitter_cfg.c **** 			{0x98u, 0x73u},
 369:Generated_Source\PSoC4/cyfitter_cfg.c **** 			{0x9Bu, 0x0Eu},
 370:Generated_Source\PSoC4/cyfitter_cfg.c **** 			{0x9Cu, 0xCFu},
 371:Generated_Source\PSoC4/cyfitter_cfg.c **** 			{0x9Du, 0x08u},
 372:Generated_Source\PSoC4/cyfitter_cfg.c **** 			{0x9Eu, 0x30u},
 373:Generated_Source\PSoC4/cyfitter_cfg.c **** 			{0xA7u, 0x10u},
 374:Generated_Source\PSoC4/cyfitter_cfg.c **** 			{0xAAu, 0x0Fu},
 375:Generated_Source\PSoC4/cyfitter_cfg.c **** 			{0xABu, 0x01u},
 376:Generated_Source\PSoC4/cyfitter_cfg.c **** 			{0xB3u, 0x1Eu},
 377:Generated_Source\PSoC4/cyfitter_cfg.c **** 			{0xB4u, 0xFFu},
 378:Generated_Source\PSoC4/cyfitter_cfg.c **** 			{0xB7u, 0x01u},
 379:Generated_Source\PSoC4/cyfitter_cfg.c **** 			{0xBEu, 0x10u},
 380:Generated_Source\PSoC4/cyfitter_cfg.c **** 			{0xD8u, 0x04u},
 381:Generated_Source\PSoC4/cyfitter_cfg.c **** 			{0xD9u, 0x04u},
 382:Generated_Source\PSoC4/cyfitter_cfg.c **** 			{0xDCu, 0x10u},
 383:Generated_Source\PSoC4/cyfitter_cfg.c **** 			{0xDFu, 0x01u},
 384:Generated_Source\PSoC4/cyfitter_cfg.c **** 			{0x00u, 0x04u},
 385:Generated_Source\PSoC4/cyfitter_cfg.c **** 			{0x04u, 0x20u},
 386:Generated_Source\PSoC4/cyfitter_cfg.c **** 			{0x07u, 0x40u},
 387:Generated_Source\PSoC4/cyfitter_cfg.c **** 			{0x0Au, 0x08u},
 388:Generated_Source\PSoC4/cyfitter_cfg.c **** 			{0x0Cu, 0x54u},
 389:Generated_Source\PSoC4/cyfitter_cfg.c **** 			{0x0Eu, 0x24u},
 390:Generated_Source\PSoC4/cyfitter_cfg.c **** 			{0x0Fu, 0x41u},
 391:Generated_Source\PSoC4/cyfitter_cfg.c **** 			{0x10u, 0x88u},
 392:Generated_Source\PSoC4/cyfitter_cfg.c **** 			{0x17u, 0x10u},
 393:Generated_Source\PSoC4/cyfitter_cfg.c **** 			{0x19u, 0x81u},
 394:Generated_Source\PSoC4/cyfitter_cfg.c **** 			{0x1Au, 0x08u},
 395:Generated_Source\PSoC4/cyfitter_cfg.c **** 			{0x1Fu, 0x20u},
 396:Generated_Source\PSoC4/cyfitter_cfg.c **** 			{0x20u, 0x04u},
 397:Generated_Source\PSoC4/cyfitter_cfg.c **** 			{0x21u, 0x01u},
 398:Generated_Source\PSoC4/cyfitter_cfg.c **** 			{0x23u, 0x40u},
 399:Generated_Source\PSoC4/cyfitter_cfg.c **** 			{0x25u, 0x04u},
 400:Generated_Source\PSoC4/cyfitter_cfg.c **** 			{0x27u, 0x11u},
 401:Generated_Source\PSoC4/cyfitter_cfg.c **** 			{0x28u, 0x40u},
 402:Generated_Source\PSoC4/cyfitter_cfg.c **** 			{0x2Fu, 0x24u},
 403:Generated_Source\PSoC4/cyfitter_cfg.c **** 			{0x30u, 0x14u},
 404:Generated_Source\PSoC4/cyfitter_cfg.c **** 			{0x33u, 0x40u},
 405:Generated_Source\PSoC4/cyfitter_cfg.c **** 			{0x34u, 0x04u},
 406:Generated_Source\PSoC4/cyfitter_cfg.c **** 			{0x37u, 0x50u},
 407:Generated_Source\PSoC4/cyfitter_cfg.c **** 			{0x38u, 0xA0u},
 408:Generated_Source\PSoC4/cyfitter_cfg.c **** 			{0x39u, 0x02u},
 409:Generated_Source\PSoC4/cyfitter_cfg.c **** 			{0x3Bu, 0x10u},
 410:Generated_Source\PSoC4/cyfitter_cfg.c **** 			{0x3Eu, 0x04u},
 411:Generated_Source\PSoC4/cyfitter_cfg.c **** 			{0x3Fu, 0x51u},
 412:Generated_Source\PSoC4/cyfitter_cfg.c **** 			{0x48u, 0x08u},
 413:Generated_Source\PSoC4/cyfitter_cfg.c **** 			{0x49u, 0x10u},
 414:Generated_Source\PSoC4/cyfitter_cfg.c **** 			{0x59u, 0x99u},
 415:Generated_Source\PSoC4/cyfitter_cfg.c **** 			{0x61u, 0x24u},
 416:Generated_Source\PSoC4/cyfitter_cfg.c **** 			{0x78u, 0x10u},
ARM GAS  C:\Users\austc\AppData\Local\Temp\cci5Td7B.s 			page 14


 417:Generated_Source\PSoC4/cyfitter_cfg.c **** 			{0x8Au, 0x20u},
 418:Generated_Source\PSoC4/cyfitter_cfg.c **** 			{0xC0u, 0x54u},
 419:Generated_Source\PSoC4/cyfitter_cfg.c **** 			{0xC2u, 0xF2u},
 420:Generated_Source\PSoC4/cyfitter_cfg.c **** 			{0xC4u, 0x4Au},
 421:Generated_Source\PSoC4/cyfitter_cfg.c **** 			{0xCAu, 0x61u},
 422:Generated_Source\PSoC4/cyfitter_cfg.c **** 			{0xCCu, 0x7Eu},
 423:Generated_Source\PSoC4/cyfitter_cfg.c **** 			{0xCEu, 0xFDu},
 424:Generated_Source\PSoC4/cyfitter_cfg.c **** 			{0xD6u, 0x0Fu},
 425:Generated_Source\PSoC4/cyfitter_cfg.c **** 			{0xD8u, 0x06u},
 426:Generated_Source\PSoC4/cyfitter_cfg.c **** 			{0xDEu, 0x04u},
 427:Generated_Source\PSoC4/cyfitter_cfg.c **** 			{0xE4u, 0x80u},
 428:Generated_Source\PSoC4/cyfitter_cfg.c **** 			{0x01u, 0x1Cu},
 429:Generated_Source\PSoC4/cyfitter_cfg.c **** 			{0x05u, 0x0Cu},
 430:Generated_Source\PSoC4/cyfitter_cfg.c **** 			{0x06u, 0x08u},
 431:Generated_Source\PSoC4/cyfitter_cfg.c **** 			{0x08u, 0x06u},
 432:Generated_Source\PSoC4/cyfitter_cfg.c **** 			{0x0Bu, 0x07u},
 433:Generated_Source\PSoC4/cyfitter_cfg.c **** 			{0x0Du, 0x18u},
 434:Generated_Source\PSoC4/cyfitter_cfg.c **** 			{0x0Fu, 0x04u},
 435:Generated_Source\PSoC4/cyfitter_cfg.c **** 			{0x10u, 0x05u},
 436:Generated_Source\PSoC4/cyfitter_cfg.c **** 			{0x11u, 0x01u},
 437:Generated_Source\PSoC4/cyfitter_cfg.c **** 			{0x15u, 0x14u},
 438:Generated_Source\PSoC4/cyfitter_cfg.c **** 			{0x17u, 0x08u},
 439:Generated_Source\PSoC4/cyfitter_cfg.c **** 			{0x18u, 0x03u},
 440:Generated_Source\PSoC4/cyfitter_cfg.c **** 			{0x19u, 0x18u},
 441:Generated_Source\PSoC4/cyfitter_cfg.c **** 			{0x1Cu, 0x06u},
 442:Generated_Source\PSoC4/cyfitter_cfg.c **** 			{0x1Du, 0x08u},
 443:Generated_Source\PSoC4/cyfitter_cfg.c **** 			{0x1Fu, 0x10u},
 444:Generated_Source\PSoC4/cyfitter_cfg.c **** 			{0x22u, 0x10u},
 445:Generated_Source\PSoC4/cyfitter_cfg.c **** 			{0x2Fu, 0x01u},
 446:Generated_Source\PSoC4/cyfitter_cfg.c **** 			{0x32u, 0x10u},
 447:Generated_Source\PSoC4/cyfitter_cfg.c **** 			{0x33u, 0x01u},
 448:Generated_Source\PSoC4/cyfitter_cfg.c **** 			{0x34u, 0x07u},
 449:Generated_Source\PSoC4/cyfitter_cfg.c **** 			{0x35u, 0x1Cu},
 450:Generated_Source\PSoC4/cyfitter_cfg.c **** 			{0x36u, 0x08u},
 451:Generated_Source\PSoC4/cyfitter_cfg.c **** 			{0x37u, 0x02u},
 452:Generated_Source\PSoC4/cyfitter_cfg.c **** 			{0x38u, 0x20u},
 453:Generated_Source\PSoC4/cyfitter_cfg.c **** 			{0x3Fu, 0x04u},
 454:Generated_Source\PSoC4/cyfitter_cfg.c **** 			{0x40u, 0x26u},
 455:Generated_Source\PSoC4/cyfitter_cfg.c **** 			{0x41u, 0x03u},
 456:Generated_Source\PSoC4/cyfitter_cfg.c **** 			{0x49u, 0xFFu},
 457:Generated_Source\PSoC4/cyfitter_cfg.c **** 			{0x4Au, 0xFFu},
 458:Generated_Source\PSoC4/cyfitter_cfg.c **** 			{0x4Bu, 0xFFu},
 459:Generated_Source\PSoC4/cyfitter_cfg.c **** 			{0x4Du, 0xA0u},
 460:Generated_Source\PSoC4/cyfitter_cfg.c **** 			{0x4Fu, 0x01u},
 461:Generated_Source\PSoC4/cyfitter_cfg.c **** 			{0x50u, 0x18u},
 462:Generated_Source\PSoC4/cyfitter_cfg.c **** 			{0x52u, 0x80u},
 463:Generated_Source\PSoC4/cyfitter_cfg.c **** 			{0x58u, 0x04u},
 464:Generated_Source\PSoC4/cyfitter_cfg.c **** 			{0x59u, 0x04u},
 465:Generated_Source\PSoC4/cyfitter_cfg.c **** 			{0x5Au, 0x04u},
 466:Generated_Source\PSoC4/cyfitter_cfg.c **** 			{0x5Bu, 0x04u},
 467:Generated_Source\PSoC4/cyfitter_cfg.c **** 			{0x5Cu, 0x11u},
 468:Generated_Source\PSoC4/cyfitter_cfg.c **** 			{0x5Du, 0x11u},
 469:Generated_Source\PSoC4/cyfitter_cfg.c **** 			{0x5Fu, 0x01u},
 470:Generated_Source\PSoC4/cyfitter_cfg.c **** 			{0x60u, 0x40u},
 471:Generated_Source\PSoC4/cyfitter_cfg.c **** 			{0x62u, 0x80u},
 472:Generated_Source\PSoC4/cyfitter_cfg.c **** 			{0x64u, 0x40u},
 473:Generated_Source\PSoC4/cyfitter_cfg.c **** 			{0x65u, 0x40u},
ARM GAS  C:\Users\austc\AppData\Local\Temp\cci5Td7B.s 			page 15


 474:Generated_Source\PSoC4/cyfitter_cfg.c **** 			{0x66u, 0x80u},
 475:Generated_Source\PSoC4/cyfitter_cfg.c **** 			{0x68u, 0x40u},
 476:Generated_Source\PSoC4/cyfitter_cfg.c **** 			{0x6Au, 0x80u},
 477:Generated_Source\PSoC4/cyfitter_cfg.c **** 			{0x6Cu, 0x40u},
 478:Generated_Source\PSoC4/cyfitter_cfg.c **** 			{0x6Du, 0x20u},
 479:Generated_Source\PSoC4/cyfitter_cfg.c **** 			{0x6Eu, 0x80u},
 480:Generated_Source\PSoC4/cyfitter_cfg.c **** 			{0x98u, 0x01u},
 481:Generated_Source\PSoC4/cyfitter_cfg.c **** 			{0x9Cu, 0x08u},
 482:Generated_Source\PSoC4/cyfitter_cfg.c **** 			{0xA8u, 0x03u},
 483:Generated_Source\PSoC4/cyfitter_cfg.c **** 			{0xACu, 0x03u},
 484:Generated_Source\PSoC4/cyfitter_cfg.c **** 			{0xADu, 0x01u},
 485:Generated_Source\PSoC4/cyfitter_cfg.c **** 			{0xAEu, 0x0Cu},
 486:Generated_Source\PSoC4/cyfitter_cfg.c **** 			{0xB0u, 0x02u},
 487:Generated_Source\PSoC4/cyfitter_cfg.c **** 			{0xB2u, 0x08u},
 488:Generated_Source\PSoC4/cyfitter_cfg.c **** 			{0xB3u, 0x01u},
 489:Generated_Source\PSoC4/cyfitter_cfg.c **** 			{0xB4u, 0x01u},
 490:Generated_Source\PSoC4/cyfitter_cfg.c **** 			{0xB6u, 0x04u},
 491:Generated_Source\PSoC4/cyfitter_cfg.c **** 			{0xB8u, 0x22u},
 492:Generated_Source\PSoC4/cyfitter_cfg.c **** 			{0xBEu, 0x14u},
 493:Generated_Source\PSoC4/cyfitter_cfg.c **** 			{0xC0u, 0x26u},
 494:Generated_Source\PSoC4/cyfitter_cfg.c **** 			{0xC1u, 0x03u},
 495:Generated_Source\PSoC4/cyfitter_cfg.c **** 			{0xC5u, 0x0Eu},
 496:Generated_Source\PSoC4/cyfitter_cfg.c **** 			{0xC6u, 0xC4u},
 497:Generated_Source\PSoC4/cyfitter_cfg.c **** 			{0xC7u, 0x32u},
 498:Generated_Source\PSoC4/cyfitter_cfg.c **** 			{0xC8u, 0x3Du},
 499:Generated_Source\PSoC4/cyfitter_cfg.c **** 			{0xC9u, 0xFFu},
 500:Generated_Source\PSoC4/cyfitter_cfg.c **** 			{0xCAu, 0xFFu},
 501:Generated_Source\PSoC4/cyfitter_cfg.c **** 			{0xCBu, 0xFFu},
 502:Generated_Source\PSoC4/cyfitter_cfg.c **** 			{0xCDu, 0xAFu},
 503:Generated_Source\PSoC4/cyfitter_cfg.c **** 			{0xCEu, 0x07u},
 504:Generated_Source\PSoC4/cyfitter_cfg.c **** 			{0xCFu, 0x01u},
 505:Generated_Source\PSoC4/cyfitter_cfg.c **** 			{0xD0u, 0x18u},
 506:Generated_Source\PSoC4/cyfitter_cfg.c **** 			{0xD8u, 0x04u},
 507:Generated_Source\PSoC4/cyfitter_cfg.c **** 			{0xD9u, 0x04u},
 508:Generated_Source\PSoC4/cyfitter_cfg.c **** 			{0xDAu, 0x04u},
 509:Generated_Source\PSoC4/cyfitter_cfg.c **** 			{0xDCu, 0x31u},
 510:Generated_Source\PSoC4/cyfitter_cfg.c **** 			{0xDDu, 0x01u},
 511:Generated_Source\PSoC4/cyfitter_cfg.c **** 			{0xDFu, 0x01u},
 512:Generated_Source\PSoC4/cyfitter_cfg.c **** 			{0xE0u, 0x40u},
 513:Generated_Source\PSoC4/cyfitter_cfg.c **** 			{0xE2u, 0x80u},
 514:Generated_Source\PSoC4/cyfitter_cfg.c **** 			{0xE4u, 0x40u},
 515:Generated_Source\PSoC4/cyfitter_cfg.c **** 			{0xE5u, 0x40u},
 516:Generated_Source\PSoC4/cyfitter_cfg.c **** 			{0xE6u, 0x80u},
 517:Generated_Source\PSoC4/cyfitter_cfg.c **** 			{0xE8u, 0x40u},
 518:Generated_Source\PSoC4/cyfitter_cfg.c **** 			{0xEAu, 0x80u},
 519:Generated_Source\PSoC4/cyfitter_cfg.c **** 			{0xECu, 0x40u},
 520:Generated_Source\PSoC4/cyfitter_cfg.c **** 			{0xEDu, 0x20u},
 521:Generated_Source\PSoC4/cyfitter_cfg.c **** 			{0xEEu, 0x80u},
 522:Generated_Source\PSoC4/cyfitter_cfg.c **** 			{0x04u, 0x20u},
 523:Generated_Source\PSoC4/cyfitter_cfg.c **** 			{0x06u, 0x20u},
 524:Generated_Source\PSoC4/cyfitter_cfg.c **** 			{0x0Au, 0x05u},
 525:Generated_Source\PSoC4/cyfitter_cfg.c **** 			{0x0Eu, 0x04u},
 526:Generated_Source\PSoC4/cyfitter_cfg.c **** 			{0x0Fu, 0x41u},
 527:Generated_Source\PSoC4/cyfitter_cfg.c **** 			{0x10u, 0x0Au},
 528:Generated_Source\PSoC4/cyfitter_cfg.c **** 			{0x17u, 0x01u},
 529:Generated_Source\PSoC4/cyfitter_cfg.c **** 			{0x19u, 0x18u},
 530:Generated_Source\PSoC4/cyfitter_cfg.c **** 			{0x1Au, 0x41u},
ARM GAS  C:\Users\austc\AppData\Local\Temp\cci5Td7B.s 			page 16


 531:Generated_Source\PSoC4/cyfitter_cfg.c **** 			{0x1Bu, 0x12u},
 532:Generated_Source\PSoC4/cyfitter_cfg.c **** 			{0x1Cu, 0x02u},
 533:Generated_Source\PSoC4/cyfitter_cfg.c **** 			{0x1Du, 0x08u},
 534:Generated_Source\PSoC4/cyfitter_cfg.c **** 			{0x1Eu, 0x04u},
 535:Generated_Source\PSoC4/cyfitter_cfg.c **** 			{0x23u, 0x10u},
 536:Generated_Source\PSoC4/cyfitter_cfg.c **** 			{0x25u, 0x10u},
 537:Generated_Source\PSoC4/cyfitter_cfg.c **** 			{0x27u, 0x12u},
 538:Generated_Source\PSoC4/cyfitter_cfg.c **** 			{0x2Au, 0x40u},
 539:Generated_Source\PSoC4/cyfitter_cfg.c **** 			{0x2Eu, 0x80u},
 540:Generated_Source\PSoC4/cyfitter_cfg.c **** 			{0x36u, 0x18u},
 541:Generated_Source\PSoC4/cyfitter_cfg.c **** 			{0x37u, 0x42u},
 542:Generated_Source\PSoC4/cyfitter_cfg.c **** 			{0x3Du, 0x20u},
 543:Generated_Source\PSoC4/cyfitter_cfg.c **** 			{0x3Eu, 0x04u},
 544:Generated_Source\PSoC4/cyfitter_cfg.c **** 			{0x3Fu, 0x41u},
 545:Generated_Source\PSoC4/cyfitter_cfg.c **** 			{0x40u, 0x20u},
 546:Generated_Source\PSoC4/cyfitter_cfg.c **** 			{0x43u, 0x10u},
 547:Generated_Source\PSoC4/cyfitter_cfg.c **** 			{0x44u, 0x20u},
 548:Generated_Source\PSoC4/cyfitter_cfg.c **** 			{0x45u, 0x04u},
 549:Generated_Source\PSoC4/cyfitter_cfg.c **** 			{0x46u, 0x10u},
 550:Generated_Source\PSoC4/cyfitter_cfg.c **** 			{0x47u, 0x10u},
 551:Generated_Source\PSoC4/cyfitter_cfg.c **** 			{0x49u, 0x14u},
 552:Generated_Source\PSoC4/cyfitter_cfg.c **** 			{0x4Fu, 0x20u},
 553:Generated_Source\PSoC4/cyfitter_cfg.c **** 			{0x50u, 0xCAu},
 554:Generated_Source\PSoC4/cyfitter_cfg.c **** 			{0x51u, 0x20u},
 555:Generated_Source\PSoC4/cyfitter_cfg.c **** 			{0x76u, 0x80u},
 556:Generated_Source\PSoC4/cyfitter_cfg.c **** 			{0x89u, 0x01u},
 557:Generated_Source\PSoC4/cyfitter_cfg.c **** 			{0x8Bu, 0x10u},
 558:Generated_Source\PSoC4/cyfitter_cfg.c **** 			{0x8Eu, 0x80u},
 559:Generated_Source\PSoC4/cyfitter_cfg.c **** 			{0x90u, 0x04u},
 560:Generated_Source\PSoC4/cyfitter_cfg.c **** 			{0x93u, 0x40u},
 561:Generated_Source\PSoC4/cyfitter_cfg.c **** 			{0x94u, 0xA0u},
 562:Generated_Source\PSoC4/cyfitter_cfg.c **** 			{0x96u, 0x04u},
 563:Generated_Source\PSoC4/cyfitter_cfg.c **** 			{0x97u, 0x01u},
 564:Generated_Source\PSoC4/cyfitter_cfg.c **** 			{0x9Au, 0x20u},
 565:Generated_Source\PSoC4/cyfitter_cfg.c **** 			{0x9Bu, 0x01u},
 566:Generated_Source\PSoC4/cyfitter_cfg.c **** 			{0x9Du, 0x0Cu},
 567:Generated_Source\PSoC4/cyfitter_cfg.c **** 			{0x9Fu, 0x40u},
 568:Generated_Source\PSoC4/cyfitter_cfg.c **** 			{0xA1u, 0x04u},
 569:Generated_Source\PSoC4/cyfitter_cfg.c **** 			{0xA4u, 0x88u},
 570:Generated_Source\PSoC4/cyfitter_cfg.c **** 			{0xA5u, 0x20u},
 571:Generated_Source\PSoC4/cyfitter_cfg.c **** 			{0xA6u, 0x10u},
 572:Generated_Source\PSoC4/cyfitter_cfg.c **** 			{0xAFu, 0x04u},
 573:Generated_Source\PSoC4/cyfitter_cfg.c **** 			{0xC0u, 0x60u},
 574:Generated_Source\PSoC4/cyfitter_cfg.c **** 			{0xC2u, 0xD3u},
 575:Generated_Source\PSoC4/cyfitter_cfg.c **** 			{0xC4u, 0x13u},
 576:Generated_Source\PSoC4/cyfitter_cfg.c **** 			{0xCAu, 0x18u},
 577:Generated_Source\PSoC4/cyfitter_cfg.c **** 			{0xCCu, 0xF0u},
 578:Generated_Source\PSoC4/cyfitter_cfg.c **** 			{0xCEu, 0xF0u},
 579:Generated_Source\PSoC4/cyfitter_cfg.c **** 			{0xD0u, 0x66u},
 580:Generated_Source\PSoC4/cyfitter_cfg.c **** 			{0xD2u, 0x24u},
 581:Generated_Source\PSoC4/cyfitter_cfg.c **** 			{0xE6u, 0x80u},
 582:Generated_Source\PSoC4/cyfitter_cfg.c **** 			{0x00u, 0x01u},
 583:Generated_Source\PSoC4/cyfitter_cfg.c **** 			{0x01u, 0x0Cu},
 584:Generated_Source\PSoC4/cyfitter_cfg.c **** 			{0x03u, 0x02u},
 585:Generated_Source\PSoC4/cyfitter_cfg.c **** 			{0x04u, 0x02u},
 586:Generated_Source\PSoC4/cyfitter_cfg.c **** 			{0x05u, 0x10u},
 587:Generated_Source\PSoC4/cyfitter_cfg.c **** 			{0x0Du, 0x0Bu},
ARM GAS  C:\Users\austc\AppData\Local\Temp\cci5Td7B.s 			page 17


 588:Generated_Source\PSoC4/cyfitter_cfg.c **** 			{0x0Fu, 0x04u},
 589:Generated_Source\PSoC4/cyfitter_cfg.c **** 			{0x12u, 0x02u},
 590:Generated_Source\PSoC4/cyfitter_cfg.c **** 			{0x13u, 0x10u},
 591:Generated_Source\PSoC4/cyfitter_cfg.c **** 			{0x15u, 0x0Cu},
 592:Generated_Source\PSoC4/cyfitter_cfg.c **** 			{0x17u, 0x01u},
 593:Generated_Source\PSoC4/cyfitter_cfg.c **** 			{0x1Bu, 0x0Fu},
 594:Generated_Source\PSoC4/cyfitter_cfg.c **** 			{0x1Du, 0x08u},
 595:Generated_Source\PSoC4/cyfitter_cfg.c **** 			{0x1Fu, 0x01u},
 596:Generated_Source\PSoC4/cyfitter_cfg.c **** 			{0x25u, 0x07u},
 597:Generated_Source\PSoC4/cyfitter_cfg.c **** 			{0x26u, 0x02u},
 598:Generated_Source\PSoC4/cyfitter_cfg.c **** 			{0x29u, 0x10u},
 599:Generated_Source\PSoC4/cyfitter_cfg.c **** 			{0x30u, 0x01u},
 600:Generated_Source\PSoC4/cyfitter_cfg.c **** 			{0x33u, 0x10u},
 601:Generated_Source\PSoC4/cyfitter_cfg.c **** 			{0x36u, 0x02u},
 602:Generated_Source\PSoC4/cyfitter_cfg.c **** 			{0x37u, 0x0Fu},
 603:Generated_Source\PSoC4/cyfitter_cfg.c **** 			{0x3Eu, 0x40u},
 604:Generated_Source\PSoC4/cyfitter_cfg.c **** 			{0x3Fu, 0x04u},
 605:Generated_Source\PSoC4/cyfitter_cfg.c **** 			{0x58u, 0x04u},
 606:Generated_Source\PSoC4/cyfitter_cfg.c **** 			{0x59u, 0x04u},
 607:Generated_Source\PSoC4/cyfitter_cfg.c **** 			{0x5Bu, 0x04u},
 608:Generated_Source\PSoC4/cyfitter_cfg.c **** 			{0x5Cu, 0x13u},
 609:Generated_Source\PSoC4/cyfitter_cfg.c **** 			{0x5Fu, 0x01u},
 610:Generated_Source\PSoC4/cyfitter_cfg.c **** 			{0x81u, 0x04u},
 611:Generated_Source\PSoC4/cyfitter_cfg.c **** 			{0x83u, 0x08u},
 612:Generated_Source\PSoC4/cyfitter_cfg.c **** 			{0x85u, 0x04u},
 613:Generated_Source\PSoC4/cyfitter_cfg.c **** 			{0x87u, 0x08u},
 614:Generated_Source\PSoC4/cyfitter_cfg.c **** 			{0x89u, 0x04u},
 615:Generated_Source\PSoC4/cyfitter_cfg.c **** 			{0x8Bu, 0x08u},
 616:Generated_Source\PSoC4/cyfitter_cfg.c **** 			{0x8Du, 0xB0u},
 617:Generated_Source\PSoC4/cyfitter_cfg.c **** 			{0x8Fu, 0x40u},
 618:Generated_Source\PSoC4/cyfitter_cfg.c **** 			{0x91u, 0x01u},
 619:Generated_Source\PSoC4/cyfitter_cfg.c **** 			{0x93u, 0x02u},
 620:Generated_Source\PSoC4/cyfitter_cfg.c **** 			{0x95u, 0xC0u},
 621:Generated_Source\PSoC4/cyfitter_cfg.c **** 			{0x96u, 0x01u},
 622:Generated_Source\PSoC4/cyfitter_cfg.c **** 			{0x97u, 0x20u},
 623:Generated_Source\PSoC4/cyfitter_cfg.c **** 			{0x99u, 0x88u},
 624:Generated_Source\PSoC4/cyfitter_cfg.c **** 			{0x9Au, 0x02u},
 625:Generated_Source\PSoC4/cyfitter_cfg.c **** 			{0x9Bu, 0x14u},
 626:Generated_Source\PSoC4/cyfitter_cfg.c **** 			{0x9Du, 0x02u},
 627:Generated_Source\PSoC4/cyfitter_cfg.c **** 			{0x9Eu, 0x04u},
 628:Generated_Source\PSoC4/cyfitter_cfg.c **** 			{0x9Fu, 0xF1u},
 629:Generated_Source\PSoC4/cyfitter_cfg.c **** 			{0xA1u, 0xC0u},
 630:Generated_Source\PSoC4/cyfitter_cfg.c **** 			{0xA3u, 0x10u},
 631:Generated_Source\PSoC4/cyfitter_cfg.c **** 			{0xA5u, 0x70u},
 632:Generated_Source\PSoC4/cyfitter_cfg.c **** 			{0xA9u, 0x01u},
 633:Generated_Source\PSoC4/cyfitter_cfg.c **** 			{0xABu, 0x02u},
 634:Generated_Source\PSoC4/cyfitter_cfg.c **** 			{0xADu, 0x01u},
 635:Generated_Source\PSoC4/cyfitter_cfg.c **** 			{0xAFu, 0x02u},
 636:Generated_Source\PSoC4/cyfitter_cfg.c **** 			{0xB0u, 0x01u},
 637:Generated_Source\PSoC4/cyfitter_cfg.c **** 			{0xB1u, 0x03u},
 638:Generated_Source\PSoC4/cyfitter_cfg.c **** 			{0xB2u, 0x02u},
 639:Generated_Source\PSoC4/cyfitter_cfg.c **** 			{0xB3u, 0xF0u},
 640:Generated_Source\PSoC4/cyfitter_cfg.c **** 			{0xB4u, 0x04u},
 641:Generated_Source\PSoC4/cyfitter_cfg.c **** 			{0xB5u, 0x0Cu},
 642:Generated_Source\PSoC4/cyfitter_cfg.c **** 			{0xBBu, 0x22u},
 643:Generated_Source\PSoC4/cyfitter_cfg.c **** 			{0xD4u, 0x0Fu},
 644:Generated_Source\PSoC4/cyfitter_cfg.c **** 			{0xD8u, 0x04u},
ARM GAS  C:\Users\austc\AppData\Local\Temp\cci5Td7B.s 			page 18


 645:Generated_Source\PSoC4/cyfitter_cfg.c **** 			{0xD9u, 0x04u},
 646:Generated_Source\PSoC4/cyfitter_cfg.c **** 			{0xDBu, 0x04u},
 647:Generated_Source\PSoC4/cyfitter_cfg.c **** 			{0xDCu, 0x11u},
 648:Generated_Source\PSoC4/cyfitter_cfg.c **** 			{0xDDu, 0x10u},
 649:Generated_Source\PSoC4/cyfitter_cfg.c **** 			{0xDFu, 0x01u},
 650:Generated_Source\PSoC4/cyfitter_cfg.c **** 			{0x00u, 0x04u},
 651:Generated_Source\PSoC4/cyfitter_cfg.c **** 			{0x02u, 0x80u},
 652:Generated_Source\PSoC4/cyfitter_cfg.c **** 			{0x0Au, 0x40u},
 653:Generated_Source\PSoC4/cyfitter_cfg.c **** 			{0x0Cu, 0x08u},
 654:Generated_Source\PSoC4/cyfitter_cfg.c **** 			{0x0Du, 0x08u},
 655:Generated_Source\PSoC4/cyfitter_cfg.c **** 			{0x0Eu, 0x08u},
 656:Generated_Source\PSoC4/cyfitter_cfg.c **** 			{0x0Fu, 0x02u},
 657:Generated_Source\PSoC4/cyfitter_cfg.c **** 			{0x10u, 0x40u},
 658:Generated_Source\PSoC4/cyfitter_cfg.c **** 			{0x11u, 0x01u},
 659:Generated_Source\PSoC4/cyfitter_cfg.c **** 			{0x12u, 0x10u},
 660:Generated_Source\PSoC4/cyfitter_cfg.c **** 			{0x19u, 0x81u},
 661:Generated_Source\PSoC4/cyfitter_cfg.c **** 			{0x1Cu, 0x28u},
 662:Generated_Source\PSoC4/cyfitter_cfg.c **** 			{0x1Eu, 0x08u},
 663:Generated_Source\PSoC4/cyfitter_cfg.c **** 			{0x1Fu, 0x01u},
 664:Generated_Source\PSoC4/cyfitter_cfg.c **** 			{0x23u, 0x11u},
 665:Generated_Source\PSoC4/cyfitter_cfg.c **** 			{0x24u, 0x20u},
 666:Generated_Source\PSoC4/cyfitter_cfg.c **** 			{0x25u, 0x20u},
 667:Generated_Source\PSoC4/cyfitter_cfg.c **** 			{0x26u, 0x18u},
 668:Generated_Source\PSoC4/cyfitter_cfg.c **** 			{0x27u, 0x40u},
 669:Generated_Source\PSoC4/cyfitter_cfg.c **** 			{0x28u, 0x10u},
 670:Generated_Source\PSoC4/cyfitter_cfg.c **** 			{0x2Au, 0x10u},
 671:Generated_Source\PSoC4/cyfitter_cfg.c **** 			{0x2Cu, 0x18u},
 672:Generated_Source\PSoC4/cyfitter_cfg.c **** 			{0x2Eu, 0x06u},
 673:Generated_Source\PSoC4/cyfitter_cfg.c **** 			{0x2Fu, 0x01u},
 674:Generated_Source\PSoC4/cyfitter_cfg.c **** 			{0x31u, 0x20u},
 675:Generated_Source\PSoC4/cyfitter_cfg.c **** 			{0x32u, 0x08u},
 676:Generated_Source\PSoC4/cyfitter_cfg.c **** 			{0x33u, 0x42u},
 677:Generated_Source\PSoC4/cyfitter_cfg.c **** 			{0x36u, 0x18u},
 678:Generated_Source\PSoC4/cyfitter_cfg.c **** 			{0x37u, 0x41u},
 679:Generated_Source\PSoC4/cyfitter_cfg.c **** 			{0x38u, 0x04u},
 680:Generated_Source\PSoC4/cyfitter_cfg.c **** 			{0x3Au, 0x02u},
 681:Generated_Source\PSoC4/cyfitter_cfg.c **** 			{0x3Bu, 0x41u},
 682:Generated_Source\PSoC4/cyfitter_cfg.c **** 			{0x3Cu, 0x2Au},
 683:Generated_Source\PSoC4/cyfitter_cfg.c **** 			{0x3Fu, 0x42u},
 684:Generated_Source\PSoC4/cyfitter_cfg.c **** 			{0x4Au, 0x01u},
 685:Generated_Source\PSoC4/cyfitter_cfg.c **** 			{0x4Bu, 0x40u},
 686:Generated_Source\PSoC4/cyfitter_cfg.c **** 			{0x58u, 0x40u},
 687:Generated_Source\PSoC4/cyfitter_cfg.c **** 			{0x5Bu, 0x10u},
 688:Generated_Source\PSoC4/cyfitter_cfg.c **** 			{0x5Du, 0x80u},
 689:Generated_Source\PSoC4/cyfitter_cfg.c **** 			{0x5Eu, 0x06u},
 690:Generated_Source\PSoC4/cyfitter_cfg.c **** 			{0x5Fu, 0x10u},
 691:Generated_Source\PSoC4/cyfitter_cfg.c **** 			{0x90u, 0x04u},
 692:Generated_Source\PSoC4/cyfitter_cfg.c **** 			{0x91u, 0x01u},
 693:Generated_Source\PSoC4/cyfitter_cfg.c **** 			{0x92u, 0x44u},
 694:Generated_Source\PSoC4/cyfitter_cfg.c **** 			{0x93u, 0x40u},
 695:Generated_Source\PSoC4/cyfitter_cfg.c **** 			{0x94u, 0x20u},
 696:Generated_Source\PSoC4/cyfitter_cfg.c **** 			{0x97u, 0x01u},
 697:Generated_Source\PSoC4/cyfitter_cfg.c **** 			{0x9Au, 0x10u},
 698:Generated_Source\PSoC4/cyfitter_cfg.c **** 			{0x9Bu, 0x01u},
 699:Generated_Source\PSoC4/cyfitter_cfg.c **** 			{0x9Fu, 0x40u},
 700:Generated_Source\PSoC4/cyfitter_cfg.c **** 			{0xA0u, 0x01u},
 701:Generated_Source\PSoC4/cyfitter_cfg.c **** 			{0xA1u, 0x08u},
ARM GAS  C:\Users\austc\AppData\Local\Temp\cci5Td7B.s 			page 19


 702:Generated_Source\PSoC4/cyfitter_cfg.c **** 			{0xA2u, 0x80u},
 703:Generated_Source\PSoC4/cyfitter_cfg.c **** 			{0xA3u, 0x02u},
 704:Generated_Source\PSoC4/cyfitter_cfg.c **** 			{0xA6u, 0x18u},
 705:Generated_Source\PSoC4/cyfitter_cfg.c **** 			{0xAEu, 0x40u},
 706:Generated_Source\PSoC4/cyfitter_cfg.c **** 			{0xC0u, 0x0Cu},
 707:Generated_Source\PSoC4/cyfitter_cfg.c **** 			{0xC2u, 0xE8u},
 708:Generated_Source\PSoC4/cyfitter_cfg.c **** 			{0xC4u, 0x04u},
 709:Generated_Source\PSoC4/cyfitter_cfg.c **** 			{0xCAu, 0xF6u},
 710:Generated_Source\PSoC4/cyfitter_cfg.c **** 			{0xCCu, 0xFFu},
 711:Generated_Source\PSoC4/cyfitter_cfg.c **** 			{0xCEu, 0xFBu},
 712:Generated_Source\PSoC4/cyfitter_cfg.c **** 			{0xD6u, 0xFCu},
 713:Generated_Source\PSoC4/cyfitter_cfg.c **** 			{0xB5u, 0x01u},
 714:Generated_Source\PSoC4/cyfitter_cfg.c **** 			{0xB7u, 0x10u},
 715:Generated_Source\PSoC4/cyfitter_cfg.c **** 			{0xEEu, 0x40u},
 716:Generated_Source\PSoC4/cyfitter_cfg.c **** 			{0x0Au, 0x08u},
 717:Generated_Source\PSoC4/cyfitter_cfg.c **** 			{0x0Fu, 0x10u},
 718:Generated_Source\PSoC4/cyfitter_cfg.c **** 			{0x6Bu, 0x08u},
 719:Generated_Source\PSoC4/cyfitter_cfg.c **** 			{0x6Cu, 0x02u},
 720:Generated_Source\PSoC4/cyfitter_cfg.c **** 			{0x8Bu, 0x10u},
 721:Generated_Source\PSoC4/cyfitter_cfg.c **** 			{0xC2u, 0x60u},
 722:Generated_Source\PSoC4/cyfitter_cfg.c **** 			{0xDAu, 0xC0u},
 723:Generated_Source\PSoC4/cyfitter_cfg.c **** 			{0x0Eu, 0x01u},
 724:Generated_Source\PSoC4/cyfitter_cfg.c **** 			{0x8Bu, 0x08u},
 725:Generated_Source\PSoC4/cyfitter_cfg.c **** 			{0x9Fu, 0x08u},
 726:Generated_Source\PSoC4/cyfitter_cfg.c **** 			{0xA4u, 0x02u},
 727:Generated_Source\PSoC4/cyfitter_cfg.c **** 			{0xAEu, 0x04u},
 728:Generated_Source\PSoC4/cyfitter_cfg.c **** 			{0xC2u, 0x80u},
 729:Generated_Source\PSoC4/cyfitter_cfg.c **** 			{0xECu, 0x10u},
 730:Generated_Source\PSoC4/cyfitter_cfg.c **** 			{0xA4u, 0x02u},
 731:Generated_Source\PSoC4/cyfitter_cfg.c **** 			{0xAEu, 0x01u},
 732:Generated_Source\PSoC4/cyfitter_cfg.c **** 			{0xE8u, 0x10u},
 733:Generated_Source\PSoC4/cyfitter_cfg.c **** 			{0xB4u, 0x02u},
 734:Generated_Source\PSoC4/cyfitter_cfg.c **** 			{0x0Fu, 0x08u},
 735:Generated_Source\PSoC4/cyfitter_cfg.c **** 			{0x8Fu, 0x04u},
 736:Generated_Source\PSoC4/cyfitter_cfg.c **** 			{0xC2u, 0x01u},
 737:Generated_Source\PSoC4/cyfitter_cfg.c **** 			{0xE2u, 0x02u},
 738:Generated_Source\PSoC4/cyfitter_cfg.c **** 			{0x01u, 0x0Au},
 739:Generated_Source\PSoC4/cyfitter_cfg.c **** 			{0x10u, 0x0Au},
 740:Generated_Source\PSoC4/cyfitter_cfg.c **** 			{0x12u, 0x0Au},
 741:Generated_Source\PSoC4/cyfitter_cfg.c **** 		};
 742:Generated_Source\PSoC4/cyfitter_cfg.c **** 
 743:Generated_Source\PSoC4/cyfitter_cfg.c **** 
 744:Generated_Source\PSoC4/cyfitter_cfg.c **** 
 745:Generated_Source\PSoC4/cyfitter_cfg.c **** 		CYPACKED typedef struct {
 746:Generated_Source\PSoC4/cyfitter_cfg.c **** 			void CYFAR *address;
 747:Generated_Source\PSoC4/cyfitter_cfg.c **** 			uint16 size;
 748:Generated_Source\PSoC4/cyfitter_cfg.c **** 		} CYPACKED_ATTR cfg_memset_t;
 749:Generated_Source\PSoC4/cyfitter_cfg.c **** 
 750:Generated_Source\PSoC4/cyfitter_cfg.c **** 		static const cfg_memset_t CYCODE cfg_memset_list[] = {
 751:Generated_Source\PSoC4/cyfitter_cfg.c **** 			/* address, size */
 752:Generated_Source\PSoC4/cyfitter_cfg.c **** 			{(void CYFAR *)(CYDEV_UDB_P0_U0_BASE), 2048u},
 753:Generated_Source\PSoC4/cyfitter_cfg.c **** 			{(void CYFAR *)(CYDEV_UDB_DSI0_BASE), 2048u},
 754:Generated_Source\PSoC4/cyfitter_cfg.c **** 		};
 755:Generated_Source\PSoC4/cyfitter_cfg.c **** 
 756:Generated_Source\PSoC4/cyfitter_cfg.c **** 		uint8 CYDATA i;
 757:Generated_Source\PSoC4/cyfitter_cfg.c **** 
 758:Generated_Source\PSoC4/cyfitter_cfg.c **** 		/* Zero out critical memory blocks before beginning configuration */
ARM GAS  C:\Users\austc\AppData\Local\Temp\cci5Td7B.s 			page 20


 759:Generated_Source\PSoC4/cyfitter_cfg.c **** 		for (i = 0u; i < (sizeof(cfg_memset_list)/sizeof(cfg_memset_list[0])); i++)
 301              		.loc 1 759 0
 302 00c6 0024     		movs	r4, #0
 303 00c8 0FE0     		b	.L14
 304              	.LVL19:
 305              	.L15:
 306              	.LBB4:
 760:Generated_Source\PSoC4/cyfitter_cfg.c **** 		{
 761:Generated_Source\PSoC4/cyfitter_cfg.c **** 			const cfg_memset_t CYCODE * CYDATA ms = &cfg_memset_list[i];
 762:Generated_Source\PSoC4/cyfitter_cfg.c **** 			CYMEMZERO(ms->address, (size_t)(uint32)(ms->size));
 307              		.loc 1 762 0 discriminator 3
 308 00ca 2F48     		ldr	r0, .L16+4
 309 00cc 6200     		lsls	r2, r4, #1
 310 00ce 1319     		adds	r3, r2, r4
 311 00d0 5900     		lsls	r1, r3, #1
 312 00d2 0B00     		movs	r3, r1
 313 00d4 4118     		adds	r1, r0, r1
 314 00d6 8988     		ldrh	r1, [r1, #4]
 315 00d8 1A5A     		ldrh	r2, [r3, r0]
 316 00da C318     		adds	r3, r0, r3
 317 00dc 5888     		ldrh	r0, [r3, #2]
 318 00de 0004     		lsls	r0, r0, #16
 319 00e0 1043     		orrs	r0, r2
 320 00e2 FFF7FEFF 		bl	CYMEMZERO
 321              	.LVL20:
 322              	.LBE4:
 759:Generated_Source\PSoC4/cyfitter_cfg.c **** 		{
 323              		.loc 1 759 0 discriminator 3
 324 00e6 0134     		adds	r4, r4, #1
 325              	.LVL21:
 326 00e8 E4B2     		uxtb	r4, r4
 327              	.LVL22:
 328              	.L14:
 759:Generated_Source\PSoC4/cyfitter_cfg.c **** 		{
 329              		.loc 1 759 0 is_stmt 0 discriminator 1
 330 00ea 012C     		cmp	r4, #1
 331 00ec EDD9     		bls	.L15
 763:Generated_Source\PSoC4/cyfitter_cfg.c **** 		}
 764:Generated_Source\PSoC4/cyfitter_cfg.c **** 
 765:Generated_Source\PSoC4/cyfitter_cfg.c **** 		cfg_write_bytes32(cy_cfg_addr_table, cy_cfg_data_table);
 332              		.loc 1 765 0 is_stmt 1
 333 00ee 2649     		ldr	r1, .L16+4
 334 00f0 0C31     		adds	r1, r1, #12
 335 00f2 2648     		ldr	r0, .L16+8
 336 00f4 5030     		adds	r0, r0, #80
 337 00f6 FFF7FEFF 		bl	cfg_write_bytes32
 338              	.LVL23:
 766:Generated_Source\PSoC4/cyfitter_cfg.c **** 
 767:Generated_Source\PSoC4/cyfitter_cfg.c **** 		/* HSIOM Starting address: CYDEV_HSIOM_BASE */
 768:Generated_Source\PSoC4/cyfitter_cfg.c **** 		CY_SET_REG32((void *)(CYREG_HSIOM_PORT_SEL1), 0x08000000u);
 339              		.loc 1 768 0
 340 00fa 8022     		movs	r2, #128
 341 00fc 1205     		lsls	r2, r2, #20
 342 00fe 244B     		ldr	r3, .L16+12
 343 0100 1A60     		str	r2, [r3]
 769:Generated_Source\PSoC4/cyfitter_cfg.c **** 		CY_SET_REG32((void *)(CYREG_HSIOM_PORT_SEL3), 0x0000EE00u);
 344              		.loc 1 769 0
ARM GAS  C:\Users\austc\AppData\Local\Temp\cci5Td7B.s 			page 21


 345 0102 EE22     		movs	r2, #238
 346 0104 1202     		lsls	r2, r2, #8
 347 0106 234B     		ldr	r3, .L16+16
 348 0108 1A60     		str	r2, [r3]
 770:Generated_Source\PSoC4/cyfitter_cfg.c **** 
 771:Generated_Source\PSoC4/cyfitter_cfg.c **** 		/* UDB_PA_0 Starting address: CYDEV_UDB_PA0_BASE */
 772:Generated_Source\PSoC4/cyfitter_cfg.c **** 		CY_SET_REG32((void *)(CYDEV_UDB_PA0_BASE), 0x00990000u);
 349              		.loc 1 772 0
 350 010a 9923     		movs	r3, #153
 351 010c 1B04     		lsls	r3, r3, #16
 352 010e 224A     		ldr	r2, .L16+20
 353 0110 1360     		str	r3, [r2]
 773:Generated_Source\PSoC4/cyfitter_cfg.c **** 
 774:Generated_Source\PSoC4/cyfitter_cfg.c **** 		/* UDB_PA_1 Starting address: CYDEV_UDB_PA1_BASE */
 775:Generated_Source\PSoC4/cyfitter_cfg.c **** 		CY_SET_REG32((void *)(CYDEV_UDB_PA1_BASE), 0x00990000u);
 354              		.loc 1 775 0
 355 0112 224A     		ldr	r2, .L16+24
 356 0114 1360     		str	r3, [r2]
 776:Generated_Source\PSoC4/cyfitter_cfg.c **** 
 777:Generated_Source\PSoC4/cyfitter_cfg.c **** 		/* UDB_PA_5 Starting address: CYDEV_UDB_PA5_BASE */
 778:Generated_Source\PSoC4/cyfitter_cfg.c **** 		CY_SET_REG32((void *)(CYDEV_UDB_PA5_BASE), 0x00990000u);
 357              		.loc 1 778 0
 358 0116 224A     		ldr	r2, .L16+28
 359 0118 1360     		str	r3, [r2]
 779:Generated_Source\PSoC4/cyfitter_cfg.c **** 
 780:Generated_Source\PSoC4/cyfitter_cfg.c **** 		/* UDB_PA_7 Starting address: CYDEV_UDB_PA7_BASE */
 781:Generated_Source\PSoC4/cyfitter_cfg.c **** 		CY_SET_REG32((void *)(CYDEV_UDB_PA7_BASE), 0x00990000u);
 360              		.loc 1 781 0
 361 011a 224A     		ldr	r2, .L16+32
 362 011c 1360     		str	r3, [r2]
 782:Generated_Source\PSoC4/cyfitter_cfg.c **** 
 783:Generated_Source\PSoC4/cyfitter_cfg.c **** 		/* UDB_P0_U0_CFG24 Starting address: CYDEV_UDB_P0_U0_CFG24 */
 784:Generated_Source\PSoC4/cyfitter_cfg.c **** 		CY_SET_REG32((void *)(CYREG_UDB_P0_U0_CFG24), 0x44000404u);
 363              		.loc 1 784 0
 364 011e 224A     		ldr	r2, .L16+36
 365 0120 224B     		ldr	r3, .L16+40
 366 0122 1A60     		str	r2, [r3]
 785:Generated_Source\PSoC4/cyfitter_cfg.c **** 
 786:Generated_Source\PSoC4/cyfitter_cfg.c **** 		/* INT_SELECT Starting address: CYDEV_CPUSS_INT_SEL */
 787:Generated_Source\PSoC4/cyfitter_cfg.c **** 		CY_SET_REG32((void *)(CYREG_CPUSS_INT_SEL), 0x00000003u);
 367              		.loc 1 787 0
 368 0124 0323     		movs	r3, #3
 369 0126 224A     		ldr	r2, .L16+44
 370 0128 1360     		str	r3, [r2]
 788:Generated_Source\PSoC4/cyfitter_cfg.c **** 
 789:Generated_Source\PSoC4/cyfitter_cfg.c **** 		/* INT_CONFIG Starting address: CYDEV_UDB_INT_CFG */
 790:Generated_Source\PSoC4/cyfitter_cfg.c **** 		CY_SET_REG32((void *)(CYREG_UDB_INT_CFG), 0x00000003u);
 371              		.loc 1 790 0
 372 012a 224A     		ldr	r2, .L16+48
 373 012c 1360     		str	r3, [r2]
 791:Generated_Source\PSoC4/cyfitter_cfg.c **** 
 792:Generated_Source\PSoC4/cyfitter_cfg.c **** 		/* Enable UDB array and digital routing */
 793:Generated_Source\PSoC4/cyfitter_cfg.c **** 		CY_SET_XTND_REG8((void *)CYREG_UDB_UDB_WAIT_CFG, (uint8)((CY_GET_XTND_REG8((void *)CYREG_UDB_UDB_
 374              		.loc 1 793 0
 375 012e 2249     		ldr	r1, .L16+52
 376 0130 0B78     		ldrb	r3, [r1]
 377 0132 3C22     		movs	r2, #60
ARM GAS  C:\Users\austc\AppData\Local\Temp\cci5Td7B.s 			page 22


 378 0134 9343     		bics	r3, r2
 379 0136 1422     		movs	r2, #20
 380 0138 1343     		orrs	r3, r2
 381 013a DBB2     		uxtb	r3, r3
 382 013c 0B70     		strb	r3, [r1]
 794:Generated_Source\PSoC4/cyfitter_cfg.c **** 		CY_SET_XTND_REG8((void *)CYREG_UDB_UDB_BANK_CTL, (uint8)(CY_GET_XTND_REG8((void *)CYREG_UDB_UDB_B
 383              		.loc 1 794 0
 384 013e 1F4A     		ldr	r2, .L16+56
 385 0140 1178     		ldrb	r1, [r2]
 386 0142 1623     		movs	r3, #22
 387 0144 0B43     		orrs	r3, r1
 388 0146 DBB2     		uxtb	r3, r3
 389 0148 1370     		strb	r3, [r2]
 390              	.LBE3:
 795:Generated_Source\PSoC4/cyfitter_cfg.c **** 	}
 796:Generated_Source\PSoC4/cyfitter_cfg.c **** 
 797:Generated_Source\PSoC4/cyfitter_cfg.c **** 	/* Perform second pass device configuration. These items must be configured in specific order afte
 798:Generated_Source\PSoC4/cyfitter_cfg.c **** 	/* IOPINS0_1 Starting address: CYDEV_GPIO_PRT1_BASE */
 799:Generated_Source\PSoC4/cyfitter_cfg.c **** 	CY_SET_REG32((void *)(CYDEV_GPIO_PRT1_BASE), 0x000000C0u);
 391              		.loc 1 799 0
 392 014a C022     		movs	r2, #192
 393 014c 1C4B     		ldr	r3, .L16+60
 394 014e 1A60     		str	r2, [r3]
 800:Generated_Source\PSoC4/cyfitter_cfg.c **** 	CY_SET_REG32((void *)(CYREG_GPIO_PRT1_PC), 0x00586DB6u);
 395              		.loc 1 800 0
 396 0150 1C4A     		ldr	r2, .L16+64
 397 0152 1D4B     		ldr	r3, .L16+68
 398 0154 1A60     		str	r2, [r3]
 801:Generated_Source\PSoC4/cyfitter_cfg.c **** 
 802:Generated_Source\PSoC4/cyfitter_cfg.c **** 	/* IOPINS0_3 Starting address: CYDEV_GPIO_PRT3_BASE */
 803:Generated_Source\PSoC4/cyfitter_cfg.c **** 	CY_SET_REG32((void *)(CYREG_GPIO_PRT3_PC), 0x00000D80u);
 399              		.loc 1 803 0
 400 0156 D822     		movs	r2, #216
 401 0158 1201     		lsls	r2, r2, #4
 402 015a 1C4B     		ldr	r3, .L16+72
 403 015c 1A60     		str	r2, [r3]
 804:Generated_Source\PSoC4/cyfitter_cfg.c **** 
 805:Generated_Source\PSoC4/cyfitter_cfg.c **** 	/* IOPINS0_4 Starting address: CYDEV_GPIO_PRT4_BASE */
 806:Generated_Source\PSoC4/cyfitter_cfg.c **** 	CY_SET_REG32((void *)(CYDEV_GPIO_PRT4_BASE), 0x00000080u);
 404              		.loc 1 806 0
 405 015e 8022     		movs	r2, #128
 406 0160 1B4B     		ldr	r3, .L16+76
 407 0162 1A60     		str	r2, [r3]
 807:Generated_Source\PSoC4/cyfitter_cfg.c **** 	CY_SET_REG32((void *)(CYREG_GPIO_PRT4_PC), 0x00400000u);
 408              		.loc 1 807 0
 409 0164 8022     		movs	r2, #128
 410 0166 D203     		lsls	r2, r2, #15
 411 0168 1A4B     		ldr	r3, .L16+80
 412 016a 1A60     		str	r2, [r3]
 808:Generated_Source\PSoC4/cyfitter_cfg.c **** 
 809:Generated_Source\PSoC4/cyfitter_cfg.c **** 	/* IOPINS0_5 Starting address: CYDEV_GPIO_PRT5_BASE */
 810:Generated_Source\PSoC4/cyfitter_cfg.c **** 	CY_SET_REG32((void *)(CYDEV_GPIO_PRT5_BASE), 0x00000008u);
 413              		.loc 1 810 0
 414 016c 0822     		movs	r2, #8
 415 016e 1A4B     		ldr	r3, .L16+84
 416 0170 1A60     		str	r2, [r3]
 811:Generated_Source\PSoC4/cyfitter_cfg.c **** 	CY_SET_REG32((void *)(CYREG_GPIO_PRT5_PC), 0x00048400u);
ARM GAS  C:\Users\austc\AppData\Local\Temp\cci5Td7B.s 			page 23


 417              		.loc 1 811 0
 418 0172 1A4A     		ldr	r2, .L16+88
 419 0174 1A4B     		ldr	r3, .L16+92
 420 0176 1A60     		str	r2, [r3]
 812:Generated_Source\PSoC4/cyfitter_cfg.c **** 
 813:Generated_Source\PSoC4/cyfitter_cfg.c **** 
 814:Generated_Source\PSoC4/cyfitter_cfg.c **** 	/* Setup clocks based on selections from Clock DWR */
 815:Generated_Source\PSoC4/cyfitter_cfg.c **** 	ClockSetup();
 421              		.loc 1 815 0
 422 0178 FFF742FF 		bl	ClockSetup
 423              	.LVL24:
 816:Generated_Source\PSoC4/cyfitter_cfg.c **** 
 817:Generated_Source\PSoC4/cyfitter_cfg.c **** 	/* Perform basic analog initialization to defaults */
 818:Generated_Source\PSoC4/cyfitter_cfg.c **** 	AnalogSetDefault();
 424              		.loc 1 818 0
 425 017c FFF7FEFF 		bl	AnalogSetDefault
 426              	.LVL25:
 819:Generated_Source\PSoC4/cyfitter_cfg.c **** 
 820:Generated_Source\PSoC4/cyfitter_cfg.c **** }
 427              		.loc 1 820 0
 428              		@ sp needed
 429              	.LVL26:
 430 0180 10BD     		pop	{r4, pc}
 431              	.L17:
 432 0182 C046     		.align	2
 433              	.L16:
 434 0184 1C700F40 		.word	1074753564
 435 0188 00000000 		.word	.LANCHOR0
 436 018c 00030000 		.word	.LANCHOR1
 437 0190 00010240 		.word	1073873152
 438 0194 00030240 		.word	1073873664
 439 0198 00500F40 		.word	1074745344
 440 019c 10500F40 		.word	1074745360
 441 01a0 50500F40 		.word	1074745424
 442 01a4 70500F40 		.word	1074745456
 443 01a8 04040044 		.word	1140851716
 444 01ac 58300F40 		.word	1074737240
 445 01b0 20001040 		.word	1074790432
 446 01b4 00800F40 		.word	1074757632
 447 01b8 01700F40 		.word	1074753537
 448 01bc 00700F40 		.word	1074753536
 449 01c0 00010440 		.word	1074004224
 450 01c4 B66D5800 		.word	5795254
 451 01c8 08010440 		.word	1074004232
 452 01cc 08030440 		.word	1074004744
 453 01d0 00040440 		.word	1074004992
 454 01d4 08040440 		.word	1074005000
 455 01d8 00050440 		.word	1074005248
 456 01dc 00840400 		.word	295936
 457 01e0 08050440 		.word	1074005256
 458              		.cfi_endproc
 459              	.LFE40:
 460              		.size	cyfitter_cfg, .-cyfitter_cfg
 461              		.section	.rodata
 462              		.align	2
 463              		.set	.LANCHOR0,. + 0
 464              		.set	.LANCHOR1,. + 768
ARM GAS  C:\Users\austc\AppData\Local\Temp\cci5Td7B.s 			page 24


 465              		.type	cfg_memset_list.5921, %object
 466              		.size	cfg_memset_list.5921, 12
 467              	cfg_memset_list.5921:
 468 0000 00300F40 		.word	1074737152
 469 0004 0008     		.short	2048
 470 0006 00400F40 		.4byte	1074741248
 471 000a 0008     		.short	2048
 472              		.type	cy_cfg_data_table.5916, %object
 473              		.size	cy_cfg_data_table.5916, 836
 474              	cy_cfg_data_table.5916:
 475 000c 80       		.byte	-128
 476 000d 6F       		.byte	111
 477 000e 85       		.byte	-123
 478 000f 0F       		.byte	15
 479 0010 01       		.byte	1
 480 0011 0F       		.byte	15
 481 0012 04       		.byte	4
 482 0013 01       		.byte	1
 483 0014 09       		.byte	9
 484 0015 0A       		.byte	10
 485 0016 0B       		.byte	11
 486 0017 05       		.byte	5
 487 0018 0F       		.byte	15
 488 0019 10       		.byte	16
 489 001a 15       		.byte	21
 490 001b 03       		.byte	3
 491 001c 17       		.byte	23
 492 001d 0C       		.byte	12
 493 001e 18       		.byte	24
 494 001f 02       		.byte	2
 495 0020 19       		.byte	25
 496 0021 07       		.byte	7
 497 0022 1D       		.byte	29
 498 0023 05       		.byte	5
 499 0024 1F       		.byte	31
 500 0025 0A       		.byte	10
 501 0026 21       		.byte	33
 502 0027 0C       		.byte	12
 503 0028 22       		.byte	34
 504 0029 01       		.byte	1
 505 002a 23       		.byte	35
 506 002b 03       		.byte	3
 507 002c 2A       		.byte	42
 508 002d 06       		.byte	6
 509 002e 30       		.byte	48
 510 002f 02       		.byte	2
 511 0030 31       		.byte	49
 512 0031 0F       		.byte	15
 513 0032 34       		.byte	52
 514 0033 04       		.byte	4
 515 0034 35       		.byte	53
 516 0035 10       		.byte	16
 517 0036 36       		.byte	54
 518 0037 01       		.byte	1
 519 0038 3E       		.byte	62
 520 0039 41       		.byte	65
 521 003a 54       		.byte	84
ARM GAS  C:\Users\austc\AppData\Local\Temp\cci5Td7B.s 			page 25


 522 003b 0F       		.byte	15
 523 003c 58       		.byte	88
 524 003d 04       		.byte	4
 525 003e 59       		.byte	89
 526 003f 04       		.byte	4
 527 0040 5B       		.byte	91
 528 0041 04       		.byte	4
 529 0042 5C       		.byte	92
 530 0043 11       		.byte	17
 531 0044 5D       		.byte	93
 532 0045 10       		.byte	16
 533 0046 5F       		.byte	95
 534 0047 05       		.byte	5
 535 0048 80       		.byte	-128
 536 0049 30       		.byte	48
 537 004a 82       		.byte	-126
 538 004b C9       		.byte	-55
 539 004c 83       		.byte	-125
 540 004d 08       		.byte	8
 541 004e 85       		.byte	-123
 542 004f 0E       		.byte	14
 543 0050 88       		.byte	-120
 544 0051 9E       		.byte	-98
 545 0052 89       		.byte	-119
 546 0053 02       		.byte	2
 547 0054 8A       		.byte	-118
 548 0055 60       		.byte	96
 549 0056 8B       		.byte	-117
 550 0057 04       		.byte	4
 551 0058 8D       		.byte	-115
 552 0059 0E       		.byte	14
 553 005a 90       		.byte	-112
 554 005b FD       		.byte	-3
 555 005c 92       		.byte	-110
 556 005d 02       		.byte	2
 557 005e 94       		.byte	-108
 558 005f 94       		.byte	-108
 559 0060 95       		.byte	-107
 560 0061 02       		.byte	2
 561 0062 96       		.byte	-106
 562 0063 60       		.byte	96
 563 0064 97       		.byte	-105
 564 0065 04       		.byte	4
 565 0066 98       		.byte	-104
 566 0067 73       		.byte	115
 567 0068 9B       		.byte	-101
 568 0069 0E       		.byte	14
 569 006a 9C       		.byte	-100
 570 006b CF       		.byte	-49
 571 006c 9D       		.byte	-99
 572 006d 08       		.byte	8
 573 006e 9E       		.byte	-98
 574 006f 30       		.byte	48
 575 0070 A7       		.byte	-89
 576 0071 10       		.byte	16
 577 0072 AA       		.byte	-86
 578 0073 0F       		.byte	15
ARM GAS  C:\Users\austc\AppData\Local\Temp\cci5Td7B.s 			page 26


 579 0074 AB       		.byte	-85
 580 0075 01       		.byte	1
 581 0076 B3       		.byte	-77
 582 0077 1E       		.byte	30
 583 0078 B4       		.byte	-76
 584 0079 FF       		.byte	-1
 585 007a B7       		.byte	-73
 586 007b 01       		.byte	1
 587 007c BE       		.byte	-66
 588 007d 10       		.byte	16
 589 007e D8       		.byte	-40
 590 007f 04       		.byte	4
 591 0080 D9       		.byte	-39
 592 0081 04       		.byte	4
 593 0082 DC       		.byte	-36
 594 0083 10       		.byte	16
 595 0084 DF       		.byte	-33
 596 0085 01       		.byte	1
 597 0086 00       		.byte	0
 598 0087 04       		.byte	4
 599 0088 04       		.byte	4
 600 0089 20       		.byte	32
 601 008a 07       		.byte	7
 602 008b 40       		.byte	64
 603 008c 0A       		.byte	10
 604 008d 08       		.byte	8
 605 008e 0C       		.byte	12
 606 008f 54       		.byte	84
 607 0090 0E       		.byte	14
 608 0091 24       		.byte	36
 609 0092 0F       		.byte	15
 610 0093 41       		.byte	65
 611 0094 10       		.byte	16
 612 0095 88       		.byte	-120
 613 0096 17       		.byte	23
 614 0097 10       		.byte	16
 615 0098 19       		.byte	25
 616 0099 81       		.byte	-127
 617 009a 1A       		.byte	26
 618 009b 08       		.byte	8
 619 009c 1F       		.byte	31
 620 009d 20       		.byte	32
 621 009e 20       		.byte	32
 622 009f 04       		.byte	4
 623 00a0 21       		.byte	33
 624 00a1 01       		.byte	1
 625 00a2 23       		.byte	35
 626 00a3 40       		.byte	64
 627 00a4 25       		.byte	37
 628 00a5 04       		.byte	4
 629 00a6 27       		.byte	39
 630 00a7 11       		.byte	17
 631 00a8 28       		.byte	40
 632 00a9 40       		.byte	64
 633 00aa 2F       		.byte	47
 634 00ab 24       		.byte	36
 635 00ac 30       		.byte	48
ARM GAS  C:\Users\austc\AppData\Local\Temp\cci5Td7B.s 			page 27


 636 00ad 14       		.byte	20
 637 00ae 33       		.byte	51
 638 00af 40       		.byte	64
 639 00b0 34       		.byte	52
 640 00b1 04       		.byte	4
 641 00b2 37       		.byte	55
 642 00b3 50       		.byte	80
 643 00b4 38       		.byte	56
 644 00b5 A0       		.byte	-96
 645 00b6 39       		.byte	57
 646 00b7 02       		.byte	2
 647 00b8 3B       		.byte	59
 648 00b9 10       		.byte	16
 649 00ba 3E       		.byte	62
 650 00bb 04       		.byte	4
 651 00bc 3F       		.byte	63
 652 00bd 51       		.byte	81
 653 00be 48       		.byte	72
 654 00bf 08       		.byte	8
 655 00c0 49       		.byte	73
 656 00c1 10       		.byte	16
 657 00c2 59       		.byte	89
 658 00c3 99       		.byte	-103
 659 00c4 61       		.byte	97
 660 00c5 24       		.byte	36
 661 00c6 78       		.byte	120
 662 00c7 10       		.byte	16
 663 00c8 8A       		.byte	-118
 664 00c9 20       		.byte	32
 665 00ca C0       		.byte	-64
 666 00cb 54       		.byte	84
 667 00cc C2       		.byte	-62
 668 00cd F2       		.byte	-14
 669 00ce C4       		.byte	-60
 670 00cf 4A       		.byte	74
 671 00d0 CA       		.byte	-54
 672 00d1 61       		.byte	97
 673 00d2 CC       		.byte	-52
 674 00d3 7E       		.byte	126
 675 00d4 CE       		.byte	-50
 676 00d5 FD       		.byte	-3
 677 00d6 D6       		.byte	-42
 678 00d7 0F       		.byte	15
 679 00d8 D8       		.byte	-40
 680 00d9 06       		.byte	6
 681 00da DE       		.byte	-34
 682 00db 04       		.byte	4
 683 00dc E4       		.byte	-28
 684 00dd 80       		.byte	-128
 685 00de 01       		.byte	1
 686 00df 1C       		.byte	28
 687 00e0 05       		.byte	5
 688 00e1 0C       		.byte	12
 689 00e2 06       		.byte	6
 690 00e3 08       		.byte	8
 691 00e4 08       		.byte	8
 692 00e5 06       		.byte	6
ARM GAS  C:\Users\austc\AppData\Local\Temp\cci5Td7B.s 			page 28


 693 00e6 0B       		.byte	11
 694 00e7 07       		.byte	7
 695 00e8 0D       		.byte	13
 696 00e9 18       		.byte	24
 697 00ea 0F       		.byte	15
 698 00eb 04       		.byte	4
 699 00ec 10       		.byte	16
 700 00ed 05       		.byte	5
 701 00ee 11       		.byte	17
 702 00ef 01       		.byte	1
 703 00f0 15       		.byte	21
 704 00f1 14       		.byte	20
 705 00f2 17       		.byte	23
 706 00f3 08       		.byte	8
 707 00f4 18       		.byte	24
 708 00f5 03       		.byte	3
 709 00f6 19       		.byte	25
 710 00f7 18       		.byte	24
 711 00f8 1C       		.byte	28
 712 00f9 06       		.byte	6
 713 00fa 1D       		.byte	29
 714 00fb 08       		.byte	8
 715 00fc 1F       		.byte	31
 716 00fd 10       		.byte	16
 717 00fe 22       		.byte	34
 718 00ff 10       		.byte	16
 719 0100 2F       		.byte	47
 720 0101 01       		.byte	1
 721 0102 32       		.byte	50
 722 0103 10       		.byte	16
 723 0104 33       		.byte	51
 724 0105 01       		.byte	1
 725 0106 34       		.byte	52
 726 0107 07       		.byte	7
 727 0108 35       		.byte	53
 728 0109 1C       		.byte	28
 729 010a 36       		.byte	54
 730 010b 08       		.byte	8
 731 010c 37       		.byte	55
 732 010d 02       		.byte	2
 733 010e 38       		.byte	56
 734 010f 20       		.byte	32
 735 0110 3F       		.byte	63
 736 0111 04       		.byte	4
 737 0112 40       		.byte	64
 738 0113 26       		.byte	38
 739 0114 41       		.byte	65
 740 0115 03       		.byte	3
 741 0116 49       		.byte	73
 742 0117 FF       		.byte	-1
 743 0118 4A       		.byte	74
 744 0119 FF       		.byte	-1
 745 011a 4B       		.byte	75
 746 011b FF       		.byte	-1
 747 011c 4D       		.byte	77
 748 011d A0       		.byte	-96
 749 011e 4F       		.byte	79
ARM GAS  C:\Users\austc\AppData\Local\Temp\cci5Td7B.s 			page 29


 750 011f 01       		.byte	1
 751 0120 50       		.byte	80
 752 0121 18       		.byte	24
 753 0122 52       		.byte	82
 754 0123 80       		.byte	-128
 755 0124 58       		.byte	88
 756 0125 04       		.byte	4
 757 0126 59       		.byte	89
 758 0127 04       		.byte	4
 759 0128 5A       		.byte	90
 760 0129 04       		.byte	4
 761 012a 5B       		.byte	91
 762 012b 04       		.byte	4
 763 012c 5C       		.byte	92
 764 012d 11       		.byte	17
 765 012e 5D       		.byte	93
 766 012f 11       		.byte	17
 767 0130 5F       		.byte	95
 768 0131 01       		.byte	1
 769 0132 60       		.byte	96
 770 0133 40       		.byte	64
 771 0134 62       		.byte	98
 772 0135 80       		.byte	-128
 773 0136 64       		.byte	100
 774 0137 40       		.byte	64
 775 0138 65       		.byte	101
 776 0139 40       		.byte	64
 777 013a 66       		.byte	102
 778 013b 80       		.byte	-128
 779 013c 68       		.byte	104
 780 013d 40       		.byte	64
 781 013e 6A       		.byte	106
 782 013f 80       		.byte	-128
 783 0140 6C       		.byte	108
 784 0141 40       		.byte	64
 785 0142 6D       		.byte	109
 786 0143 20       		.byte	32
 787 0144 6E       		.byte	110
 788 0145 80       		.byte	-128
 789 0146 98       		.byte	-104
 790 0147 01       		.byte	1
 791 0148 9C       		.byte	-100
 792 0149 08       		.byte	8
 793 014a A8       		.byte	-88
 794 014b 03       		.byte	3
 795 014c AC       		.byte	-84
 796 014d 03       		.byte	3
 797 014e AD       		.byte	-83
 798 014f 01       		.byte	1
 799 0150 AE       		.byte	-82
 800 0151 0C       		.byte	12
 801 0152 B0       		.byte	-80
 802 0153 02       		.byte	2
 803 0154 B2       		.byte	-78
 804 0155 08       		.byte	8
 805 0156 B3       		.byte	-77
 806 0157 01       		.byte	1
ARM GAS  C:\Users\austc\AppData\Local\Temp\cci5Td7B.s 			page 30


 807 0158 B4       		.byte	-76
 808 0159 01       		.byte	1
 809 015a B6       		.byte	-74
 810 015b 04       		.byte	4
 811 015c B8       		.byte	-72
 812 015d 22       		.byte	34
 813 015e BE       		.byte	-66
 814 015f 14       		.byte	20
 815 0160 C0       		.byte	-64
 816 0161 26       		.byte	38
 817 0162 C1       		.byte	-63
 818 0163 03       		.byte	3
 819 0164 C5       		.byte	-59
 820 0165 0E       		.byte	14
 821 0166 C6       		.byte	-58
 822 0167 C4       		.byte	-60
 823 0168 C7       		.byte	-57
 824 0169 32       		.byte	50
 825 016a C8       		.byte	-56
 826 016b 3D       		.byte	61
 827 016c C9       		.byte	-55
 828 016d FF       		.byte	-1
 829 016e CA       		.byte	-54
 830 016f FF       		.byte	-1
 831 0170 CB       		.byte	-53
 832 0171 FF       		.byte	-1
 833 0172 CD       		.byte	-51
 834 0173 AF       		.byte	-81
 835 0174 CE       		.byte	-50
 836 0175 07       		.byte	7
 837 0176 CF       		.byte	-49
 838 0177 01       		.byte	1
 839 0178 D0       		.byte	-48
 840 0179 18       		.byte	24
 841 017a D8       		.byte	-40
 842 017b 04       		.byte	4
 843 017c D9       		.byte	-39
 844 017d 04       		.byte	4
 845 017e DA       		.byte	-38
 846 017f 04       		.byte	4
 847 0180 DC       		.byte	-36
 848 0181 31       		.byte	49
 849 0182 DD       		.byte	-35
 850 0183 01       		.byte	1
 851 0184 DF       		.byte	-33
 852 0185 01       		.byte	1
 853 0186 E0       		.byte	-32
 854 0187 40       		.byte	64
 855 0188 E2       		.byte	-30
 856 0189 80       		.byte	-128
 857 018a E4       		.byte	-28
 858 018b 40       		.byte	64
 859 018c E5       		.byte	-27
 860 018d 40       		.byte	64
 861 018e E6       		.byte	-26
 862 018f 80       		.byte	-128
 863 0190 E8       		.byte	-24
ARM GAS  C:\Users\austc\AppData\Local\Temp\cci5Td7B.s 			page 31


 864 0191 40       		.byte	64
 865 0192 EA       		.byte	-22
 866 0193 80       		.byte	-128
 867 0194 EC       		.byte	-20
 868 0195 40       		.byte	64
 869 0196 ED       		.byte	-19
 870 0197 20       		.byte	32
 871 0198 EE       		.byte	-18
 872 0199 80       		.byte	-128
 873 019a 04       		.byte	4
 874 019b 20       		.byte	32
 875 019c 06       		.byte	6
 876 019d 20       		.byte	32
 877 019e 0A       		.byte	10
 878 019f 05       		.byte	5
 879 01a0 0E       		.byte	14
 880 01a1 04       		.byte	4
 881 01a2 0F       		.byte	15
 882 01a3 41       		.byte	65
 883 01a4 10       		.byte	16
 884 01a5 0A       		.byte	10
 885 01a6 17       		.byte	23
 886 01a7 01       		.byte	1
 887 01a8 19       		.byte	25
 888 01a9 18       		.byte	24
 889 01aa 1A       		.byte	26
 890 01ab 41       		.byte	65
 891 01ac 1B       		.byte	27
 892 01ad 12       		.byte	18
 893 01ae 1C       		.byte	28
 894 01af 02       		.byte	2
 895 01b0 1D       		.byte	29
 896 01b1 08       		.byte	8
 897 01b2 1E       		.byte	30
 898 01b3 04       		.byte	4
 899 01b4 23       		.byte	35
 900 01b5 10       		.byte	16
 901 01b6 25       		.byte	37
 902 01b7 10       		.byte	16
 903 01b8 27       		.byte	39
 904 01b9 12       		.byte	18
 905 01ba 2A       		.byte	42
 906 01bb 40       		.byte	64
 907 01bc 2E       		.byte	46
 908 01bd 80       		.byte	-128
 909 01be 36       		.byte	54
 910 01bf 18       		.byte	24
 911 01c0 37       		.byte	55
 912 01c1 42       		.byte	66
 913 01c2 3D       		.byte	61
 914 01c3 20       		.byte	32
 915 01c4 3E       		.byte	62
 916 01c5 04       		.byte	4
 917 01c6 3F       		.byte	63
 918 01c7 41       		.byte	65
 919 01c8 40       		.byte	64
 920 01c9 20       		.byte	32
ARM GAS  C:\Users\austc\AppData\Local\Temp\cci5Td7B.s 			page 32


 921 01ca 43       		.byte	67
 922 01cb 10       		.byte	16
 923 01cc 44       		.byte	68
 924 01cd 20       		.byte	32
 925 01ce 45       		.byte	69
 926 01cf 04       		.byte	4
 927 01d0 46       		.byte	70
 928 01d1 10       		.byte	16
 929 01d2 47       		.byte	71
 930 01d3 10       		.byte	16
 931 01d4 49       		.byte	73
 932 01d5 14       		.byte	20
 933 01d6 4F       		.byte	79
 934 01d7 20       		.byte	32
 935 01d8 50       		.byte	80
 936 01d9 CA       		.byte	-54
 937 01da 51       		.byte	81
 938 01db 20       		.byte	32
 939 01dc 76       		.byte	118
 940 01dd 80       		.byte	-128
 941 01de 89       		.byte	-119
 942 01df 01       		.byte	1
 943 01e0 8B       		.byte	-117
 944 01e1 10       		.byte	16
 945 01e2 8E       		.byte	-114
 946 01e3 80       		.byte	-128
 947 01e4 90       		.byte	-112
 948 01e5 04       		.byte	4
 949 01e6 93       		.byte	-109
 950 01e7 40       		.byte	64
 951 01e8 94       		.byte	-108
 952 01e9 A0       		.byte	-96
 953 01ea 96       		.byte	-106
 954 01eb 04       		.byte	4
 955 01ec 97       		.byte	-105
 956 01ed 01       		.byte	1
 957 01ee 9A       		.byte	-102
 958 01ef 20       		.byte	32
 959 01f0 9B       		.byte	-101
 960 01f1 01       		.byte	1
 961 01f2 9D       		.byte	-99
 962 01f3 0C       		.byte	12
 963 01f4 9F       		.byte	-97
 964 01f5 40       		.byte	64
 965 01f6 A1       		.byte	-95
 966 01f7 04       		.byte	4
 967 01f8 A4       		.byte	-92
 968 01f9 88       		.byte	-120
 969 01fa A5       		.byte	-91
 970 01fb 20       		.byte	32
 971 01fc A6       		.byte	-90
 972 01fd 10       		.byte	16
 973 01fe AF       		.byte	-81
 974 01ff 04       		.byte	4
 975 0200 C0       		.byte	-64
 976 0201 60       		.byte	96
 977 0202 C2       		.byte	-62
ARM GAS  C:\Users\austc\AppData\Local\Temp\cci5Td7B.s 			page 33


 978 0203 D3       		.byte	-45
 979 0204 C4       		.byte	-60
 980 0205 13       		.byte	19
 981 0206 CA       		.byte	-54
 982 0207 18       		.byte	24
 983 0208 CC       		.byte	-52
 984 0209 F0       		.byte	-16
 985 020a CE       		.byte	-50
 986 020b F0       		.byte	-16
 987 020c D0       		.byte	-48
 988 020d 66       		.byte	102
 989 020e D2       		.byte	-46
 990 020f 24       		.byte	36
 991 0210 E6       		.byte	-26
 992 0211 80       		.byte	-128
 993 0212 00       		.byte	0
 994 0213 01       		.byte	1
 995 0214 01       		.byte	1
 996 0215 0C       		.byte	12
 997 0216 03       		.byte	3
 998 0217 02       		.byte	2
 999 0218 04       		.byte	4
 1000 0219 02       		.byte	2
 1001 021a 05       		.byte	5
 1002 021b 10       		.byte	16
 1003 021c 0D       		.byte	13
 1004 021d 0B       		.byte	11
 1005 021e 0F       		.byte	15
 1006 021f 04       		.byte	4
 1007 0220 12       		.byte	18
 1008 0221 02       		.byte	2
 1009 0222 13       		.byte	19
 1010 0223 10       		.byte	16
 1011 0224 15       		.byte	21
 1012 0225 0C       		.byte	12
 1013 0226 17       		.byte	23
 1014 0227 01       		.byte	1
 1015 0228 1B       		.byte	27
 1016 0229 0F       		.byte	15
 1017 022a 1D       		.byte	29
 1018 022b 08       		.byte	8
 1019 022c 1F       		.byte	31
 1020 022d 01       		.byte	1
 1021 022e 25       		.byte	37
 1022 022f 07       		.byte	7
 1023 0230 26       		.byte	38
 1024 0231 02       		.byte	2
 1025 0232 29       		.byte	41
 1026 0233 10       		.byte	16
 1027 0234 30       		.byte	48
 1028 0235 01       		.byte	1
 1029 0236 33       		.byte	51
 1030 0237 10       		.byte	16
 1031 0238 36       		.byte	54
 1032 0239 02       		.byte	2
 1033 023a 37       		.byte	55
 1034 023b 0F       		.byte	15
ARM GAS  C:\Users\austc\AppData\Local\Temp\cci5Td7B.s 			page 34


 1035 023c 3E       		.byte	62
 1036 023d 40       		.byte	64
 1037 023e 3F       		.byte	63
 1038 023f 04       		.byte	4
 1039 0240 58       		.byte	88
 1040 0241 04       		.byte	4
 1041 0242 59       		.byte	89
 1042 0243 04       		.byte	4
 1043 0244 5B       		.byte	91
 1044 0245 04       		.byte	4
 1045 0246 5C       		.byte	92
 1046 0247 13       		.byte	19
 1047 0248 5F       		.byte	95
 1048 0249 01       		.byte	1
 1049 024a 81       		.byte	-127
 1050 024b 04       		.byte	4
 1051 024c 83       		.byte	-125
 1052 024d 08       		.byte	8
 1053 024e 85       		.byte	-123
 1054 024f 04       		.byte	4
 1055 0250 87       		.byte	-121
 1056 0251 08       		.byte	8
 1057 0252 89       		.byte	-119
 1058 0253 04       		.byte	4
 1059 0254 8B       		.byte	-117
 1060 0255 08       		.byte	8
 1061 0256 8D       		.byte	-115
 1062 0257 B0       		.byte	-80
 1063 0258 8F       		.byte	-113
 1064 0259 40       		.byte	64
 1065 025a 91       		.byte	-111
 1066 025b 01       		.byte	1
 1067 025c 93       		.byte	-109
 1068 025d 02       		.byte	2
 1069 025e 95       		.byte	-107
 1070 025f C0       		.byte	-64
 1071 0260 96       		.byte	-106
 1072 0261 01       		.byte	1
 1073 0262 97       		.byte	-105
 1074 0263 20       		.byte	32
 1075 0264 99       		.byte	-103
 1076 0265 88       		.byte	-120
 1077 0266 9A       		.byte	-102
 1078 0267 02       		.byte	2
 1079 0268 9B       		.byte	-101
 1080 0269 14       		.byte	20
 1081 026a 9D       		.byte	-99
 1082 026b 02       		.byte	2
 1083 026c 9E       		.byte	-98
 1084 026d 04       		.byte	4
 1085 026e 9F       		.byte	-97
 1086 026f F1       		.byte	-15
 1087 0270 A1       		.byte	-95
 1088 0271 C0       		.byte	-64
 1089 0272 A3       		.byte	-93
 1090 0273 10       		.byte	16
 1091 0274 A5       		.byte	-91
ARM GAS  C:\Users\austc\AppData\Local\Temp\cci5Td7B.s 			page 35


 1092 0275 70       		.byte	112
 1093 0276 A9       		.byte	-87
 1094 0277 01       		.byte	1
 1095 0278 AB       		.byte	-85
 1096 0279 02       		.byte	2
 1097 027a AD       		.byte	-83
 1098 027b 01       		.byte	1
 1099 027c AF       		.byte	-81
 1100 027d 02       		.byte	2
 1101 027e B0       		.byte	-80
 1102 027f 01       		.byte	1
 1103 0280 B1       		.byte	-79
 1104 0281 03       		.byte	3
 1105 0282 B2       		.byte	-78
 1106 0283 02       		.byte	2
 1107 0284 B3       		.byte	-77
 1108 0285 F0       		.byte	-16
 1109 0286 B4       		.byte	-76
 1110 0287 04       		.byte	4
 1111 0288 B5       		.byte	-75
 1112 0289 0C       		.byte	12
 1113 028a BB       		.byte	-69
 1114 028b 22       		.byte	34
 1115 028c D4       		.byte	-44
 1116 028d 0F       		.byte	15
 1117 028e D8       		.byte	-40
 1118 028f 04       		.byte	4
 1119 0290 D9       		.byte	-39
 1120 0291 04       		.byte	4
 1121 0292 DB       		.byte	-37
 1122 0293 04       		.byte	4
 1123 0294 DC       		.byte	-36
 1124 0295 11       		.byte	17
 1125 0296 DD       		.byte	-35
 1126 0297 10       		.byte	16
 1127 0298 DF       		.byte	-33
 1128 0299 01       		.byte	1
 1129 029a 00       		.byte	0
 1130 029b 04       		.byte	4
 1131 029c 02       		.byte	2
 1132 029d 80       		.byte	-128
 1133 029e 0A       		.byte	10
 1134 029f 40       		.byte	64
 1135 02a0 0C       		.byte	12
 1136 02a1 08       		.byte	8
 1137 02a2 0D       		.byte	13
 1138 02a3 08       		.byte	8
 1139 02a4 0E       		.byte	14
 1140 02a5 08       		.byte	8
 1141 02a6 0F       		.byte	15
 1142 02a7 02       		.byte	2
 1143 02a8 10       		.byte	16
 1144 02a9 40       		.byte	64
 1145 02aa 11       		.byte	17
 1146 02ab 01       		.byte	1
 1147 02ac 12       		.byte	18
 1148 02ad 10       		.byte	16
ARM GAS  C:\Users\austc\AppData\Local\Temp\cci5Td7B.s 			page 36


 1149 02ae 19       		.byte	25
 1150 02af 81       		.byte	-127
 1151 02b0 1C       		.byte	28
 1152 02b1 28       		.byte	40
 1153 02b2 1E       		.byte	30
 1154 02b3 08       		.byte	8
 1155 02b4 1F       		.byte	31
 1156 02b5 01       		.byte	1
 1157 02b6 23       		.byte	35
 1158 02b7 11       		.byte	17
 1159 02b8 24       		.byte	36
 1160 02b9 20       		.byte	32
 1161 02ba 25       		.byte	37
 1162 02bb 20       		.byte	32
 1163 02bc 26       		.byte	38
 1164 02bd 18       		.byte	24
 1165 02be 27       		.byte	39
 1166 02bf 40       		.byte	64
 1167 02c0 28       		.byte	40
 1168 02c1 10       		.byte	16
 1169 02c2 2A       		.byte	42
 1170 02c3 10       		.byte	16
 1171 02c4 2C       		.byte	44
 1172 02c5 18       		.byte	24
 1173 02c6 2E       		.byte	46
 1174 02c7 06       		.byte	6
 1175 02c8 2F       		.byte	47
 1176 02c9 01       		.byte	1
 1177 02ca 31       		.byte	49
 1178 02cb 20       		.byte	32
 1179 02cc 32       		.byte	50
 1180 02cd 08       		.byte	8
 1181 02ce 33       		.byte	51
 1182 02cf 42       		.byte	66
 1183 02d0 36       		.byte	54
 1184 02d1 18       		.byte	24
 1185 02d2 37       		.byte	55
 1186 02d3 41       		.byte	65
 1187 02d4 38       		.byte	56
 1188 02d5 04       		.byte	4
 1189 02d6 3A       		.byte	58
 1190 02d7 02       		.byte	2
 1191 02d8 3B       		.byte	59
 1192 02d9 41       		.byte	65
 1193 02da 3C       		.byte	60
 1194 02db 2A       		.byte	42
 1195 02dc 3F       		.byte	63
 1196 02dd 42       		.byte	66
 1197 02de 4A       		.byte	74
 1198 02df 01       		.byte	1
 1199 02e0 4B       		.byte	75
 1200 02e1 40       		.byte	64
 1201 02e2 58       		.byte	88
 1202 02e3 40       		.byte	64
 1203 02e4 5B       		.byte	91
 1204 02e5 10       		.byte	16
 1205 02e6 5D       		.byte	93
ARM GAS  C:\Users\austc\AppData\Local\Temp\cci5Td7B.s 			page 37


 1206 02e7 80       		.byte	-128
 1207 02e8 5E       		.byte	94
 1208 02e9 06       		.byte	6
 1209 02ea 5F       		.byte	95
 1210 02eb 10       		.byte	16
 1211 02ec 90       		.byte	-112
 1212 02ed 04       		.byte	4
 1213 02ee 91       		.byte	-111
 1214 02ef 01       		.byte	1
 1215 02f0 92       		.byte	-110
 1216 02f1 44       		.byte	68
 1217 02f2 93       		.byte	-109
 1218 02f3 40       		.byte	64
 1219 02f4 94       		.byte	-108
 1220 02f5 20       		.byte	32
 1221 02f6 97       		.byte	-105
 1222 02f7 01       		.byte	1
 1223 02f8 9A       		.byte	-102
 1224 02f9 10       		.byte	16
 1225 02fa 9B       		.byte	-101
 1226 02fb 01       		.byte	1
 1227 02fc 9F       		.byte	-97
 1228 02fd 40       		.byte	64
 1229 02fe A0       		.byte	-96
 1230 02ff 01       		.byte	1
 1231 0300 A1       		.byte	-95
 1232 0301 08       		.byte	8
 1233 0302 A2       		.byte	-94
 1234 0303 80       		.byte	-128
 1235 0304 A3       		.byte	-93
 1236 0305 02       		.byte	2
 1237 0306 A6       		.byte	-90
 1238 0307 18       		.byte	24
 1239 0308 AE       		.byte	-82
 1240 0309 40       		.byte	64
 1241 030a C0       		.byte	-64
 1242 030b 0C       		.byte	12
 1243 030c C2       		.byte	-62
 1244 030d E8       		.byte	-24
 1245 030e C4       		.byte	-60
 1246 030f 04       		.byte	4
 1247 0310 CA       		.byte	-54
 1248 0311 F6       		.byte	-10
 1249 0312 CC       		.byte	-52
 1250 0313 FF       		.byte	-1
 1251 0314 CE       		.byte	-50
 1252 0315 FB       		.byte	-5
 1253 0316 D6       		.byte	-42
 1254 0317 FC       		.byte	-4
 1255 0318 B5       		.byte	-75
 1256 0319 01       		.byte	1
 1257 031a B7       		.byte	-73
 1258 031b 10       		.byte	16
 1259 031c EE       		.byte	-18
 1260 031d 40       		.byte	64
 1261 031e 0A       		.byte	10
 1262 031f 08       		.byte	8
ARM GAS  C:\Users\austc\AppData\Local\Temp\cci5Td7B.s 			page 38


 1263 0320 0F       		.byte	15
 1264 0321 10       		.byte	16
 1265 0322 6B       		.byte	107
 1266 0323 08       		.byte	8
 1267 0324 6C       		.byte	108
 1268 0325 02       		.byte	2
 1269 0326 8B       		.byte	-117
 1270 0327 10       		.byte	16
 1271 0328 C2       		.byte	-62
 1272 0329 60       		.byte	96
 1273 032a DA       		.byte	-38
 1274 032b C0       		.byte	-64
 1275 032c 0E       		.byte	14
 1276 032d 01       		.byte	1
 1277 032e 8B       		.byte	-117
 1278 032f 08       		.byte	8
 1279 0330 9F       		.byte	-97
 1280 0331 08       		.byte	8
 1281 0332 A4       		.byte	-92
 1282 0333 02       		.byte	2
 1283 0334 AE       		.byte	-82
 1284 0335 04       		.byte	4
 1285 0336 C2       		.byte	-62
 1286 0337 80       		.byte	-128
 1287 0338 EC       		.byte	-20
 1288 0339 10       		.byte	16
 1289 033a A4       		.byte	-92
 1290 033b 02       		.byte	2
 1291 033c AE       		.byte	-82
 1292 033d 01       		.byte	1
 1293 033e E8       		.byte	-24
 1294 033f 10       		.byte	16
 1295 0340 B4       		.byte	-76
 1296 0341 02       		.byte	2
 1297 0342 0F       		.byte	15
 1298 0343 08       		.byte	8
 1299 0344 8F       		.byte	-113
 1300 0345 04       		.byte	4
 1301 0346 C2       		.byte	-62
 1302 0347 01       		.byte	1
 1303 0348 E2       		.byte	-30
 1304 0349 02       		.byte	2
 1305 034a 01       		.byte	1
 1306 034b 0A       		.byte	10
 1307 034c 10       		.byte	16
 1308 034d 0A       		.byte	10
 1309 034e 12       		.byte	18
 1310 034f 0A       		.byte	10
 1311              		.type	cy_cfg_addr_table.5915, %object
 1312              		.size	cy_cfg_addr_table.5915, 56
 1313              	cy_cfg_addr_table.5915:
 1314 0350 02000F40 		.word	1074724866
 1315 0354 3B300F40 		.word	1074737211
 1316 0358 2C310F40 		.word	1074737452
 1317 035c 5E320F40 		.word	1074737758
 1318 0360 3C330F40 		.word	1074737980
 1319 0364 44340F40 		.word	1074738244
ARM GAS  C:\Users\austc\AppData\Local\Temp\cci5Td7B.s 			page 39


 1320 0368 3F350F40 		.word	1074738495
 1321 036c 03370F40 		.word	1074738947
 1322 0370 07400F40 		.word	1074741255
 1323 0374 07410F40 		.word	1074741511
 1324 0378 03420F40 		.word	1074741763
 1325 037c 01430F40 		.word	1074742017
 1326 0380 04450F40 		.word	1074742532
 1327 0384 03600F40 		.word	1074749443
 1328              		.text
 1329              	.Letext0:
 1330              		.file 2 "c:\\program files (x86)\\cypress\\psoc creator\\4.2\\psoc creator\\import\\gnu\\arm\\5.4.
 1331              		.file 3 "Generated_Source\\PSoC4\\cytypes.h"
 1332              		.file 4 "Generated_Source\\PSoC4\\CyLib.h"