ARM GAS  C:\Users\austc\AppData\Local\Temp\cclBatwN.s 			page 1


   1              		.syntax unified
   2              		.cpu cortex-m0
   3              		.fpu softvfp
   4              		.eabi_attribute 20, 1
   5              		.eabi_attribute 21, 1
   6              		.eabi_attribute 23, 3
   7              		.eabi_attribute 24, 1
   8              		.eabi_attribute 25, 1
   9              		.eabi_attribute 26, 1
  10              		.eabi_attribute 30, 1
  11              		.eabi_attribute 34, 0
  12              		.eabi_attribute 18, 4
  13              		.thumb
  14              		.syntax unified
  15              		.file	"main.c"
  16              		.text
  17              	.Ltext0:
  18              		.cfi_sections	.debug_frame
  19              		.section	.text.emergency_halt,"ax",%progbits
  20              		.align	2
  21              		.global	emergency_halt
  22              		.code	16
  23              		.thumb_func
  24              		.type	emergency_halt, %function
  25              	emergency_halt:
  26              	.LFB37:
  27              		.file 1 "main.c"
   1:main.c        **** /* ========================================
   2:main.c        ****  *
   3:main.c        ****  * Copyright YOUR COMPANY, THE YEAR
   4:main.c        ****  * All Rights Reserved
   5:main.c        ****  * UNPUBLISHED, LICENSED SOFTWARE.
   6:main.c        ****  *
   7:main.c        ****  * CONFIDENTIAL AND PROPRIETARY INFORMATION
   8:main.c        ****  * WHICH IS THE PROPERTY OF your company.
   9:main.c        ****  *
  10:main.c        ****  * ========================================
  11:main.c        **** */
  12:main.c        **** #include "project.h"
  13:main.c        **** #include "cyapicallbacks.h"
  14:main.c        **** 
  15:main.c        **** int gear_ratio;
  16:main.c        **** int CAN_TIMEOUT;
  17:main.c        **** #define PWM_PERIOD = 1000;
  18:main.c        **** //uint8 limit_1_pressed = 0;
  19:main.c        **** //uint8 limit_2_pressed = 0;
  20:main.c        **** uint8 emergency = 0;
  21:main.c        **** 
  22:main.c        **** CY_ISR(Pin_Limit_1_Handler){// void Pin_SW_Handler(void)
  23:main.c        ****     set_PWM(0);
  24:main.c        ****   //  limit_1_pressed = 1;
  25:main.c        ****     Pin_Limit_1_ClearInterrupt();
  26:main.c        **** }
  27:main.c        **** 
  28:main.c        **** CY_ISR(Pin_Limit_2_Handler){// void Pin_SW_Handler(void)
  29:main.c        ****     set_PWM(0);
  30:main.c        ****   //  limit_2_pressed = 1;
ARM GAS  C:\Users\austc\AppData\Local\Temp\cclBatwN.s 			page 2


  31:main.c        ****     Pin_Limit_2_ClearInterrupt();
  32:main.c        **** }
  33:main.c        **** 
  34:main.c        **** int main(void)
  35:main.c        **** {
  36:main.c        ****     CyGlobalIntEnable; /* Enable global interrupts. */
  37:main.c        ****     initialize();
  38:main.c        ****     isr_Limit_1_StartEx(Pin_Limit_1_Handler);
  39:main.c        ****     isr_Limit_2_StartEx(Pin_Limit_2_Handler);
  40:main.c        ****     int i = 0;
  41:main.c        ****     int up = 1;
  42:main.c        ****     
  43:main.c        ****     for(;;)
  44:main.c        ****     {
  45:main.c        ****         if(!emergency) {
  46:main.c        ****         Pin_count_10_Write((Status_Reg_Switches_Read() & 0b10) >> 0b1);
  47:main.c        ****         Pin_count_20_Write(Status_Reg_Switches_Read() & 0b01);
  48:main.c        ****         //Pin_debug_Write(QuadDec_GetCounter() % 2);
  49:main.c        ****         //Pin_count_10_Write(QuadDec_GetCounter() % 4);
  50:main.c        ****         //Pin_count_neg_10_Write(QuadDec_GetCounter() % 3);
  51:main.c        ****         //Pin_count_neg_20_Write(QuadDec_GetCounter() %2);
  52:main.c        ****         /*if(QuadDec_GetCounter() < 0) {
  53:main.c        ****             Pin_count_20_Write(1);
  54:main.c        ****         } else {
  55:main.c        ****             Pin_count_20_Write(0);
  56:main.c        ****         }*/
  57:main.c        ****        // check_Pin();
  58:main.c        ****         set_PWM(i); 
  59:main.c        ****         CyDelay(100);
  60:main.c        ****         if(up){
  61:main.c        ****             i += 100;
  62:main.c        ****         } else {
  63:main.c        ****             i -= 100;   
  64:main.c        ****         }
  65:main.c        ****         if(i > 1000) {
  66:main.c        ****             up = 0;   
  67:main.c        ****         } else if (i < -1000) {
  68:main.c        ****             up = 1;
  69:main.c        ****         }
  70:main.c        ****         // inturupts limit switch, stops motor
  71:main.c        ****         // intrupts second priority to read CAN
  72:main.c        ****         // sets PWM
  73:main.c        ****         // hardware encoder counter
  74:main.c        ****         // read pot info
  75:main.c        ****         // Sends to BB info over CAN
  76:main.c        ****         // if no CAN data after ~100ms stop motors
  77:main.c        ****         }
  78:main.c        ****     }
  79:main.c        **** }
  80:main.c        **** /*
  81:main.c        **** void check_Pin(void) {
  82:main.c        ****     if(Status_Reg_Switches_ReadMask() & 0b01) {
  83:main.c        ****         limit_1_pressed = 0;
  84:main.c        ****     }
  85:main.c        ****     if(Status_Reg_Switches_ReadMask() & 0b10) {
  86:main.c        ****         limit_2_pressed = 0;   
  87:main.c        ****     }
ARM GAS  C:\Users\austc\AppData\Local\Temp\cclBatwN.s 			page 3


  88:main.c        **** }
  89:main.c        **** */
  90:main.c        **** void emergency_halt(void) {
  28              		.loc 1 90 0
  29              		.cfi_startproc
  30              		@ args = 0, pretend = 0, frame = 0
  31              		@ frame_needed = 0, uses_anonymous_args = 0
  32 0000 10B5     		push	{r4, lr}
  33              		.cfi_def_cfa_offset 8
  34              		.cfi_offset 4, -8
  35              		.cfi_offset 14, -4
  91:main.c        ****     PWM_Motor_Stop();
  36              		.loc 1 91 0
  37 0002 FFF7FEFF 		bl	PWM_Motor_Stop
  38              	.LVL0:
  92:main.c        ****     emergency = 1;
  39              		.loc 1 92 0
  40 0006 0122     		movs	r2, #1
  41 0008 014B     		ldr	r3, .L2
  42 000a 1A70     		strb	r2, [r3]
  93:main.c        ****     // stops all motors;
  94:main.c        ****     // waits for restart CAN signal.
  95:main.c        **** }
  43              		.loc 1 95 0
  44              		@ sp needed
  45 000c 10BD     		pop	{r4, pc}
  46              	.L3:
  47 000e C046     		.align	2
  48              	.L2:
  49 0010 00000000 		.word	.LANCHOR0
  50              		.cfi_endproc
  51              	.LFE37:
  52              		.size	emergency_halt, .-emergency_halt
  53              		.section	.text.initialize,"ax",%progbits
  54              		.align	2
  55              		.global	initialize
  56              		.code	16
  57              		.thumb_func
  58              		.type	initialize, %function
  59              	initialize:
  60              	.LFB38:
  96:main.c        **** 
  97:main.c        **** void initialize(void) {
  61              		.loc 1 97 0
  62              		.cfi_startproc
  63              		@ args = 0, pretend = 0, frame = 0
  64              		@ frame_needed = 0, uses_anonymous_args = 0
  65 0000 10B5     		push	{r4, lr}
  66              		.cfi_def_cfa_offset 8
  67              		.cfi_offset 4, -8
  68              		.cfi_offset 14, -4
  98:main.c        ****     QuadDec_Start();
  69              		.loc 1 98 0
  70 0002 FFF7FEFF 		bl	QuadDec_Start
  71              	.LVL1:
  99:main.c        ****     PWM_Motor_Start();
  72              		.loc 1 99 0
ARM GAS  C:\Users\austc\AppData\Local\Temp\cclBatwN.s 			page 4


  73 0006 FFF7FEFF 		bl	PWM_Motor_Start
  74              	.LVL2:
 100:main.c        **** }
  75              		.loc 1 100 0
  76              		@ sp needed
  77 000a 10BD     		pop	{r4, pc}
  78              		.cfi_endproc
  79              	.LFE38:
  80              		.size	initialize, .-initialize
  81              		.section	.text.set_PWM,"ax",%progbits
  82              		.align	2
  83              		.global	set_PWM
  84              		.code	16
  85              		.thumb_func
  86              		.type	set_PWM, %function
  87              	set_PWM:
  88              	.LFB39:
 101:main.c        **** /*
 102:main.c        **** void CAN_Read(int *read) {
 103:main.c        ****     // writes to the read array the data that was sent
 104:main.c        **** }
 105:main.c        **** 
 106:main.c        **** void CAN_Send(int count, int8 switch1, int8 switch2 ) {
 107:main.c        ****     // sends enconder count and switch state through can
 108:main.c        **** }
 109:main.c        **** 
 110:main.c        **** uint32 pot_Read(void) {
 111:main.c        ****     // returns a position of the pot
 112:main.c        **** }
 113:main.c        ****  
 114:main.c        **** */
 115:main.c        ****     // takes between -1000 and 1000
 116:main.c        **** void set_PWM(int compare) {
  89              		.loc 1 116 0
  90              		.cfi_startproc
  91              		@ args = 0, pretend = 0, frame = 0
  92              		@ frame_needed = 0, uses_anonymous_args = 0
  93              	.LVL3:
  94 0000 10B5     		push	{r4, lr}
  95              		.cfi_def_cfa_offset 8
  96              		.cfi_offset 4, -8
  97              		.cfi_offset 14, -4
  98 0002 0400     		movs	r4, r0
 117:main.c        ****     if (compare < -1000 || compare > 1000) { return; }
  99              		.loc 1 117 0
 100 0004 FA23     		movs	r3, #250
 101 0006 9B00     		lsls	r3, r3, #2
 102 0008 C218     		adds	r2, r0, r3
 103 000a FA23     		movs	r3, #250
 104 000c DB00     		lsls	r3, r3, #3
 105 000e 9A42     		cmp	r2, r3
 106 0010 1CD8     		bhi	.L5
 118:main.c        ****     if (compare < 0 && !(Status_Reg_Switches_Read() & 0b01)) {
 107              		.loc 1 118 0
 108 0012 0028     		cmp	r0, #0
 109 0014 0ADA     		bge	.L7
 110              		.loc 1 118 0 is_stmt 0 discriminator 1
ARM GAS  C:\Users\austc\AppData\Local\Temp\cclBatwN.s 			page 5


 111 0016 FFF7FEFF 		bl	Status_Reg_Switches_Read
 112              	.LVL4:
 113 001a C307     		lsls	r3, r0, #31
 114 001c 06D4     		bmi	.L7
 119:main.c        ****         Pin_Direction_Write(0);
 115              		.loc 1 119 0 is_stmt 1
 116 001e 0020     		movs	r0, #0
 117 0020 FFF7FEFF 		bl	Pin_Direction_Write
 118              	.LVL5:
 120:main.c        ****         PWM_Motor_WriteCompare(-compare);
 119              		.loc 1 120 0
 120 0024 6042     		rsbs	r0, r4, #0
 121 0026 FFF7FEFF 		bl	PWM_Motor_WriteCompare
 122              	.LVL6:
 123 002a 0FE0     		b	.L5
 124              	.L7:
 121:main.c        ****     } else if (compare > 0 && !(Status_Reg_Switches_Read() & 0b10)){
 125              		.loc 1 121 0
 126 002c 002C     		cmp	r4, #0
 127 002e 0ADD     		ble	.L8
 128              		.loc 1 121 0 is_stmt 0 discriminator 1
 129 0030 FFF7FEFF 		bl	Status_Reg_Switches_Read
 130              	.LVL7:
 131 0034 8307     		lsls	r3, r0, #30
 132 0036 06D4     		bmi	.L8
 122:main.c        ****         Pin_Direction_Write(1);
 133              		.loc 1 122 0 is_stmt 1
 134 0038 0120     		movs	r0, #1
 135 003a FFF7FEFF 		bl	Pin_Direction_Write
 136              	.LVL8:
 123:main.c        ****         PWM_Motor_WriteCompare(compare);
 137              		.loc 1 123 0
 138 003e 2000     		movs	r0, r4
 139 0040 FFF7FEFF 		bl	PWM_Motor_WriteCompare
 140              	.LVL9:
 141 0044 02E0     		b	.L5
 142              	.L8:
 124:main.c        ****     } else {
 125:main.c        ****         PWM_Motor_WriteCompare(0);   
 143              		.loc 1 125 0
 144 0046 0020     		movs	r0, #0
 145 0048 FFF7FEFF 		bl	PWM_Motor_WriteCompare
 146              	.LVL10:
 147              	.L5:
 126:main.c        ****     }
 127:main.c        **** }
 148              		.loc 1 127 0
 149              		@ sp needed
 150              	.LVL11:
 151 004c 10BD     		pop	{r4, pc}
 152              		.cfi_endproc
 153              	.LFE39:
 154              		.size	set_PWM, .-set_PWM
 155 004e C046     		.section	.text.Pin_Limit_1_Handler,"ax",%progbits
 156              		.align	2
 157              		.global	Pin_Limit_1_Handler
 158              		.code	16
ARM GAS  C:\Users\austc\AppData\Local\Temp\cclBatwN.s 			page 6


 159              		.thumb_func
 160              		.type	Pin_Limit_1_Handler, %function
 161              	Pin_Limit_1_Handler:
 162              	.LFB34:
  22:main.c        ****     set_PWM(0);
 163              		.loc 1 22 0
 164              		.cfi_startproc
 165              		@ args = 0, pretend = 0, frame = 0
 166              		@ frame_needed = 0, uses_anonymous_args = 0
 167 0000 10B5     		push	{r4, lr}
 168              		.cfi_def_cfa_offset 8
 169              		.cfi_offset 4, -8
 170              		.cfi_offset 14, -4
  23:main.c        ****   //  limit_1_pressed = 1;
 171              		.loc 1 23 0
 172 0002 0020     		movs	r0, #0
 173 0004 FFF7FEFF 		bl	set_PWM
 174              	.LVL12:
  25:main.c        **** }
 175              		.loc 1 25 0
 176 0008 FFF7FEFF 		bl	Pin_Limit_1_ClearInterrupt
 177              	.LVL13:
  26:main.c        **** 
 178              		.loc 1 26 0
 179              		@ sp needed
 180 000c 10BD     		pop	{r4, pc}
 181              		.cfi_endproc
 182              	.LFE34:
 183              		.size	Pin_Limit_1_Handler, .-Pin_Limit_1_Handler
 184 000e C046     		.section	.text.Pin_Limit_2_Handler,"ax",%progbits
 185              		.align	2
 186              		.global	Pin_Limit_2_Handler
 187              		.code	16
 188              		.thumb_func
 189              		.type	Pin_Limit_2_Handler, %function
 190              	Pin_Limit_2_Handler:
 191              	.LFB35:
  28:main.c        ****     set_PWM(0);
 192              		.loc 1 28 0
 193              		.cfi_startproc
 194              		@ args = 0, pretend = 0, frame = 0
 195              		@ frame_needed = 0, uses_anonymous_args = 0
 196 0000 10B5     		push	{r4, lr}
 197              		.cfi_def_cfa_offset 8
 198              		.cfi_offset 4, -8
 199              		.cfi_offset 14, -4
  29:main.c        ****   //  limit_2_pressed = 1;
 200              		.loc 1 29 0
 201 0002 0020     		movs	r0, #0
 202 0004 FFF7FEFF 		bl	set_PWM
 203              	.LVL14:
  31:main.c        **** }
 204              		.loc 1 31 0
 205 0008 FFF7FEFF 		bl	Pin_Limit_2_ClearInterrupt
 206              	.LVL15:
  32:main.c        **** 
 207              		.loc 1 32 0
ARM GAS  C:\Users\austc\AppData\Local\Temp\cclBatwN.s 			page 7


 208              		@ sp needed
 209 000c 10BD     		pop	{r4, pc}
 210              		.cfi_endproc
 211              	.LFE35:
 212              		.size	Pin_Limit_2_Handler, .-Pin_Limit_2_Handler
 213 000e C046     		.section	.text.main,"ax",%progbits
 214              		.align	2
 215              		.global	main
 216              		.code	16
 217              		.thumb_func
 218              		.type	main, %function
 219              	main:
 220              	.LFB36:
  35:main.c        ****     CyGlobalIntEnable; /* Enable global interrupts. */
 221              		.loc 1 35 0
 222              		.cfi_startproc
 223              		@ args = 0, pretend = 0, frame = 0
 224              		@ frame_needed = 0, uses_anonymous_args = 0
 225 0000 70B5     		push	{r4, r5, r6, lr}
 226              		.cfi_def_cfa_offset 16
 227              		.cfi_offset 4, -16
 228              		.cfi_offset 5, -12
 229              		.cfi_offset 6, -8
 230              		.cfi_offset 14, -4
  36:main.c        ****     initialize();
 231              		.loc 1 36 0
 232              		.syntax divided
 233              	@ 36 "main.c" 1
 234 0002 62B6     		CPSIE   i
 235              	@ 0 "" 2
  37:main.c        ****     isr_Limit_1_StartEx(Pin_Limit_1_Handler);
 236              		.loc 1 37 0
 237              		.thumb
 238              		.syntax unified
 239 0004 FFF7FEFF 		bl	initialize
 240              	.LVL16:
  38:main.c        ****     isr_Limit_2_StartEx(Pin_Limit_2_Handler);
 241              		.loc 1 38 0
 242 0008 1848     		ldr	r0, .L19
 243 000a FFF7FEFF 		bl	isr_Limit_1_StartEx
 244              	.LVL17:
  39:main.c        ****     int i = 0;
 245              		.loc 1 39 0
 246 000e 1848     		ldr	r0, .L19+4
 247 0010 FFF7FEFF 		bl	isr_Limit_2_StartEx
 248              	.LVL18:
  41:main.c        ****     
 249              		.loc 1 41 0
 250 0014 0125     		movs	r5, #1
  40:main.c        ****     int up = 1;
 251              		.loc 1 40 0
 252 0016 0024     		movs	r4, #0
 253 0018 02E0     		b	.L13
 254              	.LVL19:
 255              	.L17:
  66:main.c        ****         } else if (i < -1000) {
 256              		.loc 1 66 0
ARM GAS  C:\Users\austc\AppData\Local\Temp\cclBatwN.s 			page 8


 257 001a 0025     		movs	r5, #0
 258              	.LVL20:
 259 001c 00E0     		b	.L13
 260              	.LVL21:
 261              	.L18:
  68:main.c        ****         }
 262              		.loc 1 68 0
 263 001e 0125     		movs	r5, #1
 264              	.LVL22:
 265              	.L13:
  45:main.c        ****         Pin_count_10_Write((Status_Reg_Switches_Read() & 0b10) >> 0b1);
 266              		.loc 1 45 0
 267 0020 144B     		ldr	r3, .L19+8
 268 0022 1B78     		ldrb	r3, [r3]
 269 0024 002B     		cmp	r3, #0
 270 0026 FBD1     		bne	.L13
  46:main.c        ****         Pin_count_20_Write(Status_Reg_Switches_Read() & 0b01);
 271              		.loc 1 46 0
 272 0028 FFF7FEFF 		bl	Status_Reg_Switches_Read
 273              	.LVL23:
 274 002c 0223     		movs	r3, #2
 275 002e 1840     		ands	r0, r3
 276 0030 4010     		asrs	r0, r0, #1
 277 0032 C0B2     		uxtb	r0, r0
 278 0034 FFF7FEFF 		bl	Pin_count_10_Write
 279              	.LVL24:
  47:main.c        ****         //Pin_debug_Write(QuadDec_GetCounter() % 2);
 280              		.loc 1 47 0
 281 0038 FFF7FEFF 		bl	Status_Reg_Switches_Read
 282              	.LVL25:
 283 003c 0123     		movs	r3, #1
 284 003e 1840     		ands	r0, r3
 285 0040 FFF7FEFF 		bl	Pin_count_20_Write
 286              	.LVL26:
  58:main.c        ****         CyDelay(100);
 287              		.loc 1 58 0
 288 0044 2000     		movs	r0, r4
 289 0046 FFF7FEFF 		bl	set_PWM
 290              	.LVL27:
  59:main.c        ****         if(up){
 291              		.loc 1 59 0
 292 004a 6420     		movs	r0, #100
 293 004c FFF7FEFF 		bl	CyDelay
 294              	.LVL28:
  60:main.c        ****             i += 100;
 295              		.loc 1 60 0
 296 0050 002D     		cmp	r5, #0
 297 0052 01D0     		beq	.L14
  61:main.c        ****         } else {
 298              		.loc 1 61 0
 299 0054 6434     		adds	r4, r4, #100
 300              	.LVL29:
 301 0056 00E0     		b	.L15
 302              	.L14:
  63:main.c        ****         }
 303              		.loc 1 63 0
 304 0058 643C     		subs	r4, r4, #100
ARM GAS  C:\Users\austc\AppData\Local\Temp\cclBatwN.s 			page 9


 305              	.LVL30:
 306              	.L15:
  65:main.c        ****             up = 0;   
 307              		.loc 1 65 0
 308 005a FA23     		movs	r3, #250
 309 005c 9B00     		lsls	r3, r3, #2
 310 005e 9C42     		cmp	r4, r3
 311 0060 DBDC     		bgt	.L17
  67:main.c        ****             up = 1;
 312              		.loc 1 67 0
 313 0062 054B     		ldr	r3, .L19+12
 314 0064 9C42     		cmp	r4, r3
 315 0066 DADB     		blt	.L18
 316 0068 DAE7     		b	.L13
 317              	.L20:
 318 006a C046     		.align	2
 319              	.L19:
 320 006c 00000000 		.word	Pin_Limit_1_Handler
 321 0070 00000000 		.word	Pin_Limit_2_Handler
 322 0074 00000000 		.word	.LANCHOR0
 323 0078 18FCFFFF 		.word	-1000
 324              		.cfi_endproc
 325              	.LFE36:
 326              		.size	main, .-main
 327              		.global	emergency
 328              		.comm	CAN_TIMEOUT,4,4
 329              		.comm	gear_ratio,4,4
 330              		.bss
 331              		.set	.LANCHOR0,. + 0
 332              		.type	emergency, %object
 333              		.size	emergency, 1
 334              	emergency:
 335 0000 00       		.space	1
 336              		.text
 337              	.Letext0:
 338              		.file 2 "Generated_Source\\PSoC4/PWM_Motor.h"
 339              		.file 3 "Generated_Source\\PSoC4/QuadDec.h"
 340              		.file 4 "Generated_Source\\PSoC4/Status_Reg_Switches.h"
 341              		.file 5 "Generated_Source\\PSoC4/Pin_Direction.h"
 342              		.file 6 "Generated_Source\\PSoC4/Pin_Limit_1.h"
 343              		.file 7 "Generated_Source\\PSoC4/Pin_Limit_2.h"
 344              		.file 8 "Generated_Source\\PSoC4/isr_Limit_1.h"
 345              		.file 9 "Generated_Source\\PSoC4/isr_Limit_2.h"
 346              		.file 10 "Generated_Source\\PSoC4/Pin_count_10.h"
 347              		.file 11 "Generated_Source\\PSoC4/Pin_count_20.h"
 348              		.file 12 "Generated_Source\\PSoC4/CyLib.h"
 349              		.file 13 "Generated_Source\\PSoC4/cytypes.h"