ARM GAS  C:\Users\austc\AppData\Local\Temp\ccREwTmP.s 			page 1


   1              		.syntax unified
   2              		.cpu cortex-m0
   3              		.fpu softvfp
   4              		.eabi_attribute 20, 1
   5              		.eabi_attribute 21, 1
   6              		.eabi_attribute 23, 3
   7              		.eabi_attribute 24, 1
   8              		.eabi_attribute 25, 1
   9              		.eabi_attribute 26, 1
  10              		.eabi_attribute 30, 1
  11              		.eabi_attribute 34, 0
  12              		.eabi_attribute 18, 4
  13              		.thumb
  14              		.syntax unified
  15              		.file	"main.c"
  16              		.text
  17              	.Ltext0:
  18              		.cfi_sections	.debug_frame
  19              		.section	.text.ISR_CAN,"ax",%progbits
  20              		.align	2
  21              		.global	ISR_CAN
  22              		.code	16
  23              		.thumb_func
  24              		.type	ISR_CAN, %function
  25              	ISR_CAN:
  26              	.LFB47:
  27              		.file 1 "main.c"
   1:main.c        **** /* ========================================
   2:main.c        ****  *
   3:main.c        ****  * Copyright YOUR COMPANY, THE YEAR
   4:main.c        ****  * All Rights Reserved
   5:main.c        ****  * UNPUBLISHED, LICENSED SOFTWARE.
   6:main.c        ****  *
   7:main.c        ****  * CONFIDENTIAL AND PROPRIETARY INFORMATION
   8:main.c        ****  * WHICH IS THE PROPERTY OF your company.
   9:main.c        ****  *
  10:main.c        ****  * ========================================
  11:main.c        **** */
  12:main.c        **** #include <project.h>
  13:main.c        **** #include "cyapicallbacks.h"
  14:main.c        **** #include <stdio.h>
  15:main.c        **** 
  16:main.c        **** #define REV2
  17:main.c        **** #define LED_ON   (0u)
  18:main.c        **** #define LED_OFF  (1u)
  19:main.c        **** 
  20:main.c        **** //LED
  21:main.c        **** uint8 time_LED = 0;
  22:main.c        **** 
  23:main.c        **** //CAN variables
  24:main.c        **** uint32 message_id = 0;
  25:main.c        **** #define MESSAGE_IDE             (0u)    /* Standard message */
  26:main.c        **** #define MESSAGE_IRQ             (0u)    /* No transmit IRQ */
  27:main.c        **** #define MESSAGE_RTR             (0u)    /* No RTR */
  28:main.c        **** uint16 CAN_RX_MAILBOX_1_SHIFT  = 0b1;
  29:main.c        **** uint32 CAN_RX_MAILBOX_0_SHIFT  = 0b10000000;
  30:main.c        **** uint16 CAN_RX_MAILBOX_1 = 0u;
ARM GAS  C:\Users\austc\AppData\Local\Temp\ccREwTmP.s 			page 2


  31:main.c        **** uint16 CAN_RX_MAILBOX_0 = 7u;
  32:main.c        **** int CAN_TIMEOUT;
  33:main.c        **** 
  34:main.c        **** CY_ISR_PROTO(ISR_CAN);
  35:main.c        **** 
  36:main.c        **** //Uart variables
  37:main.c        **** volatile uint8 uart_debug = 1;
  38:main.c        **** #define TX_DATA_SIZE            (100u)
  39:main.c        **** #define PWM_PERIOD = 255;
  40:main.c        **** 
  41:main.c        **** 
  42:main.c        **** //drive varaible
  43:main.c        **** int GEAR_RATIO;
  44:main.c        **** int pwm_compare;
  45:main.c        **** uint8 invalidate = 0;
  46:main.c        **** 
  47:main.c        **** //PID varaibles
  48:main.c        **** int8 flipEncoder = 1;
  49:main.c        **** int16 final_angle;
  50:main.c        **** int i = 0;
  51:main.c        **** int lastp = 0;
  52:main.c        **** int kp;
  53:main.c        **** int ki;
  54:main.c        **** int kd;
  55:main.c        **** double ratio;
  56:main.c        **** uint8 complete = 0;
  57:main.c        **** uint8 maxV = 0;
  58:main.c        **** 
  59:main.c        **** //drive mode
  60:main.c        **** uint8 mode = 2;
  61:main.c        **** 
  62:main.c        **** //flags
  63:main.c        **** uint8 send_data = 1;
  64:main.c        **** uint8 model_req = 0;
  65:main.c        **** uint8 disable_limit = 0;
  66:main.c        **** 
  67:main.c        **** //Status and Data Structs
  68:main.c        **** struct Can_data Can_rx_pwm, Can_rx_angle;
  69:main.c        **** struct Error stall;
  70:main.c        **** struct Error command_failed;
  71:main.c        **** struct Error invalid_arg;
  72:main.c        **** 
  73:main.c        **** 
  74:main.c        **** int mailbox = 0x000;
  75:main.c        **** uint8 emergency = 0;
  76:main.c        **** char8 txData[TX_DATA_SIZE];
  77:main.c        **** /* Global variables used to store configuration and data for BASIC CAN mailbox */
  78:main.c        **** CAN_DATA_BYTES_MSG data;
  79:main.c        **** CAN_TX_MSG message;
  80:main.c        **** 
  81:main.c        **** volatile uint8 drive = 0;
  82:main.c        **** 
  83:main.c        **** 
  84:main.c        **** CY_ISR(Period_Reset_Handler) {
  85:main.c        ****     int timer = Timer_1_ReadStatusRegister();
  86:main.c        ****     if(uart_debug) {
  87:main.c        ****         sprintf(txData,"Period interupt triggerd %x\r\n", timer);
ARM GAS  C:\Users\austc\AppData\Local\Temp\ccREwTmP.s 			page 3


  88:main.c        ****         //UART_UartPutString(txData);
  89:main.c        ****     }
  90:main.c        ****     send_data = 1;
  91:main.c        ****     invalidate++;
  92:main.c        ****     time_LED++;
  93:main.c        ****     if(invalidate >= 20){
  94:main.c        ****         set_PWM(0);   
  95:main.c        ****         Can_rx_pwm.done = 1;
  96:main.c        ****     }
  97:main.c        ****     
  98:main.c        ****     #ifdef REV2
  99:main.c        ****         if(time_LED >= 10){
 100:main.c        ****             Test_LED_Write(LED_OFF);
 101:main.c        ****         }
 102:main.c        ****     #endif
 103:main.c        **** }
 104:main.c        ****   
 105:main.c        **** CY_ISR(Pin_Limit_Handler){
 106:main.c        ****     if(uart_debug) {
 107:main.c        ****         sprintf(txData,"Limit interupt triggerd\r\n");
 108:main.c        ****         UART_UartPutString(txData);
 109:main.c        ****     }
 110:main.c        ****     set_PWM(pwm_compare);
 111:main.c        ****     QuadDec_SetCounter(0);
 112:main.c        **** }
 113:main.c        **** 
 114:main.c        **** int main(void)
 115:main.c        **** { 
 116:main.c        ****     #ifdef REV2
 117:main.c        ****         Test_LED_Write(LED_ON);
 118:main.c        ****         Error_Write(LED_ON);
 119:main.c        ****     #endif
 120:main.c        ****     stall.code = 0x01;
 121:main.c        ****     stall.done = 1;
 122:main.c        ****     command_failed.code = 0x02;
 123:main.c        ****     command_failed.done = 1;
 124:main.c        ****     invalid_arg.code = 0x03;
 125:main.c        ****     invalid_arg.done = 1;
 126:main.c        ****     uint8 error;
 127:main.c        ****         /* BASIC CAN mailbox configuration */
 128:main.c        ****     message.dlc = 5u;
 129:main.c        ****     message.ide = MESSAGE_IDE;
 130:main.c        ****     message.irq = MESSAGE_IRQ;
 131:main.c        ****     message.msg = &data;
 132:main.c        ****     message.rtr = MESSAGE_RTR;
 133:main.c        ****     
 134:main.c        ****     
 135:main.c        ****     Test_LED_Write(0);
 136:main.c        ****     Error_Write(0);
 137:main.c        **** 
 138:main.c        ****     initialize();
 139:main.c        ****     initialize_can_addr();
 140:main.c        ****     int up = 0;
 141:main.c        ****     pwm_compare = 0;
 142:main.c        ****     set_PWM(0);
 143:main.c        ****     
 144:main.c        ****     #ifdef REV2
ARM GAS  C:\Users\austc\AppData\Local\Temp\ccREwTmP.s 			page 4


 145:main.c        ****         Test_LED_Write(LED_OFF);
 146:main.c        ****         Error_Write(LED_OFF);
 147:main.c        ****     #endif
 148:main.c        ****     
 149:main.c        ****     for(;;)
 150:main.c        ****     {
 151:main.c        ****         if(!emergency) {
 152:main.c        **** 
 153:main.c        ****             //Tests if there are still drive packets that still need to be done
 154:main.c        ****             //drive = !Can_rx_pwm.done | !Can_rx_angle.done;
 155:main.c        ****             
 156:main.c        ****             //Handles Can drive recieve packets
 157:main.c        ****             //if (drive)
 158:main.c        ****             //{           
 159:main.c        ****                 //Mode 0 packets
 160:main.c        ****                 if(!Can_rx_pwm.done) {
 161:main.c        ****                     if(mode == 0) {
 162:main.c        ****                         if(uart_debug) {
 163:main.c        ****                             sprintf(txData, "B1: %d, B2: %d done %x\r\n",Can_rx_pwm.b1, Can_rx_pwm.
 164:main.c        ****                             UART_UartPutString(txData);
 165:main.c        ****                         }
 166:main.c        ****                         Can_rx_pwm.done = 1;
 167:main.c        ****                         if(Can_rx_pwm.b2 & 0b01) {
 168:main.c        ****                             set_PWM((int)Can_rx_pwm.b1);
 169:main.c        ****                         }
 170:main.c        ****                         else {
 171:main.c        ****                             set_PWM(-(int)Can_rx_pwm.b1);
 172:main.c        ****                         }
 173:main.c        ****                     } else {
 174:main.c        ****                         command_failed.done = 0;
 175:main.c        ****                         command_failed.param = 0x02;
 176:main.c        ****                         if(uart_debug) {
 177:main.c        ****                             sprintf(txData, "Mode is not set to 0, mode is %d\r\n",mode);
 178:main.c        ****                             UART_UartPutString(txData);
 179:main.c        ****                         }
 180:main.c        ****                     }
 181:main.c        ****                 }
 182:main.c        ****                 
 183:main.c        ****                 // Mode 1 packets
 184:main.c        ****                // if(!Can_rx_angle.done){
 185:main.c        ****                     if(mode == 1){
 186:main.c        ****                         if(uart_debug) {
 187:main.c        ****                             sprintf(txData, "B1: %d, B3: %d done %x\r\n",Can_rx_angle.b1, Can_rx_an
 188:main.c        ****                             UART_UartPutString(txData);
 189:main.c        ****                         }
 190:main.c        ****                         //Can_rx_angle.done = 1;
 191:main.c        ****                         complete = 0;
 192:main.c        ****                         maxV = Can_rx_angle.b3;
 193:main.c        ****                         i = 0;
 194:main.c        ****                         
 195:main.c        ****                        // final_angle = final_angle | (int16)Can_rx_angle.b2 << 8;
 196:main.c        ****                        // final_angle = final_angle | (int16)Can_rx_angle.b1;
 197:main.c        ****                         final_angle = ((uint16_t)Can_rx_angle.b2) << 8 | Can_rx_angle.b1;
 198:main.c        ****                         set_Position(final_angle);
 199:main.c        ****                     }
 200:main.c        ****                     else if(!Can_rx_pwm.done) {
 201:main.c        ****                         command_failed.done = 0;
ARM GAS  C:\Users\austc\AppData\Local\Temp\ccREwTmP.s 			page 5


 202:main.c        ****                         command_failed.param = 0x04;
 203:main.c        ****                         if(uart_debug) {
 204:main.c        ****                             sprintf(txData, "Mode is not set to 1, mode is %d\r\n", mode);
 205:main.c        ****                             UART_UartPutString(txData);
 206:main.c        ****                         }
 207:main.c        ****                     }
 208:main.c        ****                 //}
 209:main.c        ****                 
 210:main.c        ****                 if(mode != 1 && mode != 0) {
 211:main.c        ****                     Can_rx_angle.done = 1;
 212:main.c        ****                     Can_rx_pwm.done = 1;
 213:main.c        ****                 }
 214:main.c        ****             //}
 215:main.c        ****             
 216:main.c        ****             //Tests if there are any errors
 217:main.c        ****             error = !stall.done | !invalid_arg.done | !command_failed.done; 
 218:main.c        ****             
 219:main.c        ****             //sends errors over CAN
 220:main.c        ****             if(error){
 221:main.c        ****                 if(!stall.done) {
 222:main.c        ****                     CAN_Send_Error(stall.code, stall.param);
 223:main.c        ****                     stall.done = 1;
 224:main.c        ****                 }
 225:main.c        ****                 if(!invalid_arg.done) {
 226:main.c        ****                     CAN_Send_Error(invalid_arg.code, invalid_arg.param);
 227:main.c        ****                     invalid_arg.done = 1;
 228:main.c        ****                 }
 229:main.c        ****                 if(!command_failed.done) {
 230:main.c        ****                     CAN_Send_Error(command_failed.code, command_failed.param);
 231:main.c        ****                     command_failed.done = 1;
 232:main.c        ****                 }
 233:main.c        ****             }
 234:main.c        ****             
 235:main.c        ****             //Sends periodic data
 236:main.c        ****             if(send_data) {
 237:main.c        ****                 if(uart_debug) {
 238:main.c        ****                     sprintf(txData,"\nSending Data... \r\n");
 239:main.c        ****                    // UART_UartPutString(txData);
 240:main.c        ****                 }
 241:main.c        ****                 CAN_Send_Encoder(); 
 242:main.c        ****                 send_data = 0;
 243:main.c        ****             }
 244:main.c        ****             
 245:main.c        ****             //Sends model
 246:main.c        ****             if(model_req) {
 247:main.c        ****                 CAN_Send_Model();
 248:main.c        ****                 model_req = 0;
 249:main.c        ****             }
 250:main.c        ****             //PWM test code
 251:main.c        ****             CyDelay(100);
 252:main.c        ****             if(up){
 253:main.c        ****                 pwm_compare += 10;
 254:main.c        ****             } else {
 255:main.c        ****                 pwm_compare -= 10;   
 256:main.c        ****             }
 257:main.c        ****             if(pwm_compare > 255) {
 258:main.c        ****                 up = 0;   
ARM GAS  C:\Users\austc\AppData\Local\Temp\ccREwTmP.s 			page 6


 259:main.c        ****             } else if (pwm_compare < -255) {
 260:main.c        ****                 up = 1;
 261:main.c        ****             }
 262:main.c        ****             set_PWM(pwm_compare);
 263:main.c        ****             
 264:main.c        **** 
 265:main.c        ****         }
 266:main.c        ****     }
 267:main.c        **** }
 268:main.c        **** 
 269:main.c        **** void emergency_halt(void) {
 270:main.c        ****     PWM_Motor_Stop();
 271:main.c        ****     emergency = 1;
 272:main.c        ****     // stops all motors;
 273:main.c        ****     // waits for restart CAN signal.
 274:main.c        **** }
 275:main.c        **** 
 276:main.c        **** void initialize(void) {
 277:main.c        ****     
 278:main.c        ****     int can_start = CAN_Start();
 279:main.c        ****     Status_Reg_Switches_InterruptEnable();
 280:main.c        ****     Timer_1_Start();
 281:main.c        ****    // ADC_SAR_Seq_1_Start();
 282:main.c        ****     //ADC_SAR_Seq_1_StartConvert();
 283:main.c        ****     QuadDec_Start();
 284:main.c        ****     PWM_Motor_Start();  
 285:main.c        ****     
 286:main.c        ****     CAN_GlobalIntEnable();
 287:main.c        ****     CyIntSetVector(CAN_ISR_NUMBER, ISR_CAN);
 288:main.c        ****     CyGlobalIntEnable; /* Enable global interrupts. */
 289:main.c        ****     isr_Limit_1_StartEx(Pin_Limit_Handler);
 290:main.c        ****     isr_period_StartEx(Period_Reset_Handler);
 291:main.c        ****     
 292:main.c        ****     if(uart_debug) {
 293:main.c        ****         UART_Start();
 294:main.c        ****         sprintf(txData, "CAN_Start():  %u\r\n",can_start);
 295:main.c        ****         UART_UartPutString(txData); 
 296:main.c        ****     }
 297:main.c        **** }
 298:main.c        **** 
 299:main.c        **** //Recieve:
 300:main.c        **** //1 00010 10000 0x450 BBB to base rotation
 301:main.c        **** //1 00010 10001 0x451 
 302:main.c        **** //1 00010 10010 0x452
 303:main.c        **** //1 00010 10011 0x453
 304:main.c        **** //1 00010 10100 0x454
 305:main.c        **** //1 00010 10101 0x455
 306:main.c        **** //1 00010 10110 0x456
 307:main.c        **** //Send:
 308:main.c        **** //1 10000 00010 0x602 base rotation to BBB 
 309:main.c        **** //1 10001 00010 0x622 shoulder to BBB
 310:main.c        **** //1 10010 00010 0x642 elbow ""
 311:main.c        **** //1 10011 00010 0x662 forearm rotation ""
 312:main.c        **** //1 10100 00010 0x682 diff wrist 1 ""
 313:main.c        **** //1 10101 00010 0x6A2 diff wrist 2 ""
 314:main.c        **** //1 10110 00010 0x6C2 hand ""
 315:main.c        **** void initialize_can_addr(void) {
ARM GAS  C:\Users\austc\AppData\Local\Temp\ccREwTmP.s 			page 7


 316:main.c        ****     uint8 setting = Can_addr_Read();
 317:main.c        ****     uint8 shift = 0;
 318:main.c        ****     switch(Can_addr_Read()) {
 319:main.c        ****         case 0b000: //Base rotation
 320:main.c        ****             message_id = 0b10000;
 321:main.c        ****             shift = 0;
 322:main.c        ****             ratio = 1;
 323:main.c        ****             break;
 324:main.c        ****         case 0b001: // shoulder
 325:main.c        ****             message_id = 0b10001;
 326:main.c        ****             shift = 1;
 327:main.c        ****             ratio = 39.6;
 328:main.c        ****            // flipEncoder = -1;
 329:main.c        ****             kp = 50;
 330:main.c        ****             ki = 3;
 331:main.c        ****             kd = 10;
 332:main.c        ****             break;
 333:main.c        ****         case 0b010: // elbow
 334:main.c        ****             message_id = 0b10010;
 335:main.c        ****             shift = 2;
 336:main.c        ****             ratio = 2.8;
 337:main.c        ****             break;
 338:main.c        ****         case 0b011: // forearm rotation
 339:main.c        ****             message_id = 0b10011;
 340:main.c        ****             disable_limit = 1;
 341:main.c        ****             shift = 3;
 342:main.c        ****             ratio = 1;
 343:main.c        **** 
 344:main.c        ****             break;
 345:main.c        ****         case 0b100: // diff wrist 1
 346:main.c        ****             message_id = 0b10100;
 347:main.c        ****             disable_limit = 1;
 348:main.c        ****             shift = 4;
 349:main.c        ****             ratio = 1;
 350:main.c        ****             kp = 20;
 351:main.c        ****             ki = 30;
 352:main.c        ****             kd = 10;
 353:main.c        ****             flipEncoder = -1;
 354:main.c        ****             break;
 355:main.c        ****         case 0b101: // diff wrist 2
 356:main.c        ****             message_id = 0b10101;
 357:main.c        ****             disable_limit = 1;
 358:main.c        ****             shift = 5;
 359:main.c        ****             ratio = 1;
 360:main.c        ****             kp = 20;
 361:main.c        ****             ki = 30;
 362:main.c        ****             kd = 10;
 363:main.c        ****             break;
 364:main.c        ****         case 0b110: // hand
 365:main.c        ****             message_id = 0b10110;
 366:main.c        ****             shift = 6;
 367:main.c        ****             ratio = 1;
 368:main.c        ****             break;
 369:main.c        ****     }
 370:main.c        ****     
 371:main.c        ****     CAN_RX_MAILBOX_0_SHIFT = CAN_RX_MAILBOX_0_SHIFT << shift;
 372:main.c        ****     CAN_RX_MAILBOX_1_SHIFT = CAN_RX_MAILBOX_1_SHIFT << shift;
ARM GAS  C:\Users\austc\AppData\Local\Temp\ccREwTmP.s 			page 8


 373:main.c        ****     CAN_RX_MAILBOX_0 += shift;
 374:main.c        ****     CAN_RX_MAILBOX_1 += shift;
 375:main.c        ****     set_CAN_ID(0b1);
 376:main.c        ****     
 377:main.c        ****     if(uart_debug) {
 378:main.c        ****         sprintf(txData, "CAN dip setting:  %x Message ID: %ld\r\n",setting, message_id);
 379:main.c        ****         UART_UartPutString(txData); 
 380:main.c        ****         sprintf(txData, "Can shift: %d   P0Mailbox: %d P1Mailbox %d\r\n",shift, CAN_RX_MAILBOX_0, C
 381:main.c        ****         UART_UartPutString(txData); 
 382:main.c        ****     }
 383:main.c        **** }
 384:main.c        **** 
 385:main.c        **** void set_CAN_ID(uint32 priority) {
 386:main.c        ****     message.id = (priority << 10) | (message_id << 5) | 0b00010;
 387:main.c        **** }
 388:main.c        **** 
 389:main.c        ****     // takes between -255 and 255
 390:main.c        **** void set_PWM(int compare) {
 391:main.c        ****     pwm_compare = compare;
 392:main.c        ****     if(uart_debug) {
 393:main.c        ****         sprintf(txData, "PWM:%d\r\n",compare);
 394:main.c        ****         UART_UartPutString(txData); 
 395:main.c        ****     }
 396:main.c        ****     invalidate = 0;
 397:main.c        ****     if (compare < -255 || compare > 255) { return; }
 398:main.c        ****     uint8 status = Status_Reg_Switches_Read();
 399:main.c        ****     if (compare < 0 && (!(status & 0b01) || disable_limit) ) {
 400:main.c        ****         Pin_Direction_Write(0);
 401:main.c        ****         PWM_Motor_WriteCompare(-compare);
 402:main.c        ****     } else if (compare > 0 && (!(status & 0b10) || disable_limit) ){
 403:main.c        ****         Pin_Direction_Write(1);
 404:main.c        ****         PWM_Motor_WriteCompare(compare);
 405:main.c        ****     } else {
 406:main.c        ****         PWM_Motor_WriteCompare(0);
 407:main.c        ****         
 408:main.c        ****     }
 409:main.c        **** }
 410:main.c        **** 
 411:main.c        **** void CAN_Send_Encoder(void){
 412:main.c        ****     int16 ticks = QuadDec_GetCounter();
 413:main.c        ****     data.byte[0u] = 0x14u;
 414:main.c        ****     data.byte[1u] = LO8(ticks);
 415:main.c        ****     data.byte[2u] = HI8(ticks);
 416:main.c        ****     data.byte[3u] = 0;
 417:main.c        ****     data.byte[4u] = 0;
 418:main.c        ****     CAN_SendMsg(&message);
 419:main.c        ****     if(uart_debug == 2) {
 420:main.c        ****         sprintf(txData, "CAN_Send_Encoder: byte[0u] %x byte[1u] %x byte[2u] %x\n QuadDec Count %d\r
 421:main.c        ****             data.byte[0u],data.byte[1u],data.byte[2u],
 422:main.c        ****             QuadDec_GetCounter());
 423:main.c        ****         UART_UartPutString(txData);    
 424:main.c        ****     }
 425:main.c        **** }
 426:main.c        **** 
 427:main.c        **** void CAN_Send_Telemetry(void) {
 428:main.c        ****     data.byte[0u] = 0x18u;
 429:main.c        ****     data.byte[1u] = 0;
ARM GAS  C:\Users\austc\AppData\Local\Temp\ccREwTmP.s 			page 9


 430:main.c        ****     data.byte[2u] = 0;
 431:main.c        ****     data.byte[3u] = 0;
 432:main.c        ****     data.byte[4u] = 0;
 433:main.c        ****     CAN_SendMsg(&message);
 434:main.c        ****     if(uart_debug == 2) {
 435:main.c        ****         sprintf(txData, "Telemerty: byte[0u] %x byte[1u] %x\r\n",(uint8)data.byte[0u],(uint8)data.b
 436:main.c        ****         UART_UartPutString(txData); 
 437:main.c        ****     }
 438:main.c        **** }
 439:main.c        **** 
 440:main.c        **** void CAN_Send_Model(void) {
 441:main.c        ****     data.byte[0u] = 0x12u;
 442:main.c        ****     data.byte[1u] = 0x00u;
 443:main.c        ****     data.byte[2u] = 0;
 444:main.c        ****     data.byte[3u] = 0;
 445:main.c        ****     data.byte[4u] = 0;
 446:main.c        ****     CAN_SendMsg(&message);
 447:main.c        ****     if(uart_debug == 2) {
 448:main.c        ****         sprintf(txData, "Model: byte[0u] %x byte[1u] %x\r\n",data.byte[0u],data.byte[1u]);
 449:main.c        ****         UART_UartPutString(txData); 
 450:main.c        ****     }
 451:main.c        **** }
 452:main.c        **** 
 453:main.c        **** void CAN_Send_Error(uint8 code, uint8 param) {
 454:main.c        ****     data.byte[0u] = 0xffu;
 455:main.c        ****     data.byte[1u] = code;
 456:main.c        ****     data.byte[2u] = param;
 457:main.c        ****     data.byte[3u] = 0;
 458:main.c        ****     data.byte[4u] = 0;
 459:main.c        ****     CAN_SendMsg(&message);
 460:main.c        ****     if(uart_debug == 2) {
 461:main.c        ****         sprintf(txData, "Error: byte[0u] %x byte[1u] %x byte[2u] %x\r\n",data.byte[0u],data.byte[1u
 462:main.c        ****         UART_UartPutString(txData); 
 463:main.c        ****     }
 464:main.c        **** }
 465:main.c        **** 
 466:main.c        **** CY_ISR(ISR_CAN)
 467:main.c        **** {
  28              		.loc 1 467 0
  29              		.cfi_startproc
  30              		@ args = 0, pretend = 0, frame = 0
  31              		@ frame_needed = 0, uses_anonymous_args = 0
  32 0000 10B5     		push	{r4, lr}
  33              		.cfi_def_cfa_offset 8
  34              		.cfi_offset 4, -8
  35              		.cfi_offset 14, -4
 468:main.c        ****     /* Clear Receive Message flag */
 469:main.c        ****     CAN_INT_SR_REG = CAN_RX_MESSAGE_MASK;
  36              		.loc 1 469 0
  37 0002 8022     		movs	r2, #128
  38 0004 5201     		lsls	r2, r2, #5
  39 0006 714B     		ldr	r3, .L21
  40 0008 1A60     		str	r2, [r3]
 470:main.c        ****     if(uart_debug) {
  41              		.loc 1 470 0
  42 000a 714B     		ldr	r3, .L21+4
  43 000c 1B78     		ldrb	r3, [r3]
ARM GAS  C:\Users\austc\AppData\Local\Temp\ccREwTmP.s 			page 10


  44 000e 002B     		cmp	r3, #0
  45 0010 02D0     		beq	.L2
 471:main.c        ****         UART_UartPutString("\n Can rx triggered\n");   
  46              		.loc 1 471 0
  47 0012 7048     		ldr	r0, .L21+8
  48 0014 FFF7FEFF 		bl	UART_UartPutString
  49              	.LVL0:
  50              	.L2:
 472:main.c        ****     }
 473:main.c        ****     /* Switch status message received */
 474:main.c        ****     if ((CAN_BUF_SR_REG & CAN_RX_MAILBOX_0_SHIFT) != 0u)
  51              		.loc 1 474 0
  52 0018 6F4B     		ldr	r3, .L21+12
  53 001a 1B68     		ldr	r3, [r3]
  54 001c 6C4A     		ldr	r2, .L21+4
  55 001e 5268     		ldr	r2, [r2, #4]
  56 0020 1A42     		tst	r2, r3
  57 0022 66D0     		beq	.L3
 475:main.c        ****     {   
 476:main.c        ****         if(uart_debug){
  58              		.loc 1 476 0
  59 0024 6A4B     		ldr	r3, .L21+4
  60 0026 1B78     		ldrb	r3, [r3]
  61 0028 002B     		cmp	r3, #0
  62 002a 02D0     		beq	.L4
 477:main.c        ****             UART_UartPutString("P0 recieved\n");    
  63              		.loc 1 477 0
  64 002c 6B48     		ldr	r0, .L21+16
  65 002e FFF7FEFF 		bl	UART_UartPutString
  66              	.LVL1:
  67              	.L4:
 478:main.c        ****         }
 479:main.c        ****         #ifdef REV2
 480:main.c        ****         time_LED = 0;
  68              		.loc 1 480 0
  69 0032 0022     		movs	r2, #0
  70 0034 6A4B     		ldr	r3, .L21+20
  71 0036 1A70     		strb	r2, [r3]
 481:main.c        ****         Test_LED_Write(LED_ON);
  72              		.loc 1 481 0
  73 0038 0020     		movs	r0, #0
  74 003a FFF7FEFF 		bl	Test_LED_Write
  75              	.LVL2:
 482:main.c        ****         set_data(CAN_RX_MAILBOX_0);
  76              		.loc 1 482 0
  77 003e 644B     		ldr	r3, .L21+4
  78 0040 1B89     		ldrh	r3, [r3, #8]
  79              	.LVL3:
  80              	.LBB6:
  81              	.LBB7:
 483:main.c        ****         #endif
 484:main.c        ****         /* Acknowledges receipt of new message */
 485:main.c        ****         CAN_RX_ACK_MESSAGE(CAN_RX_MAILBOX_0);
 486:main.c        ****     }
 487:main.c        **** 
 488:main.c        ****     if ((CAN_BUF_SR_REG & CAN_RX_MAILBOX_1_SHIFT) != 0u)
 489:main.c        ****     {
ARM GAS  C:\Users\austc\AppData\Local\Temp\ccREwTmP.s 			page 11


 490:main.c        ****         if(uart_debug){
 491:main.c        ****             UART_UartPutString("P1 recieved\n\n");    
 492:main.c        ****         }
 493:main.c        ****         #ifdef REV2
 494:main.c        ****         time_LED = 0;
 495:main.c        ****         Test_LED_Write(LED_ON);
 496:main.c        ****         set_data(CAN_RX_MAILBOX_1);
 497:main.c        ****         #endif
 498:main.c        ****         /* Acknowledges receipt of new message */
 499:main.c        ****         CAN_RX_ACK_MESSAGE(CAN_RX_MAILBOX_1);
 500:main.c        ****     }
 501:main.c        ****     
 502:main.c        **** }
 503:main.c        **** 
 504:main.c        **** inline void set_data(uint16 addr){
 505:main.c        ****         //set mode
 506:main.c        ****         if(CAN_RX_DATA_BYTE1(addr) == 0x00) {
  82              		.loc 1 506 0
  83 0042 5B01     		lsls	r3, r3, #5
  84              	.LVL4:
  85 0044 674A     		ldr	r2, .L21+24
  86 0046 9446     		mov	ip, r2
  87 0048 6344     		add	r3, r3, ip
  88 004a 9A68     		ldr	r2, [r3, #8]
  89 004c 120E     		lsrs	r2, r2, #24
  90 004e 16D1     		bne	.L5
 507:main.c        ****             if(CAN_RX_DATA_BYTE2(addr) == 1 || CAN_RX_DATA_BYTE2(addr) == 0) {
  91              		.loc 1 507 0
  92 0050 9A68     		ldr	r2, [r3, #8]
  93 0052 120C     		lsrs	r2, r2, #16
  94 0054 FF21     		movs	r1, #255
  95 0056 0A40     		ands	r2, r1
  96 0058 012A     		cmp	r2, #1
  97 005a 03D0     		beq	.L6
  98 005c 9A68     		ldr	r2, [r3, #8]
  99 005e 120C     		lsrs	r2, r2, #16
 100 0060 1142     		tst	r1, r2
 101 0062 04D1     		bne	.L7
 102              	.L6:
 508:main.c        ****                 mode = CAN_RX_DATA_BYTE2(addr);
 103              		.loc 1 508 0
 104 0064 9B68     		ldr	r3, [r3, #8]
 105 0066 1B0C     		lsrs	r3, r3, #16
 106 0068 594A     		ldr	r2, .L21+4
 107 006a 9372     		strb	r3, [r2, #10]
 108 006c 03E0     		b	.L8
 109              	.L7:
 509:main.c        ****             }
 510:main.c        ****             else {
 511:main.c        ****                 invalid_arg.param = 0x00;
 110              		.loc 1 511 0
 111 006e 5E4B     		ldr	r3, .L21+28
 112 0070 0022     		movs	r2, #0
 113 0072 5A70     		strb	r2, [r3, #1]
 512:main.c        ****                 invalid_arg.done = 0;
 114              		.loc 1 512 0
 115 0074 9A70     		strb	r2, [r3, #2]
ARM GAS  C:\Users\austc\AppData\Local\Temp\ccREwTmP.s 			page 12


 116              	.L8:
 513:main.c        ****             }
 514:main.c        ****             complete = 1;
 117              		.loc 1 514 0
 118 0076 0122     		movs	r2, #1
 119 0078 594B     		ldr	r3, .L21+20
 120 007a 5A70     		strb	r2, [r3, #1]
 121 007c 2FE0     		b	.L9
 122              	.L5:
 515:main.c        ****         } 
 516:main.c        ****         //pwm
 517:main.c        ****         else if(CAN_RX_DATA_BYTE1(addr) == 0x02) {
 123              		.loc 1 517 0
 124 007e 9A68     		ldr	r2, [r3, #8]
 125 0080 120E     		lsrs	r2, r2, #24
 126 0082 022A     		cmp	r2, #2
 127 0084 0ED1     		bne	.L10
 518:main.c        ****             Can_rx_pwm.b1 = CAN_RX_DATA_BYTE2(addr);
 128              		.loc 1 518 0
 129 0086 9968     		ldr	r1, [r3, #8]
 130 0088 090C     		lsrs	r1, r1, #16
 131 008a 584A     		ldr	r2, .L21+32
 132 008c 5170     		strb	r1, [r2, #1]
 519:main.c        ****             Can_rx_pwm.b2 = CAN_RX_DATA_BYTE3(addr);
 133              		.loc 1 519 0
 134 008e 9968     		ldr	r1, [r3, #8]
 135 0090 090A     		lsrs	r1, r1, #8
 136 0092 9170     		strb	r1, [r2, #2]
 520:main.c        ****             Can_rx_pwm.b3 = CAN_RX_DATA_BYTE4(addr);
 137              		.loc 1 520 0
 138 0094 9968     		ldr	r1, [r3, #8]
 139 0096 D170     		strb	r1, [r2, #3]
 521:main.c        ****             Can_rx_pwm.b4 = CAN_RX_DATA_BYTE5(addr);
 140              		.loc 1 521 0
 141 0098 DB68     		ldr	r3, [r3, #12]
 142 009a 1B0E     		lsrs	r3, r3, #24
 143 009c 1371     		strb	r3, [r2, #4]
 522:main.c        ****             Can_rx_pwm.done = 0;
 144              		.loc 1 522 0
 145 009e 0023     		movs	r3, #0
 146 00a0 5371     		strb	r3, [r2, #5]
 147 00a2 1CE0     		b	.L9
 148              	.L10:
 523:main.c        ****         } 
 524:main.c        ****         //angle
 525:main.c        ****         else if(CAN_RX_DATA_BYTE1(addr) == 0x04) {
 149              		.loc 1 525 0
 150 00a4 9A68     		ldr	r2, [r3, #8]
 151 00a6 120E     		lsrs	r2, r2, #24
 152 00a8 042A     		cmp	r2, #4
 153 00aa 11D1     		bne	.L11
 526:main.c        ****             Can_rx_angle.b1 = CAN_RX_DATA_BYTE2(addr);
 154              		.loc 1 526 0
 155 00ac 9968     		ldr	r1, [r3, #8]
 156 00ae 090C     		lsrs	r1, r1, #16
 157 00b0 4F4A     		ldr	r2, .L21+36
 158 00b2 5170     		strb	r1, [r2, #1]
ARM GAS  C:\Users\austc\AppData\Local\Temp\ccREwTmP.s 			page 13


 527:main.c        ****             Can_rx_angle.b2 = CAN_RX_DATA_BYTE3(addr);
 159              		.loc 1 527 0
 160 00b4 9968     		ldr	r1, [r3, #8]
 161 00b6 090A     		lsrs	r1, r1, #8
 162 00b8 9170     		strb	r1, [r2, #2]
 528:main.c        ****             Can_rx_angle.b3 = CAN_RX_DATA_BYTE4(addr);
 163              		.loc 1 528 0
 164 00ba 9968     		ldr	r1, [r3, #8]
 165 00bc D170     		strb	r1, [r2, #3]
 529:main.c        ****             Can_rx_angle.b4 = CAN_RX_DATA_BYTE5(addr);
 166              		.loc 1 529 0
 167 00be DB68     		ldr	r3, [r3, #12]
 168 00c0 1B0E     		lsrs	r3, r3, #24
 169 00c2 1371     		strb	r3, [r2, #4]
 530:main.c        ****             Can_rx_angle.done = 0;
 170              		.loc 1 530 0
 171 00c4 0023     		movs	r3, #0
 172 00c6 5371     		strb	r3, [r2, #5]
 531:main.c        ****             complete = 1;
 173              		.loc 1 531 0
 174 00c8 0122     		movs	r2, #1
 175 00ca 454B     		ldr	r3, .L21+20
 176 00cc 5A70     		strb	r2, [r3, #1]
 177 00ce 06E0     		b	.L9
 178              	.L11:
 532:main.c        ****         } 
 533:main.c        ****         //model requst
 534:main.c        ****         else if (CAN_RX_DATA_BYTE1(addr) == 0x10){
 179              		.loc 1 534 0
 180 00d0 9B68     		ldr	r3, [r3, #8]
 181 00d2 1B0E     		lsrs	r3, r3, #24
 182 00d4 102B     		cmp	r3, #16
 183 00d6 02D1     		bne	.L9
 535:main.c        ****             model_req = 1;
 184              		.loc 1 535 0
 185 00d8 0122     		movs	r2, #1
 186 00da 414B     		ldr	r3, .L21+20
 187 00dc 9A70     		strb	r2, [r3, #2]
 188              	.L9:
 189              	.LVL5:
 190              	.LBE7:
 191              	.LBE6:
 485:main.c        ****     }
 192              		.loc 1 485 0
 193 00de 3C4B     		ldr	r3, .L21+4
 194 00e0 1B89     		ldrh	r3, [r3, #8]
 195 00e2 5B01     		lsls	r3, r3, #5
 196 00e4 3F4A     		ldr	r2, .L21+24
 197 00e6 9446     		mov	ip, r2
 198 00e8 6344     		add	r3, r3, ip
 199 00ea 1968     		ldr	r1, [r3]
 200 00ec 0122     		movs	r2, #1
 201 00ee 0A43     		orrs	r2, r1
 202 00f0 1A60     		str	r2, [r3]
 203              	.L3:
 488:main.c        ****     {
 204              		.loc 1 488 0
ARM GAS  C:\Users\austc\AppData\Local\Temp\ccREwTmP.s 			page 14


 205 00f2 394B     		ldr	r3, .L21+12
 206 00f4 1A68     		ldr	r2, [r3]
 207 00f6 364B     		ldr	r3, .L21+4
 208 00f8 9B89     		ldrh	r3, [r3, #12]
 209 00fa 1A42     		tst	r2, r3
 210 00fc 65D0     		beq	.L1
 490:main.c        ****             UART_UartPutString("P1 recieved\n\n");    
 211              		.loc 1 490 0
 212 00fe 344B     		ldr	r3, .L21+4
 213 0100 1B78     		ldrb	r3, [r3]
 214 0102 002B     		cmp	r3, #0
 215 0104 02D0     		beq	.L13
 491:main.c        ****         }
 216              		.loc 1 491 0
 217 0106 3B48     		ldr	r0, .L21+40
 218 0108 FFF7FEFF 		bl	UART_UartPutString
 219              	.LVL6:
 220              	.L13:
 494:main.c        ****         Test_LED_Write(LED_ON);
 221              		.loc 1 494 0
 222 010c 344C     		ldr	r4, .L21+20
 223 010e 0023     		movs	r3, #0
 224 0110 2370     		strb	r3, [r4]
 495:main.c        ****         set_data(CAN_RX_MAILBOX_1);
 225              		.loc 1 495 0
 226 0112 0020     		movs	r0, #0
 227 0114 FFF7FEFF 		bl	Test_LED_Write
 228              	.LVL7:
 496:main.c        ****         #endif
 229              		.loc 1 496 0
 230 0118 A388     		ldrh	r3, [r4, #4]
 231              	.LVL8:
 232              	.LBB8:
 233              	.LBB9:
 506:main.c        ****             if(CAN_RX_DATA_BYTE2(addr) == 1 || CAN_RX_DATA_BYTE2(addr) == 0) {
 234              		.loc 1 506 0
 235 011a 5B01     		lsls	r3, r3, #5
 236              	.LVL9:
 237 011c 314A     		ldr	r2, .L21+24
 238 011e 9446     		mov	ip, r2
 239 0120 6344     		add	r3, r3, ip
 240 0122 9A68     		ldr	r2, [r3, #8]
 241 0124 120E     		lsrs	r2, r2, #24
 242 0126 16D1     		bne	.L14
 507:main.c        ****                 mode = CAN_RX_DATA_BYTE2(addr);
 243              		.loc 1 507 0
 244 0128 9A68     		ldr	r2, [r3, #8]
 245 012a 120C     		lsrs	r2, r2, #16
 246 012c FF21     		movs	r1, #255
 247 012e 0A40     		ands	r2, r1
 248 0130 012A     		cmp	r2, #1
 249 0132 03D0     		beq	.L15
 250 0134 9A68     		ldr	r2, [r3, #8]
 251 0136 120C     		lsrs	r2, r2, #16
 252 0138 1142     		tst	r1, r2
 253 013a 04D1     		bne	.L16
 254              	.L15:
ARM GAS  C:\Users\austc\AppData\Local\Temp\ccREwTmP.s 			page 15


 508:main.c        ****             }
 255              		.loc 1 508 0
 256 013c 9B68     		ldr	r3, [r3, #8]
 257 013e 1B0C     		lsrs	r3, r3, #16
 258 0140 234A     		ldr	r2, .L21+4
 259 0142 9372     		strb	r3, [r2, #10]
 260 0144 03E0     		b	.L17
 261              	.L16:
 511:main.c        ****                 invalid_arg.done = 0;
 262              		.loc 1 511 0
 263 0146 284B     		ldr	r3, .L21+28
 264 0148 0022     		movs	r2, #0
 265 014a 5A70     		strb	r2, [r3, #1]
 512:main.c        ****             }
 266              		.loc 1 512 0
 267 014c 9A70     		strb	r2, [r3, #2]
 268              	.L17:
 514:main.c        ****         } 
 269              		.loc 1 514 0
 270 014e 0122     		movs	r2, #1
 271 0150 234B     		ldr	r3, .L21+20
 272 0152 5A70     		strb	r2, [r3, #1]
 273 0154 2FE0     		b	.L18
 274              	.L14:
 517:main.c        ****             Can_rx_pwm.b1 = CAN_RX_DATA_BYTE2(addr);
 275              		.loc 1 517 0
 276 0156 9A68     		ldr	r2, [r3, #8]
 277 0158 120E     		lsrs	r2, r2, #24
 278 015a 022A     		cmp	r2, #2
 279 015c 0ED1     		bne	.L19
 518:main.c        ****             Can_rx_pwm.b2 = CAN_RX_DATA_BYTE3(addr);
 280              		.loc 1 518 0
 281 015e 9968     		ldr	r1, [r3, #8]
 282 0160 090C     		lsrs	r1, r1, #16
 283 0162 224A     		ldr	r2, .L21+32
 284 0164 5170     		strb	r1, [r2, #1]
 519:main.c        ****             Can_rx_pwm.b3 = CAN_RX_DATA_BYTE4(addr);
 285              		.loc 1 519 0
 286 0166 9968     		ldr	r1, [r3, #8]
 287 0168 090A     		lsrs	r1, r1, #8
 288 016a 9170     		strb	r1, [r2, #2]
 520:main.c        ****             Can_rx_pwm.b4 = CAN_RX_DATA_BYTE5(addr);
 289              		.loc 1 520 0
 290 016c 9968     		ldr	r1, [r3, #8]
 291 016e D170     		strb	r1, [r2, #3]
 521:main.c        ****             Can_rx_pwm.done = 0;
 292              		.loc 1 521 0
 293 0170 DB68     		ldr	r3, [r3, #12]
 294 0172 1B0E     		lsrs	r3, r3, #24
 295 0174 1371     		strb	r3, [r2, #4]
 522:main.c        ****         } 
 296              		.loc 1 522 0
 297 0176 0023     		movs	r3, #0
 298 0178 5371     		strb	r3, [r2, #5]
 299 017a 1CE0     		b	.L18
 300              	.L19:
 525:main.c        ****             Can_rx_angle.b1 = CAN_RX_DATA_BYTE2(addr);
ARM GAS  C:\Users\austc\AppData\Local\Temp\ccREwTmP.s 			page 16


 301              		.loc 1 525 0
 302 017c 9A68     		ldr	r2, [r3, #8]
 303 017e 120E     		lsrs	r2, r2, #24
 304 0180 042A     		cmp	r2, #4
 305 0182 11D1     		bne	.L20
 526:main.c        ****             Can_rx_angle.b2 = CAN_RX_DATA_BYTE3(addr);
 306              		.loc 1 526 0
 307 0184 9968     		ldr	r1, [r3, #8]
 308 0186 090C     		lsrs	r1, r1, #16
 309 0188 194A     		ldr	r2, .L21+36
 310 018a 5170     		strb	r1, [r2, #1]
 527:main.c        ****             Can_rx_angle.b3 = CAN_RX_DATA_BYTE4(addr);
 311              		.loc 1 527 0
 312 018c 9968     		ldr	r1, [r3, #8]
 313 018e 090A     		lsrs	r1, r1, #8
 314 0190 9170     		strb	r1, [r2, #2]
 528:main.c        ****             Can_rx_angle.b4 = CAN_RX_DATA_BYTE5(addr);
 315              		.loc 1 528 0
 316 0192 9968     		ldr	r1, [r3, #8]
 317 0194 D170     		strb	r1, [r2, #3]
 529:main.c        ****             Can_rx_angle.done = 0;
 318              		.loc 1 529 0
 319 0196 DB68     		ldr	r3, [r3, #12]
 320 0198 1B0E     		lsrs	r3, r3, #24
 321 019a 1371     		strb	r3, [r2, #4]
 530:main.c        ****             complete = 1;
 322              		.loc 1 530 0
 323 019c 0023     		movs	r3, #0
 324 019e 5371     		strb	r3, [r2, #5]
 531:main.c        ****         } 
 325              		.loc 1 531 0
 326 01a0 0122     		movs	r2, #1
 327 01a2 0F4B     		ldr	r3, .L21+20
 328 01a4 5A70     		strb	r2, [r3, #1]
 329 01a6 06E0     		b	.L18
 330              	.L20:
 534:main.c        ****             model_req = 1;
 331              		.loc 1 534 0
 332 01a8 9B68     		ldr	r3, [r3, #8]
 333 01aa 1B0E     		lsrs	r3, r3, #24
 334 01ac 102B     		cmp	r3, #16
 335 01ae 02D1     		bne	.L18
 336              		.loc 1 535 0
 337 01b0 0122     		movs	r2, #1
 338 01b2 0B4B     		ldr	r3, .L21+20
 339 01b4 9A70     		strb	r2, [r3, #2]
 340              	.L18:
 341              	.LVL10:
 342              	.LBE9:
 343              	.LBE8:
 499:main.c        ****     }
 344              		.loc 1 499 0
 345 01b6 0A4B     		ldr	r3, .L21+20
 346 01b8 9B88     		ldrh	r3, [r3, #4]
 347 01ba 5B01     		lsls	r3, r3, #5
 348 01bc 094A     		ldr	r2, .L21+24
 349 01be 9446     		mov	ip, r2
ARM GAS  C:\Users\austc\AppData\Local\Temp\ccREwTmP.s 			page 17


 350 01c0 6344     		add	r3, r3, ip
 351 01c2 1968     		ldr	r1, [r3]
 352 01c4 0122     		movs	r2, #1
 353 01c6 0A43     		orrs	r2, r1
 354 01c8 1A60     		str	r2, [r3]
 355              	.L1:
 502:main.c        **** 
 356              		.loc 1 502 0
 357              		@ sp needed
 358 01ca 10BD     		pop	{r4, pc}
 359              	.L22:
 360              		.align	2
 361              	.L21:
 362 01cc 00002F40 		.word	1076822016
 363 01d0 00000000 		.word	.LANCHOR0
 364 01d4 00000000 		.word	.LC1
 365 01d8 08002F40 		.word	1076822024
 366 01dc 14000000 		.word	.LC3
 367 01e0 00000000 		.word	.LANCHOR1
 368 01e4 A0002F40 		.word	1076822176
 369 01e8 00000000 		.word	invalid_arg
 370 01ec 00000000 		.word	Can_rx_pwm
 371 01f0 00000000 		.word	Can_rx_angle
 372 01f4 24000000 		.word	.LC9
 373              		.cfi_endproc
 374              	.LFE47:
 375              		.size	ISR_CAN, .-ISR_CAN
 376              		.section	.text.emergency_halt,"ax",%progbits
 377              		.align	2
 378              		.global	emergency_halt
 379              		.code	16
 380              		.thumb_func
 381              		.type	emergency_halt, %function
 382              	emergency_halt:
 383              	.LFB38:
 269:main.c        ****     PWM_Motor_Stop();
 384              		.loc 1 269 0
 385              		.cfi_startproc
 386              		@ args = 0, pretend = 0, frame = 0
 387              		@ frame_needed = 0, uses_anonymous_args = 0
 388 0000 10B5     		push	{r4, lr}
 389              		.cfi_def_cfa_offset 8
 390              		.cfi_offset 4, -8
 391              		.cfi_offset 14, -4
 270:main.c        ****     emergency = 1;
 392              		.loc 1 270 0
 393 0002 FFF7FEFF 		bl	PWM_Motor_Stop
 394              	.LVL11:
 271:main.c        ****     // stops all motors;
 395              		.loc 1 271 0
 396 0006 0122     		movs	r2, #1
 397 0008 014B     		ldr	r3, .L24
 398 000a 9A71     		strb	r2, [r3, #6]
 274:main.c        **** 
 399              		.loc 1 274 0
 400              		@ sp needed
 401 000c 10BD     		pop	{r4, pc}
ARM GAS  C:\Users\austc\AppData\Local\Temp\ccREwTmP.s 			page 18


 402              	.L25:
 403 000e C046     		.align	2
 404              	.L24:
 405 0010 00000000 		.word	.LANCHOR1
 406              		.cfi_endproc
 407              	.LFE38:
 408              		.size	emergency_halt, .-emergency_halt
 409              		.section	.text.initialize,"ax",%progbits
 410              		.align	2
 411              		.global	initialize
 412              		.code	16
 413              		.thumb_func
 414              		.type	initialize, %function
 415              	initialize:
 416              	.LFB39:
 276:main.c        ****     
 417              		.loc 1 276 0
 418              		.cfi_startproc
 419              		@ args = 0, pretend = 0, frame = 0
 420              		@ frame_needed = 0, uses_anonymous_args = 0
 421 0000 70B5     		push	{r4, r5, r6, lr}
 422              		.cfi_def_cfa_offset 16
 423              		.cfi_offset 4, -16
 424              		.cfi_offset 5, -12
 425              		.cfi_offset 6, -8
 426              		.cfi_offset 14, -4
 278:main.c        ****     Status_Reg_Switches_InterruptEnable();
 427              		.loc 1 278 0
 428 0002 FFF7FEFF 		bl	CAN_Start
 429              	.LVL12:
 430 0006 0400     		movs	r4, r0
 431              	.LVL13:
 279:main.c        ****     Timer_1_Start();
 432              		.loc 1 279 0
 433 0008 FFF7FEFF 		bl	Status_Reg_Switches_InterruptEnable
 434              	.LVL14:
 280:main.c        ****    // ADC_SAR_Seq_1_Start();
 435              		.loc 1 280 0
 436 000c FFF7FEFF 		bl	Timer_1_Start
 437              	.LVL15:
 283:main.c        ****     PWM_Motor_Start();  
 438              		.loc 1 283 0
 439 0010 FFF7FEFF 		bl	QuadDec_Start
 440              	.LVL16:
 284:main.c        ****     
 441              		.loc 1 284 0
 442 0014 FFF7FEFF 		bl	PWM_Motor_Start
 443              	.LVL17:
 286:main.c        ****     CyIntSetVector(CAN_ISR_NUMBER, ISR_CAN);
 444              		.loc 1 286 0
 445 0018 FFF7FEFF 		bl	CAN_GlobalIntEnable
 446              	.LVL18:
 287:main.c        ****     CyGlobalIntEnable; /* Enable global interrupts. */
 447              		.loc 1 287 0
 448 001c 0D49     		ldr	r1, .L28
 449 001e 1D20     		movs	r0, #29
 450 0020 FFF7FEFF 		bl	CyIntSetVector
ARM GAS  C:\Users\austc\AppData\Local\Temp\ccREwTmP.s 			page 19


 451              	.LVL19:
 288:main.c        ****     isr_Limit_1_StartEx(Pin_Limit_Handler);
 452              		.loc 1 288 0
 453              		.syntax divided
 454              	@ 288 "main.c" 1
 455 0024 62B6     		CPSIE   i
 456              	@ 0 "" 2
 289:main.c        ****     isr_period_StartEx(Period_Reset_Handler);
 457              		.loc 1 289 0
 458              		.thumb
 459              		.syntax unified
 460 0026 0C48     		ldr	r0, .L28+4
 461 0028 FFF7FEFF 		bl	isr_Limit_1_StartEx
 462              	.LVL20:
 290:main.c        ****     
 463              		.loc 1 290 0
 464 002c 0B48     		ldr	r0, .L28+8
 465 002e FFF7FEFF 		bl	isr_period_StartEx
 466              	.LVL21:
 292:main.c        ****         UART_Start();
 467              		.loc 1 292 0
 468 0032 0B4B     		ldr	r3, .L28+12
 469 0034 1B78     		ldrb	r3, [r3]
 470 0036 002B     		cmp	r3, #0
 471 0038 0AD0     		beq	.L26
 293:main.c        ****         sprintf(txData, "CAN_Start():  %u\r\n",can_start);
 472              		.loc 1 293 0
 473 003a FFF7FEFF 		bl	UART_Start
 474              	.LVL22:
 294:main.c        ****         UART_UartPutString(txData); 
 475              		.loc 1 294 0
 476 003e 094D     		ldr	r5, .L28+16
 477 0040 2200     		movs	r2, r4
 478 0042 0949     		ldr	r1, .L28+20
 479 0044 2800     		movs	r0, r5
 480 0046 FFF7FEFF 		bl	sprintf
 481              	.LVL23:
 295:main.c        ****     }
 482              		.loc 1 295 0
 483 004a 2800     		movs	r0, r5
 484 004c FFF7FEFF 		bl	UART_UartPutString
 485              	.LVL24:
 486              	.L26:
 297:main.c        **** 
 487              		.loc 1 297 0
 488              		@ sp needed
 489              	.LVL25:
 490 0050 70BD     		pop	{r4, r5, r6, pc}
 491              	.L29:
 492 0052 C046     		.align	2
 493              	.L28:
 494 0054 00000000 		.word	ISR_CAN
 495 0058 00000000 		.word	Pin_Limit_Handler
 496 005c 00000000 		.word	Period_Reset_Handler
 497 0060 00000000 		.word	.LANCHOR0
 498 0064 00000000 		.word	txData
 499 0068 34000000 		.word	.LC16
ARM GAS  C:\Users\austc\AppData\Local\Temp\ccREwTmP.s 			page 20


 500              		.cfi_endproc
 501              	.LFE39:
 502              		.size	initialize, .-initialize
 503              		.section	.text.set_CAN_ID,"ax",%progbits
 504              		.align	2
 505              		.global	set_CAN_ID
 506              		.code	16
 507              		.thumb_func
 508              		.type	set_CAN_ID, %function
 509              	set_CAN_ID:
 510              	.LFB41:
 385:main.c        ****     message.id = (priority << 10) | (message_id << 5) | 0b00010;
 511              		.loc 1 385 0
 512              		.cfi_startproc
 513              		@ args = 0, pretend = 0, frame = 0
 514              		@ frame_needed = 0, uses_anonymous_args = 0
 515              		@ link register save eliminated.
 516              	.LVL26:
 386:main.c        **** }
 517              		.loc 1 386 0
 518 0000 8002     		lsls	r0, r0, #10
 519              	.LVL27:
 520 0002 044B     		ldr	r3, .L31
 521 0004 9B68     		ldr	r3, [r3, #8]
 522 0006 5B01     		lsls	r3, r3, #5
 523 0008 1843     		orrs	r0, r3
 524 000a 0223     		movs	r3, #2
 525 000c 1843     		orrs	r0, r3
 526 000e 024B     		ldr	r3, .L31+4
 527 0010 1860     		str	r0, [r3]
 387:main.c        **** 
 528              		.loc 1 387 0
 529              		@ sp needed
 530 0012 7047     		bx	lr
 531              	.L32:
 532              		.align	2
 533              	.L31:
 534 0014 00000000 		.word	.LANCHOR1
 535 0018 00000000 		.word	message
 536              		.cfi_endproc
 537              	.LFE41:
 538              		.size	set_CAN_ID, .-set_CAN_ID
 539              		.section	.text.initialize_can_addr,"ax",%progbits
 540              		.align	2
 541              		.global	initialize_can_addr
 542              		.code	16
 543              		.thumb_func
 544              		.type	initialize_can_addr, %function
 545              	initialize_can_addr:
 546              	.LFB40:
 315:main.c        ****     uint8 setting = Can_addr_Read();
 547              		.loc 1 315 0
 548              		.cfi_startproc
 549              		@ args = 0, pretend = 0, frame = 0
 550              		@ frame_needed = 0, uses_anonymous_args = 0
 551 0000 F0B5     		push	{r4, r5, r6, r7, lr}
 552              		.cfi_def_cfa_offset 20
ARM GAS  C:\Users\austc\AppData\Local\Temp\ccREwTmP.s 			page 21


 553              		.cfi_offset 4, -20
 554              		.cfi_offset 5, -16
 555              		.cfi_offset 6, -12
 556              		.cfi_offset 7, -8
 557              		.cfi_offset 14, -4
 558 0002 83B0     		sub	sp, sp, #12
 559              		.cfi_def_cfa_offset 32
 316:main.c        ****     uint8 shift = 0;
 560              		.loc 1 316 0
 561 0004 FFF7FEFF 		bl	Can_addr_Read
 562              	.LVL28:
 563 0008 0500     		movs	r5, r0
 564              	.LVL29:
 318:main.c        ****         case 0b000: //Base rotation
 565              		.loc 1 318 0
 566 000a FFF7FEFF 		bl	Can_addr_Read
 567              	.LVL30:
 568 000e 0628     		cmp	r0, #6
 569 0010 6CD8     		bhi	.L44
 570 0012 8000     		lsls	r0, r0, #2
 571 0014 4D4B     		ldr	r3, .L45
 572 0016 1B58     		ldr	r3, [r3, r0]
 573 0018 9F46     		mov	pc, r3
 574              		.section	.rodata
 575              		.align	2
 576              	.L36:
 577 0000 1A000000 		.word	.L35
 578 0004 2E000000 		.word	.L37
 579 0008 54000000 		.word	.L38
 580 000c 68000000 		.word	.L39
 581 0010 80000000 		.word	.L40
 582 0014 AE000000 		.word	.L41
 583 0018 D8000000 		.word	.L42
 584              		.section	.text.initialize_can_addr
 585              	.L35:
 320:main.c        ****             shift = 0;
 586              		.loc 1 320 0
 587 001a 1022     		movs	r2, #16
 588 001c 4C4B     		ldr	r3, .L45+4
 589 001e 9A60     		str	r2, [r3, #8]
 322:main.c        ****             break;
 590              		.loc 1 322 0
 591 0020 0020     		movs	r0, #0
 592 0022 4C49     		ldr	r1, .L45+8
 593 0024 4C4B     		ldr	r3, .L45+12
 594 0026 1860     		str	r0, [r3]
 595 0028 5960     		str	r1, [r3, #4]
 321:main.c        ****             ratio = 1;
 596              		.loc 1 321 0
 597 002a 0026     		movs	r6, #0
 323:main.c        ****         case 0b001: // shoulder
 598              		.loc 1 323 0
 599 002c 5FE0     		b	.L34
 600              	.L37:
 325:main.c        ****             shift = 1;
 601              		.loc 1 325 0
 602 002e 1122     		movs	r2, #17
ARM GAS  C:\Users\austc\AppData\Local\Temp\ccREwTmP.s 			page 22


 603 0030 474B     		ldr	r3, .L45+4
 604 0032 9A60     		str	r2, [r3, #8]
 605              	.LVL31:
 327:main.c        ****            // flipEncoder = -1;
 606              		.loc 1 327 0
 607 0034 4948     		ldr	r0, .L45+16
 608 0036 4A49     		ldr	r1, .L45+20
 609 0038 474B     		ldr	r3, .L45+12
 610 003a 1860     		str	r0, [r3]
 611 003c 5960     		str	r1, [r3, #4]
 329:main.c        ****             ki = 3;
 612              		.loc 1 329 0
 613 003e 2132     		adds	r2, r2, #33
 614 0040 484B     		ldr	r3, .L45+24
 615 0042 1A60     		str	r2, [r3]
 330:main.c        ****             kd = 10;
 616              		.loc 1 330 0
 617 0044 2F3A     		subs	r2, r2, #47
 618 0046 484B     		ldr	r3, .L45+28
 619 0048 1A60     		str	r2, [r3]
 331:main.c        ****             break;
 620              		.loc 1 331 0
 621 004a 0732     		adds	r2, r2, #7
 622 004c 474B     		ldr	r3, .L45+32
 623 004e 1A60     		str	r2, [r3]
 326:main.c        ****             ratio = 39.6;
 624              		.loc 1 326 0
 625 0050 0126     		movs	r6, #1
 332:main.c        ****         case 0b010: // elbow
 626              		.loc 1 332 0
 627 0052 4CE0     		b	.L34
 628              	.LVL32:
 629              	.L38:
 334:main.c        ****             shift = 2;
 630              		.loc 1 334 0
 631 0054 1222     		movs	r2, #18
 632 0056 3E4B     		ldr	r3, .L45+4
 633 0058 9A60     		str	r2, [r3, #8]
 634              	.LVL33:
 336:main.c        ****             break;
 635              		.loc 1 336 0
 636 005a 4548     		ldr	r0, .L45+36
 637 005c 4549     		ldr	r1, .L45+40
 638 005e 3E4B     		ldr	r3, .L45+12
 639 0060 1860     		str	r0, [r3]
 640 0062 5960     		str	r1, [r3, #4]
 335:main.c        ****             ratio = 2.8;
 641              		.loc 1 335 0
 642 0064 0226     		movs	r6, #2
 337:main.c        ****         case 0b011: // forearm rotation
 643              		.loc 1 337 0
 644 0066 42E0     		b	.L34
 645              	.LVL34:
 646              	.L39:
 339:main.c        ****             disable_limit = 1;
 647              		.loc 1 339 0
 648 0068 394B     		ldr	r3, .L45+4
ARM GAS  C:\Users\austc\AppData\Local\Temp\ccREwTmP.s 			page 23


 649 006a 1322     		movs	r2, #19
 650 006c 9A60     		str	r2, [r3, #8]
 340:main.c        ****             shift = 3;
 651              		.loc 1 340 0
 652 006e 123A     		subs	r2, r2, #18
 653 0070 1A73     		strb	r2, [r3, #12]
 654              	.LVL35:
 342:main.c        **** 
 655              		.loc 1 342 0
 656 0072 0020     		movs	r0, #0
 657 0074 3749     		ldr	r1, .L45+8
 658 0076 384B     		ldr	r3, .L45+12
 659 0078 1860     		str	r0, [r3]
 660 007a 5960     		str	r1, [r3, #4]
 341:main.c        ****             ratio = 1;
 661              		.loc 1 341 0
 662 007c 0326     		movs	r6, #3
 344:main.c        ****         case 0b100: // diff wrist 1
 663              		.loc 1 344 0
 664 007e 36E0     		b	.L34
 665              	.LVL36:
 666              	.L40:
 346:main.c        ****             disable_limit = 1;
 667              		.loc 1 346 0
 668 0080 334A     		ldr	r2, .L45+4
 669 0082 1423     		movs	r3, #20
 670 0084 9360     		str	r3, [r2, #8]
 347:main.c        ****             shift = 4;
 671              		.loc 1 347 0
 672 0086 0121     		movs	r1, #1
 673 0088 1173     		strb	r1, [r2, #12]
 674              	.LVL37:
 349:main.c        ****             kp = 20;
 675              		.loc 1 349 0
 676 008a 0020     		movs	r0, #0
 677 008c 3149     		ldr	r1, .L45+8
 678 008e 324A     		ldr	r2, .L45+12
 679 0090 1060     		str	r0, [r2]
 680 0092 5160     		str	r1, [r2, #4]
 350:main.c        ****             ki = 30;
 681              		.loc 1 350 0
 682 0094 334A     		ldr	r2, .L45+24
 683 0096 1360     		str	r3, [r2]
 351:main.c        ****             kd = 10;
 684              		.loc 1 351 0
 685 0098 1E22     		movs	r2, #30
 686 009a 334B     		ldr	r3, .L45+28
 687 009c 1A60     		str	r2, [r3]
 352:main.c        ****             flipEncoder = -1;
 688              		.loc 1 352 0
 689 009e 143A     		subs	r2, r2, #20
 690 00a0 324B     		ldr	r3, .L45+32
 691 00a2 1A60     		str	r2, [r3]
 353:main.c        ****             break;
 692              		.loc 1 353 0
 693 00a4 F532     		adds	r2, r2, #245
 694 00a6 344B     		ldr	r3, .L45+44
ARM GAS  C:\Users\austc\AppData\Local\Temp\ccREwTmP.s 			page 24


 695 00a8 9A73     		strb	r2, [r3, #14]
 348:main.c        ****             ratio = 1;
 696              		.loc 1 348 0
 697 00aa 0426     		movs	r6, #4
 354:main.c        ****         case 0b101: // diff wrist 2
 698              		.loc 1 354 0
 699 00ac 1FE0     		b	.L34
 700              	.LVL38:
 701              	.L41:
 356:main.c        ****             disable_limit = 1;
 702              		.loc 1 356 0
 703 00ae 284B     		ldr	r3, .L45+4
 704 00b0 1522     		movs	r2, #21
 705 00b2 9A60     		str	r2, [r3, #8]
 357:main.c        ****             shift = 5;
 706              		.loc 1 357 0
 707 00b4 143A     		subs	r2, r2, #20
 708 00b6 1A73     		strb	r2, [r3, #12]
 709              	.LVL39:
 359:main.c        ****             kp = 20;
 710              		.loc 1 359 0
 711 00b8 0020     		movs	r0, #0
 712 00ba 2649     		ldr	r1, .L45+8
 713 00bc 264B     		ldr	r3, .L45+12
 714 00be 1860     		str	r0, [r3]
 715 00c0 5960     		str	r1, [r3, #4]
 360:main.c        ****             ki = 30;
 716              		.loc 1 360 0
 717 00c2 1332     		adds	r2, r2, #19
 718 00c4 274B     		ldr	r3, .L45+24
 719 00c6 1A60     		str	r2, [r3]
 361:main.c        ****             kd = 10;
 720              		.loc 1 361 0
 721 00c8 0A32     		adds	r2, r2, #10
 722 00ca 274B     		ldr	r3, .L45+28
 723 00cc 1A60     		str	r2, [r3]
 362:main.c        ****             break;
 724              		.loc 1 362 0
 725 00ce 143A     		subs	r2, r2, #20
 726 00d0 264B     		ldr	r3, .L45+32
 727 00d2 1A60     		str	r2, [r3]
 358:main.c        ****             ratio = 1;
 728              		.loc 1 358 0
 729 00d4 0526     		movs	r6, #5
 363:main.c        ****         case 0b110: // hand
 730              		.loc 1 363 0
 731 00d6 0AE0     		b	.L34
 732              	.LVL40:
 733              	.L42:
 365:main.c        ****             shift = 6;
 734              		.loc 1 365 0
 735 00d8 1622     		movs	r2, #22
 736 00da 1D4B     		ldr	r3, .L45+4
 737 00dc 9A60     		str	r2, [r3, #8]
 738              	.LVL41:
 367:main.c        ****             break;
 739              		.loc 1 367 0
ARM GAS  C:\Users\austc\AppData\Local\Temp\ccREwTmP.s 			page 25


 740 00de 0020     		movs	r0, #0
 741 00e0 1C49     		ldr	r1, .L45+8
 742 00e2 1D4B     		ldr	r3, .L45+12
 743 00e4 1860     		str	r0, [r3]
 744 00e6 5960     		str	r1, [r3, #4]
 366:main.c        ****             ratio = 1;
 745              		.loc 1 366 0
 746 00e8 0626     		movs	r6, #6
 368:main.c        ****     }
 747              		.loc 1 368 0
 748 00ea 00E0     		b	.L34
 749              	.LVL42:
 750              	.L44:
 317:main.c        ****     switch(Can_addr_Read()) {
 751              		.loc 1 317 0
 752 00ec 0026     		movs	r6, #0
 753              	.LVL43:
 754              	.L34:
 371:main.c        ****     CAN_RX_MAILBOX_1_SHIFT = CAN_RX_MAILBOX_1_SHIFT << shift;
 755              		.loc 1 371 0
 756 00ee 224C     		ldr	r4, .L45+44
 757 00f0 6368     		ldr	r3, [r4, #4]
 758 00f2 B340     		lsls	r3, r3, r6
 759 00f4 6360     		str	r3, [r4, #4]
 372:main.c        ****     CAN_RX_MAILBOX_0 += shift;
 760              		.loc 1 372 0
 761 00f6 A389     		ldrh	r3, [r4, #12]
 762 00f8 B340     		lsls	r3, r3, r6
 763 00fa A381     		strh	r3, [r4, #12]
 373:main.c        ****     CAN_RX_MAILBOX_1 += shift;
 764              		.loc 1 373 0
 765 00fc B3B2     		uxth	r3, r6
 766 00fe 2289     		ldrh	r2, [r4, #8]
 767 0100 9A18     		adds	r2, r3, r2
 768 0102 2281     		strh	r2, [r4, #8]
 374:main.c        ****     set_CAN_ID(0b1);
 769              		.loc 1 374 0
 770 0104 1249     		ldr	r1, .L45+4
 771 0106 8A88     		ldrh	r2, [r1, #4]
 772 0108 9B18     		adds	r3, r3, r2
 773 010a 8B80     		strh	r3, [r1, #4]
 375:main.c        ****     
 774              		.loc 1 375 0
 775 010c 0120     		movs	r0, #1
 776 010e FFF7FEFF 		bl	set_CAN_ID
 777              	.LVL44:
 377:main.c        ****         sprintf(txData, "CAN dip setting:  %x Message ID: %ld\r\n",setting, message_id);
 778              		.loc 1 377 0
 779 0112 2378     		ldrb	r3, [r4]
 780 0114 002B     		cmp	r3, #0
 781 0116 16D0     		beq	.L33
 378:main.c        ****         UART_UartPutString(txData); 
 782              		.loc 1 378 0
 783 0118 0D4F     		ldr	r7, .L45+4
 784 011a 184C     		ldr	r4, .L45+48
 785 011c BB68     		ldr	r3, [r7, #8]
 786 011e 2A00     		movs	r2, r5
ARM GAS  C:\Users\austc\AppData\Local\Temp\ccREwTmP.s 			page 26


 787 0120 1749     		ldr	r1, .L45+52
 788 0122 2000     		movs	r0, r4
 789 0124 FFF7FEFF 		bl	sprintf
 790              	.LVL45:
 379:main.c        ****         sprintf(txData, "Can shift: %d   P0Mailbox: %d P1Mailbox %d\r\n",shift, CAN_RX_MAILBOX_0, C
 791              		.loc 1 379 0
 792 0128 2000     		movs	r0, r4
 793 012a FFF7FEFF 		bl	UART_UartPutString
 794              	.LVL46:
 380:main.c        ****         UART_UartPutString(txData); 
 795              		.loc 1 380 0
 796 012e 124B     		ldr	r3, .L45+44
 797 0130 1B89     		ldrh	r3, [r3, #8]
 798 0132 BA88     		ldrh	r2, [r7, #4]
 799 0134 0092     		str	r2, [sp]
 800 0136 3200     		movs	r2, r6
 801 0138 1249     		ldr	r1, .L45+56
 802 013a 2000     		movs	r0, r4
 803 013c FFF7FEFF 		bl	sprintf
 804              	.LVL47:
 381:main.c        ****     }
 805              		.loc 1 381 0
 806 0140 2000     		movs	r0, r4
 807 0142 FFF7FEFF 		bl	UART_UartPutString
 808              	.LVL48:
 809              	.L33:
 383:main.c        **** 
 810              		.loc 1 383 0
 811 0146 03B0     		add	sp, sp, #12
 812              		@ sp needed
 813              	.LVL49:
 814              	.LVL50:
 815 0148 F0BD     		pop	{r4, r5, r6, r7, pc}
 816              	.L46:
 817 014a C046     		.align	2
 818              	.L45:
 819 014c 00000000 		.word	.L36
 820 0150 00000000 		.word	.LANCHOR1
 821 0154 0000F03F 		.word	1072693248
 822 0158 00000000 		.word	ratio
 823 015c CDCCCCCC 		.word	-858993459
 824 0160 CCCC4340 		.word	1078185164
 825 0164 00000000 		.word	kp
 826 0168 00000000 		.word	ki
 827 016c 00000000 		.word	kd
 828 0170 66666666 		.word	1717986918
 829 0174 66660640 		.word	1074161254
 830 0178 00000000 		.word	.LANCHOR0
 831 017c 00000000 		.word	txData
 832 0180 48000000 		.word	.LC28
 833 0184 70000000 		.word	.LC31
 834              		.cfi_endproc
 835              	.LFE40:
 836              		.size	initialize_can_addr, .-initialize_can_addr
 837              		.section	.text.set_PWM,"ax",%progbits
 838              		.align	2
 839              		.global	set_PWM
ARM GAS  C:\Users\austc\AppData\Local\Temp\ccREwTmP.s 			page 27


 840              		.code	16
 841              		.thumb_func
 842              		.type	set_PWM, %function
 843              	set_PWM:
 844              	.LFB42:
 390:main.c        ****     pwm_compare = compare;
 845              		.loc 1 390 0
 846              		.cfi_startproc
 847              		@ args = 0, pretend = 0, frame = 0
 848              		@ frame_needed = 0, uses_anonymous_args = 0
 849              	.LVL51:
 850 0000 70B5     		push	{r4, r5, r6, lr}
 851              		.cfi_def_cfa_offset 16
 852              		.cfi_offset 4, -16
 853              		.cfi_offset 5, -12
 854              		.cfi_offset 6, -8
 855              		.cfi_offset 14, -4
 856 0002 0400     		movs	r4, r0
 391:main.c        ****     if(uart_debug) {
 857              		.loc 1 391 0
 858 0004 1D4B     		ldr	r3, .L54
 859 0006 1860     		str	r0, [r3]
 392:main.c        ****         sprintf(txData, "PWM:%d\r\n",compare);
 860              		.loc 1 392 0
 861 0008 1D4B     		ldr	r3, .L54+4
 862 000a 1B78     		ldrb	r3, [r3]
 863 000c 002B     		cmp	r3, #0
 864 000e 08D0     		beq	.L48
 393:main.c        ****         UART_UartPutString(txData); 
 865              		.loc 1 393 0
 866 0010 1C4D     		ldr	r5, .L54+8
 867 0012 0200     		movs	r2, r0
 868 0014 1C49     		ldr	r1, .L54+12
 869 0016 2800     		movs	r0, r5
 870              	.LVL52:
 871 0018 FFF7FEFF 		bl	sprintf
 872              	.LVL53:
 394:main.c        ****     }
 873              		.loc 1 394 0
 874 001c 2800     		movs	r0, r5
 875 001e FFF7FEFF 		bl	UART_UartPutString
 876              	.LVL54:
 877              	.L48:
 396:main.c        ****     if (compare < -255 || compare > 255) { return; }
 878              		.loc 1 396 0
 879 0022 0022     		movs	r2, #0
 880 0024 194B     		ldr	r3, .L54+16
 881 0026 5A73     		strb	r2, [r3, #13]
 397:main.c        ****     uint8 status = Status_Reg_Switches_Read();
 882              		.loc 1 397 0
 883 0028 FF32     		adds	r2, r2, #255
 884 002a FF32     		adds	r2, r2, #255
 885 002c 2300     		movs	r3, r4
 886 002e FF33     		adds	r3, r3, #255
 887 0030 9342     		cmp	r3, r2
 888 0032 22D8     		bhi	.L47
 398:main.c        ****     if (compare < 0 && (!(status & 0b01) || disable_limit) ) {
ARM GAS  C:\Users\austc\AppData\Local\Temp\ccREwTmP.s 			page 28


 889              		.loc 1 398 0
 890 0034 FFF7FEFF 		bl	Status_Reg_Switches_Read
 891              	.LVL55:
 399:main.c        ****         Pin_Direction_Write(0);
 892              		.loc 1 399 0
 893 0038 002C     		cmp	r4, #0
 894 003a 0CDA     		bge	.L50
 399:main.c        ****         Pin_Direction_Write(0);
 895              		.loc 1 399 0 is_stmt 0 discriminator 1
 896 003c C307     		lsls	r3, r0, #31
 897 003e 03D5     		bpl	.L51
 399:main.c        ****         Pin_Direction_Write(0);
 898              		.loc 1 399 0 discriminator 2
 899 0040 124B     		ldr	r3, .L54+16
 900 0042 1B7B     		ldrb	r3, [r3, #12]
 901 0044 002B     		cmp	r3, #0
 902 0046 06D0     		beq	.L50
 903              	.L51:
 400:main.c        ****         PWM_Motor_WriteCompare(-compare);
 904              		.loc 1 400 0 is_stmt 1
 905 0048 0020     		movs	r0, #0
 906              	.LVL56:
 907 004a FFF7FEFF 		bl	Pin_Direction_Write
 908              	.LVL57:
 401:main.c        ****     } else if (compare > 0 && (!(status & 0b10) || disable_limit) ){
 909              		.loc 1 401 0
 910 004e 6042     		rsbs	r0, r4, #0
 911 0050 FFF7FEFF 		bl	PWM_Motor_WriteCompare
 912              	.LVL58:
 913 0054 11E0     		b	.L47
 914              	.LVL59:
 915              	.L50:
 402:main.c        ****         Pin_Direction_Write(1);
 916              		.loc 1 402 0
 917 0056 002C     		cmp	r4, #0
 918 0058 0CDD     		ble	.L52
 402:main.c        ****         Pin_Direction_Write(1);
 919              		.loc 1 402 0 is_stmt 0 discriminator 1
 920 005a 8307     		lsls	r3, r0, #30
 921 005c 03D5     		bpl	.L53
 402:main.c        ****         Pin_Direction_Write(1);
 922              		.loc 1 402 0 discriminator 2
 923 005e 0B4B     		ldr	r3, .L54+16
 924 0060 1B7B     		ldrb	r3, [r3, #12]
 925 0062 002B     		cmp	r3, #0
 926 0064 06D0     		beq	.L52
 927              	.L53:
 403:main.c        ****         PWM_Motor_WriteCompare(compare);
 928              		.loc 1 403 0 is_stmt 1
 929 0066 0120     		movs	r0, #1
 930              	.LVL60:
 931 0068 FFF7FEFF 		bl	Pin_Direction_Write
 932              	.LVL61:
 404:main.c        ****     } else {
 933              		.loc 1 404 0
 934 006c 2000     		movs	r0, r4
 935 006e FFF7FEFF 		bl	PWM_Motor_WriteCompare
ARM GAS  C:\Users\austc\AppData\Local\Temp\ccREwTmP.s 			page 29


 936              	.LVL62:
 937 0072 02E0     		b	.L47
 938              	.LVL63:
 939              	.L52:
 406:main.c        ****         
 940              		.loc 1 406 0
 941 0074 0020     		movs	r0, #0
 942              	.LVL64:
 943 0076 FFF7FEFF 		bl	PWM_Motor_WriteCompare
 944              	.LVL65:
 945              	.L47:
 409:main.c        **** 
 946              		.loc 1 409 0
 947              		@ sp needed
 948              	.LVL66:
 949 007a 70BD     		pop	{r4, r5, r6, pc}
 950              	.L55:
 951              		.align	2
 952              	.L54:
 953 007c 00000000 		.word	pwm_compare
 954 0080 00000000 		.word	.LANCHOR0
 955 0084 00000000 		.word	txData
 956 0088 A0000000 		.word	.LC35
 957 008c 00000000 		.word	.LANCHOR1
 958              		.cfi_endproc
 959              	.LFE42:
 960              		.size	set_PWM, .-set_PWM
 961              		.section	.text.Period_Reset_Handler,"ax",%progbits
 962              		.align	2
 963              		.global	Period_Reset_Handler
 964              		.code	16
 965              		.thumb_func
 966              		.type	Period_Reset_Handler, %function
 967              	Period_Reset_Handler:
 968              	.LFB35:
  84:main.c        ****     int timer = Timer_1_ReadStatusRegister();
 969              		.loc 1 84 0
 970              		.cfi_startproc
 971              		@ args = 0, pretend = 0, frame = 0
 972              		@ frame_needed = 0, uses_anonymous_args = 0
 973 0000 10B5     		push	{r4, lr}
 974              		.cfi_def_cfa_offset 8
 975              		.cfi_offset 4, -8
 976              		.cfi_offset 14, -4
  85:main.c        ****     if(uart_debug) {
 977              		.loc 1 85 0
 978 0002 FFF7FEFF 		bl	Timer_1_ReadStatusRegister
 979              	.LVL67:
  86:main.c        ****         sprintf(txData,"Period interupt triggerd %x\r\n", timer);
 980              		.loc 1 86 0
 981 0006 124B     		ldr	r3, .L60
 982 0008 1B78     		ldrb	r3, [r3]
 983 000a 002B     		cmp	r3, #0
 984 000c 04D0     		beq	.L57
  87:main.c        ****         //UART_UartPutString(txData);
 985              		.loc 1 87 0
 986 000e 0200     		movs	r2, r0
ARM GAS  C:\Users\austc\AppData\Local\Temp\ccREwTmP.s 			page 30


 987 0010 1049     		ldr	r1, .L60+4
 988 0012 1148     		ldr	r0, .L60+8
 989              	.LVL68:
 990 0014 FFF7FEFF 		bl	sprintf
 991              	.LVL69:
 992              	.L57:
  90:main.c        ****     invalidate++;
 993              		.loc 1 90 0
 994 0018 0122     		movs	r2, #1
 995 001a 0D4B     		ldr	r3, .L60
 996 001c DA73     		strb	r2, [r3, #15]
  91:main.c        ****     time_LED++;
 997              		.loc 1 91 0
 998 001e 0F4A     		ldr	r2, .L60+12
 999 0020 537B     		ldrb	r3, [r2, #13]
 1000 0022 0133     		adds	r3, r3, #1
 1001 0024 DBB2     		uxtb	r3, r3
 1002 0026 5373     		strb	r3, [r2, #13]
  92:main.c        ****     if(invalidate >= 20){
 1003              		.loc 1 92 0
 1004 0028 1178     		ldrb	r1, [r2]
 1005 002a 0131     		adds	r1, r1, #1
 1006 002c 1170     		strb	r1, [r2]
  93:main.c        ****         set_PWM(0);   
 1007              		.loc 1 93 0
 1008 002e 132B     		cmp	r3, #19
 1009 0030 05D9     		bls	.L58
  94:main.c        ****         Can_rx_pwm.done = 1;
 1010              		.loc 1 94 0
 1011 0032 0020     		movs	r0, #0
 1012 0034 FFF7FEFF 		bl	set_PWM
 1013              	.LVL70:
  95:main.c        ****     }
 1014              		.loc 1 95 0
 1015 0038 0122     		movs	r2, #1
 1016 003a 094B     		ldr	r3, .L60+16
 1017 003c 5A71     		strb	r2, [r3, #5]
 1018              	.L58:
  99:main.c        ****             Test_LED_Write(LED_OFF);
 1019              		.loc 1 99 0
 1020 003e 074B     		ldr	r3, .L60+12
 1021 0040 1B78     		ldrb	r3, [r3]
 1022 0042 092B     		cmp	r3, #9
 1023 0044 02D9     		bls	.L56
 100:main.c        ****         }
 1024              		.loc 1 100 0
 1025 0046 0120     		movs	r0, #1
 1026 0048 FFF7FEFF 		bl	Test_LED_Write
 1027              	.LVL71:
 1028              	.L56:
 103:main.c        ****   
 1029              		.loc 1 103 0
 1030              		@ sp needed
 1031 004c 10BD     		pop	{r4, pc}
 1032              	.L61:
 1033 004e C046     		.align	2
 1034              	.L60:
ARM GAS  C:\Users\austc\AppData\Local\Temp\ccREwTmP.s 			page 31


 1035 0050 00000000 		.word	.LANCHOR0
 1036 0054 AC000000 		.word	.LC40
 1037 0058 00000000 		.word	txData
 1038 005c 00000000 		.word	.LANCHOR1
 1039 0060 00000000 		.word	Can_rx_pwm
 1040              		.cfi_endproc
 1041              	.LFE35:
 1042              		.size	Period_Reset_Handler, .-Period_Reset_Handler
 1043              		.section	.text.Pin_Limit_Handler,"ax",%progbits
 1044              		.align	2
 1045              		.global	Pin_Limit_Handler
 1046              		.code	16
 1047              		.thumb_func
 1048              		.type	Pin_Limit_Handler, %function
 1049              	Pin_Limit_Handler:
 1050              	.LFB36:
 105:main.c        ****     if(uart_debug) {
 1051              		.loc 1 105 0
 1052              		.cfi_startproc
 1053              		@ args = 0, pretend = 0, frame = 0
 1054              		@ frame_needed = 0, uses_anonymous_args = 0
 1055 0000 10B5     		push	{r4, lr}
 1056              		.cfi_def_cfa_offset 8
 1057              		.cfi_offset 4, -8
 1058              		.cfi_offset 14, -4
 106:main.c        ****         sprintf(txData,"Limit interupt triggerd\r\n");
 1059              		.loc 1 106 0
 1060 0002 0A4B     		ldr	r3, .L64
 1061 0004 1B78     		ldrb	r3, [r3]
 1062 0006 002B     		cmp	r3, #0
 1063 0008 08D0     		beq	.L63
 107:main.c        ****         UART_UartPutString(txData);
 1064              		.loc 1 107 0
 1065 000a 094C     		ldr	r4, .L64+4
 1066 000c 1A22     		movs	r2, #26
 1067 000e 0949     		ldr	r1, .L64+8
 1068 0010 2000     		movs	r0, r4
 1069 0012 FFF7FEFF 		bl	memcpy
 1070              	.LVL72:
 108:main.c        ****     }
 1071              		.loc 1 108 0
 1072 0016 2000     		movs	r0, r4
 1073 0018 FFF7FEFF 		bl	UART_UartPutString
 1074              	.LVL73:
 1075              	.L63:
 110:main.c        ****     QuadDec_SetCounter(0);
 1076              		.loc 1 110 0
 1077 001c 064B     		ldr	r3, .L64+12
 1078 001e 1868     		ldr	r0, [r3]
 1079 0020 FFF7FEFF 		bl	set_PWM
 1080              	.LVL74:
 111:main.c        **** }
 1081              		.loc 1 111 0
 1082 0024 0020     		movs	r0, #0
 1083 0026 FFF7FEFF 		bl	QuadDec_SetCounter
 1084              	.LVL75:
 112:main.c        **** 
ARM GAS  C:\Users\austc\AppData\Local\Temp\ccREwTmP.s 			page 32


 1085              		.loc 1 112 0
 1086              		@ sp needed
 1087 002a 10BD     		pop	{r4, pc}
 1088              	.L65:
 1089              		.align	2
 1090              	.L64:
 1091 002c 00000000 		.word	.LANCHOR0
 1092 0030 00000000 		.word	txData
 1093 0034 CC000000 		.word	.LC47
 1094 0038 00000000 		.word	pwm_compare
 1095              		.cfi_endproc
 1096              	.LFE36:
 1097              		.size	Pin_Limit_Handler, .-Pin_Limit_Handler
 1098              		.section	.text.CAN_Send_Encoder,"ax",%progbits
 1099              		.align	2
 1100              		.global	CAN_Send_Encoder
 1101              		.code	16
 1102              		.thumb_func
 1103              		.type	CAN_Send_Encoder, %function
 1104              	CAN_Send_Encoder:
 1105              	.LFB43:
 411:main.c        ****     int16 ticks = QuadDec_GetCounter();
 1106              		.loc 1 411 0
 1107              		.cfi_startproc
 1108              		@ args = 0, pretend = 0, frame = 0
 1109              		@ frame_needed = 0, uses_anonymous_args = 0
 1110 0000 F0B5     		push	{r4, r5, r6, r7, lr}
 1111              		.cfi_def_cfa_offset 20
 1112              		.cfi_offset 4, -20
 1113              		.cfi_offset 5, -16
 1114              		.cfi_offset 6, -12
 1115              		.cfi_offset 7, -8
 1116              		.cfi_offset 14, -4
 1117 0002 83B0     		sub	sp, sp, #12
 1118              		.cfi_def_cfa_offset 32
 412:main.c        ****     data.byte[0u] = 0x14u;
 1119              		.loc 1 412 0
 1120 0004 FFF7FEFF 		bl	QuadDec_GetCounter
 1121              	.LVL76:
 413:main.c        ****     data.byte[1u] = LO8(ticks);
 1122              		.loc 1 413 0
 1123 0008 124B     		ldr	r3, .L68
 1124 000a 1422     		movs	r2, #20
 1125 000c 1A70     		strb	r2, [r3]
 414:main.c        ****     data.byte[2u] = HI8(ticks);
 1126              		.loc 1 414 0
 1127 000e 5870     		strb	r0, [r3, #1]
 415:main.c        ****     data.byte[3u] = 0;
 1128              		.loc 1 415 0
 1129 0010 80B2     		uxth	r0, r0
 1130 0012 000A     		lsrs	r0, r0, #8
 1131              	.LVL77:
 1132 0014 9870     		strb	r0, [r3, #2]
 416:main.c        ****     data.byte[4u] = 0;
 1133              		.loc 1 416 0
 1134 0016 0022     		movs	r2, #0
 1135 0018 DA70     		strb	r2, [r3, #3]
ARM GAS  C:\Users\austc\AppData\Local\Temp\ccREwTmP.s 			page 33


 417:main.c        ****     CAN_SendMsg(&message);
 1136              		.loc 1 417 0
 1137 001a 1A71     		strb	r2, [r3, #4]
 418:main.c        ****     if(uart_debug == 2) {
 1138              		.loc 1 418 0
 1139 001c 0E48     		ldr	r0, .L68+4
 1140 001e FFF7FEFF 		bl	CAN_SendMsg
 1141              	.LVL78:
 419:main.c        ****         sprintf(txData, "CAN_Send_Encoder: byte[0u] %x byte[1u] %x byte[2u] %x\n QuadDec Count %d\r
 1142              		.loc 1 419 0
 1143 0022 0E4B     		ldr	r3, .L68+8
 1144 0024 1B78     		ldrb	r3, [r3]
 1145 0026 022B     		cmp	r3, #2
 1146 0028 11D1     		bne	.L66
 421:main.c        ****             QuadDec_GetCounter());
 1147              		.loc 1 421 0
 1148 002a 0A4B     		ldr	r3, .L68
 1149 002c 1D78     		ldrb	r5, [r3]
 1150 002e 5E78     		ldrb	r6, [r3, #1]
 1151 0030 9F78     		ldrb	r7, [r3, #2]
 422:main.c        ****         UART_UartPutString(txData);    
 1152              		.loc 1 422 0
 1153 0032 FFF7FEFF 		bl	QuadDec_GetCounter
 1154              	.LVL79:
 420:main.c        ****             data.byte[0u],data.byte[1u],data.byte[2u],
 1155              		.loc 1 420 0
 1156 0036 0A4C     		ldr	r4, .L68+12
 1157 0038 0190     		str	r0, [sp, #4]
 1158 003a 0097     		str	r7, [sp]
 1159 003c 3300     		movs	r3, r6
 1160 003e 2A00     		movs	r2, r5
 1161 0040 0849     		ldr	r1, .L68+16
 1162 0042 2000     		movs	r0, r4
 1163 0044 FFF7FEFF 		bl	sprintf
 1164              	.LVL80:
 423:main.c        ****     }
 1165              		.loc 1 423 0
 1166 0048 2000     		movs	r0, r4
 1167 004a FFF7FEFF 		bl	UART_UartPutString
 1168              	.LVL81:
 1169              	.L66:
 425:main.c        **** 
 1170              		.loc 1 425 0
 1171 004e 03B0     		add	sp, sp, #12
 1172              		@ sp needed
 1173 0050 F0BD     		pop	{r4, r5, r6, r7, pc}
 1174              	.L69:
 1175 0052 C046     		.align	2
 1176              	.L68:
 1177 0054 00000000 		.word	data
 1178 0058 00000000 		.word	message
 1179 005c 00000000 		.word	.LANCHOR0
 1180 0060 00000000 		.word	txData
 1181 0064 E8000000 		.word	.LC53
 1182              		.cfi_endproc
 1183              	.LFE43:
 1184              		.size	CAN_Send_Encoder, .-CAN_Send_Encoder
ARM GAS  C:\Users\austc\AppData\Local\Temp\ccREwTmP.s 			page 34


 1185              		.section	.text.CAN_Send_Telemetry,"ax",%progbits
 1186              		.align	2
 1187              		.global	CAN_Send_Telemetry
 1188              		.code	16
 1189              		.thumb_func
 1190              		.type	CAN_Send_Telemetry, %function
 1191              	CAN_Send_Telemetry:
 1192              	.LFB44:
 427:main.c        ****     data.byte[0u] = 0x18u;
 1193              		.loc 1 427 0
 1194              		.cfi_startproc
 1195              		@ args = 0, pretend = 0, frame = 0
 1196              		@ frame_needed = 0, uses_anonymous_args = 0
 1197 0000 10B5     		push	{r4, lr}
 1198              		.cfi_def_cfa_offset 8
 1199              		.cfi_offset 4, -8
 1200              		.cfi_offset 14, -4
 428:main.c        ****     data.byte[1u] = 0;
 1201              		.loc 1 428 0
 1202 0002 0D4B     		ldr	r3, .L72
 1203 0004 1822     		movs	r2, #24
 1204 0006 1A70     		strb	r2, [r3]
 429:main.c        ****     data.byte[2u] = 0;
 1205              		.loc 1 429 0
 1206 0008 0022     		movs	r2, #0
 1207 000a 5A70     		strb	r2, [r3, #1]
 430:main.c        ****     data.byte[3u] = 0;
 1208              		.loc 1 430 0
 1209 000c 9A70     		strb	r2, [r3, #2]
 431:main.c        ****     data.byte[4u] = 0;
 1210              		.loc 1 431 0
 1211 000e DA70     		strb	r2, [r3, #3]
 432:main.c        ****     CAN_SendMsg(&message);
 1212              		.loc 1 432 0
 1213 0010 1A71     		strb	r2, [r3, #4]
 433:main.c        ****     if(uart_debug == 2) {
 1214              		.loc 1 433 0
 1215 0012 0A48     		ldr	r0, .L72+4
 1216 0014 FFF7FEFF 		bl	CAN_SendMsg
 1217              	.LVL82:
 434:main.c        ****         sprintf(txData, "Telemerty: byte[0u] %x byte[1u] %x\r\n",(uint8)data.byte[0u],(uint8)data.b
 1218              		.loc 1 434 0
 1219 0018 094B     		ldr	r3, .L72+8
 1220 001a 1B78     		ldrb	r3, [r3]
 1221 001c 022B     		cmp	r3, #2
 1222 001e 0AD1     		bne	.L70
 435:main.c        ****         UART_UartPutString(txData); 
 1223              		.loc 1 435 0
 1224 0020 054B     		ldr	r3, .L72
 1225 0022 1A78     		ldrb	r2, [r3]
 1226 0024 5B78     		ldrb	r3, [r3, #1]
 1227 0026 074C     		ldr	r4, .L72+12
 1228 0028 0749     		ldr	r1, .L72+16
 1229 002a 2000     		movs	r0, r4
 1230 002c FFF7FEFF 		bl	sprintf
 1231              	.LVL83:
 436:main.c        ****     }
ARM GAS  C:\Users\austc\AppData\Local\Temp\ccREwTmP.s 			page 35


 1232              		.loc 1 436 0
 1233 0030 2000     		movs	r0, r4
 1234 0032 FFF7FEFF 		bl	UART_UartPutString
 1235              	.LVL84:
 1236              	.L70:
 438:main.c        **** 
 1237              		.loc 1 438 0
 1238              		@ sp needed
 1239 0036 10BD     		pop	{r4, pc}
 1240              	.L73:
 1241              		.align	2
 1242              	.L72:
 1243 0038 00000000 		.word	data
 1244 003c 00000000 		.word	message
 1245 0040 00000000 		.word	.LANCHOR0
 1246 0044 00000000 		.word	txData
 1247 0048 34010000 		.word	.LC59
 1248              		.cfi_endproc
 1249              	.LFE44:
 1250              		.size	CAN_Send_Telemetry, .-CAN_Send_Telemetry
 1251              		.section	.text.CAN_Send_Model,"ax",%progbits
 1252              		.align	2
 1253              		.global	CAN_Send_Model
 1254              		.code	16
 1255              		.thumb_func
 1256              		.type	CAN_Send_Model, %function
 1257              	CAN_Send_Model:
 1258              	.LFB45:
 440:main.c        ****     data.byte[0u] = 0x12u;
 1259              		.loc 1 440 0
 1260              		.cfi_startproc
 1261              		@ args = 0, pretend = 0, frame = 0
 1262              		@ frame_needed = 0, uses_anonymous_args = 0
 1263 0000 10B5     		push	{r4, lr}
 1264              		.cfi_def_cfa_offset 8
 1265              		.cfi_offset 4, -8
 1266              		.cfi_offset 14, -4
 441:main.c        ****     data.byte[1u] = 0x00u;
 1267              		.loc 1 441 0
 1268 0002 0D4B     		ldr	r3, .L76
 1269 0004 1222     		movs	r2, #18
 1270 0006 1A70     		strb	r2, [r3]
 442:main.c        ****     data.byte[2u] = 0;
 1271              		.loc 1 442 0
 1272 0008 0022     		movs	r2, #0
 1273 000a 5A70     		strb	r2, [r3, #1]
 443:main.c        ****     data.byte[3u] = 0;
 1274              		.loc 1 443 0
 1275 000c 9A70     		strb	r2, [r3, #2]
 444:main.c        ****     data.byte[4u] = 0;
 1276              		.loc 1 444 0
 1277 000e DA70     		strb	r2, [r3, #3]
 445:main.c        ****     CAN_SendMsg(&message);
 1278              		.loc 1 445 0
 1279 0010 1A71     		strb	r2, [r3, #4]
 446:main.c        ****     if(uart_debug == 2) {
 1280              		.loc 1 446 0
ARM GAS  C:\Users\austc\AppData\Local\Temp\ccREwTmP.s 			page 36


 1281 0012 0A48     		ldr	r0, .L76+4
 1282 0014 FFF7FEFF 		bl	CAN_SendMsg
 1283              	.LVL85:
 447:main.c        ****         sprintf(txData, "Model: byte[0u] %x byte[1u] %x\r\n",data.byte[0u],data.byte[1u]);
 1284              		.loc 1 447 0
 1285 0018 094B     		ldr	r3, .L76+8
 1286 001a 1B78     		ldrb	r3, [r3]
 1287 001c 022B     		cmp	r3, #2
 1288 001e 0AD1     		bne	.L74
 448:main.c        ****         UART_UartPutString(txData); 
 1289              		.loc 1 448 0
 1290 0020 054B     		ldr	r3, .L76
 1291 0022 1A78     		ldrb	r2, [r3]
 1292 0024 5B78     		ldrb	r3, [r3, #1]
 1293 0026 074C     		ldr	r4, .L76+12
 1294 0028 0749     		ldr	r1, .L76+16
 1295 002a 2000     		movs	r0, r4
 1296 002c FFF7FEFF 		bl	sprintf
 1297              	.LVL86:
 449:main.c        ****     }
 1298              		.loc 1 449 0
 1299 0030 2000     		movs	r0, r4
 1300 0032 FFF7FEFF 		bl	UART_UartPutString
 1301              	.LVL87:
 1302              	.L74:
 451:main.c        **** 
 1303              		.loc 1 451 0
 1304              		@ sp needed
 1305 0036 10BD     		pop	{r4, pc}
 1306              	.L77:
 1307              		.align	2
 1308              	.L76:
 1309 0038 00000000 		.word	data
 1310 003c 00000000 		.word	message
 1311 0040 00000000 		.word	.LANCHOR0
 1312 0044 00000000 		.word	txData
 1313 0048 5C010000 		.word	.LC65
 1314              		.cfi_endproc
 1315              	.LFE45:
 1316              		.size	CAN_Send_Model, .-CAN_Send_Model
 1317              		.section	.text.CAN_Send_Error,"ax",%progbits
 1318              		.align	2
 1319              		.global	CAN_Send_Error
 1320              		.code	16
 1321              		.thumb_func
 1322              		.type	CAN_Send_Error, %function
 1323              	CAN_Send_Error:
 1324              	.LFB46:
 453:main.c        ****     data.byte[0u] = 0xffu;
 1325              		.loc 1 453 0
 1326              		.cfi_startproc
 1327              		@ args = 0, pretend = 0, frame = 0
 1328              		@ frame_needed = 0, uses_anonymous_args = 0
 1329              	.LVL88:
 1330 0000 10B5     		push	{r4, lr}
 1331              		.cfi_def_cfa_offset 8
 1332              		.cfi_offset 4, -8
ARM GAS  C:\Users\austc\AppData\Local\Temp\ccREwTmP.s 			page 37


 1333              		.cfi_offset 14, -4
 1334 0002 82B0     		sub	sp, sp, #8
 1335              		.cfi_def_cfa_offset 16
 454:main.c        ****     data.byte[1u] = code;
 1336              		.loc 1 454 0
 1337 0004 0E4B     		ldr	r3, .L80
 1338 0006 FF22     		movs	r2, #255
 1339 0008 1A70     		strb	r2, [r3]
 455:main.c        ****     data.byte[2u] = param;
 1340              		.loc 1 455 0
 1341 000a 5870     		strb	r0, [r3, #1]
 456:main.c        ****     data.byte[3u] = 0;
 1342              		.loc 1 456 0
 1343 000c 9970     		strb	r1, [r3, #2]
 457:main.c        ****     data.byte[4u] = 0;
 1344              		.loc 1 457 0
 1345 000e 0022     		movs	r2, #0
 1346 0010 DA70     		strb	r2, [r3, #3]
 458:main.c        ****     CAN_SendMsg(&message);
 1347              		.loc 1 458 0
 1348 0012 1A71     		strb	r2, [r3, #4]
 459:main.c        ****     if(uart_debug == 2) {
 1349              		.loc 1 459 0
 1350 0014 0B48     		ldr	r0, .L80+4
 1351              	.LVL89:
 1352 0016 FFF7FEFF 		bl	CAN_SendMsg
 1353              	.LVL90:
 460:main.c        ****         sprintf(txData, "Error: byte[0u] %x byte[1u] %x byte[2u] %x\r\n",data.byte[0u],data.byte[1u
 1354              		.loc 1 460 0
 1355 001a 0B4B     		ldr	r3, .L80+8
 1356 001c 1B78     		ldrb	r3, [r3]
 1357 001e 022B     		cmp	r3, #2
 1358 0020 0CD1     		bne	.L78
 461:main.c        ****         UART_UartPutString(txData); 
 1359              		.loc 1 461 0
 1360 0022 0749     		ldr	r1, .L80
 1361 0024 0A78     		ldrb	r2, [r1]
 1362 0026 4B78     		ldrb	r3, [r1, #1]
 1363 0028 8978     		ldrb	r1, [r1, #2]
 1364 002a 084C     		ldr	r4, .L80+12
 1365 002c 0091     		str	r1, [sp]
 1366 002e 0849     		ldr	r1, .L80+16
 1367 0030 2000     		movs	r0, r4
 1368 0032 FFF7FEFF 		bl	sprintf
 1369              	.LVL91:
 462:main.c        ****     }
 1370              		.loc 1 462 0
 1371 0036 2000     		movs	r0, r4
 1372 0038 FFF7FEFF 		bl	UART_UartPutString
 1373              	.LVL92:
 1374              	.L78:
 464:main.c        **** 
 1375              		.loc 1 464 0
 1376 003c 02B0     		add	sp, sp, #8
 1377              		@ sp needed
 1378 003e 10BD     		pop	{r4, pc}
 1379              	.L81:
ARM GAS  C:\Users\austc\AppData\Local\Temp\ccREwTmP.s 			page 38


 1380              		.align	2
 1381              	.L80:
 1382 0040 00000000 		.word	data
 1383 0044 00000000 		.word	message
 1384 0048 00000000 		.word	.LANCHOR0
 1385 004c 00000000 		.word	txData
 1386 0050 80010000 		.word	.LC71
 1387              		.cfi_endproc
 1388              	.LFE46:
 1389              		.size	CAN_Send_Error, .-CAN_Send_Error
 1390              		.section	.text.set_data,"ax",%progbits
 1391              		.align	2
 1392              		.global	set_data
 1393              		.code	16
 1394              		.thumb_func
 1395              		.type	set_data, %function
 1396              	set_data:
 1397              	.LFB48:
 504:main.c        ****         //set mode
 1398              		.loc 1 504 0
 1399              		.cfi_startproc
 1400              		@ args = 0, pretend = 0, frame = 0
 1401              		@ frame_needed = 0, uses_anonymous_args = 0
 1402              		@ link register save eliminated.
 1403              	.LVL93:
 506:main.c        ****             if(CAN_RX_DATA_BYTE2(addr) == 1 || CAN_RX_DATA_BYTE2(addr) == 0) {
 1404              		.loc 1 506 0
 1405 0000 4001     		lsls	r0, r0, #5
 1406              	.LVL94:
 1407 0002 274B     		ldr	r3, .L90
 1408 0004 9C46     		mov	ip, r3
 1409 0006 6044     		add	r0, r0, ip
 1410 0008 8368     		ldr	r3, [r0, #8]
 1411 000a 1B0E     		lsrs	r3, r3, #24
 1412 000c 16D1     		bne	.L83
 507:main.c        ****                 mode = CAN_RX_DATA_BYTE2(addr);
 1413              		.loc 1 507 0
 1414 000e 8368     		ldr	r3, [r0, #8]
 1415 0010 1B0C     		lsrs	r3, r3, #16
 1416 0012 FF22     		movs	r2, #255
 1417 0014 1340     		ands	r3, r2
 1418 0016 012B     		cmp	r3, #1
 1419 0018 03D0     		beq	.L84
 507:main.c        ****                 mode = CAN_RX_DATA_BYTE2(addr);
 1420              		.loc 1 507 0 is_stmt 0 discriminator 1
 1421 001a 8368     		ldr	r3, [r0, #8]
 1422 001c 1B0C     		lsrs	r3, r3, #16
 1423 001e 1A42     		tst	r2, r3
 1424 0020 04D1     		bne	.L85
 1425              	.L84:
 508:main.c        ****             }
 1426              		.loc 1 508 0 is_stmt 1
 1427 0022 8368     		ldr	r3, [r0, #8]
 1428 0024 1B0C     		lsrs	r3, r3, #16
 1429 0026 1F4A     		ldr	r2, .L90+4
 1430 0028 9372     		strb	r3, [r2, #10]
 1431 002a 03E0     		b	.L86
ARM GAS  C:\Users\austc\AppData\Local\Temp\ccREwTmP.s 			page 39


 1432              	.L85:
 511:main.c        ****                 invalid_arg.done = 0;
 1433              		.loc 1 511 0
 1434 002c 1E4B     		ldr	r3, .L90+8
 1435 002e 0022     		movs	r2, #0
 1436 0030 5A70     		strb	r2, [r3, #1]
 512:main.c        ****             }
 1437              		.loc 1 512 0
 1438 0032 9A70     		strb	r2, [r3, #2]
 1439              	.L86:
 514:main.c        ****         } 
 1440              		.loc 1 514 0
 1441 0034 0122     		movs	r2, #1
 1442 0036 1D4B     		ldr	r3, .L90+12
 1443 0038 5A70     		strb	r2, [r3, #1]
 1444 003a 2FE0     		b	.L82
 1445              	.L83:
 517:main.c        ****             Can_rx_pwm.b1 = CAN_RX_DATA_BYTE2(addr);
 1446              		.loc 1 517 0
 1447 003c 8368     		ldr	r3, [r0, #8]
 1448 003e 1B0E     		lsrs	r3, r3, #24
 1449 0040 022B     		cmp	r3, #2
 1450 0042 0ED1     		bne	.L88
 518:main.c        ****             Can_rx_pwm.b2 = CAN_RX_DATA_BYTE3(addr);
 1451              		.loc 1 518 0
 1452 0044 8268     		ldr	r2, [r0, #8]
 1453 0046 120C     		lsrs	r2, r2, #16
 1454 0048 194B     		ldr	r3, .L90+16
 1455 004a 5A70     		strb	r2, [r3, #1]
 519:main.c        ****             Can_rx_pwm.b3 = CAN_RX_DATA_BYTE4(addr);
 1456              		.loc 1 519 0
 1457 004c 8268     		ldr	r2, [r0, #8]
 1458 004e 120A     		lsrs	r2, r2, #8
 1459 0050 9A70     		strb	r2, [r3, #2]
 520:main.c        ****             Can_rx_pwm.b4 = CAN_RX_DATA_BYTE5(addr);
 1460              		.loc 1 520 0
 1461 0052 8268     		ldr	r2, [r0, #8]
 1462 0054 DA70     		strb	r2, [r3, #3]
 521:main.c        ****             Can_rx_pwm.done = 0;
 1463              		.loc 1 521 0
 1464 0056 C268     		ldr	r2, [r0, #12]
 1465 0058 120E     		lsrs	r2, r2, #24
 1466 005a 1A71     		strb	r2, [r3, #4]
 522:main.c        ****         } 
 1467              		.loc 1 522 0
 1468 005c 0022     		movs	r2, #0
 1469 005e 5A71     		strb	r2, [r3, #5]
 1470 0060 1CE0     		b	.L82
 1471              	.L88:
 525:main.c        ****             Can_rx_angle.b1 = CAN_RX_DATA_BYTE2(addr);
 1472              		.loc 1 525 0
 1473 0062 8368     		ldr	r3, [r0, #8]
 1474 0064 1B0E     		lsrs	r3, r3, #24
 1475 0066 042B     		cmp	r3, #4
 1476 0068 11D1     		bne	.L89
 526:main.c        ****             Can_rx_angle.b2 = CAN_RX_DATA_BYTE3(addr);
 1477              		.loc 1 526 0
ARM GAS  C:\Users\austc\AppData\Local\Temp\ccREwTmP.s 			page 40


 1478 006a 8268     		ldr	r2, [r0, #8]
 1479 006c 120C     		lsrs	r2, r2, #16
 1480 006e 114B     		ldr	r3, .L90+20
 1481 0070 5A70     		strb	r2, [r3, #1]
 527:main.c        ****             Can_rx_angle.b3 = CAN_RX_DATA_BYTE4(addr);
 1482              		.loc 1 527 0
 1483 0072 8268     		ldr	r2, [r0, #8]
 1484 0074 120A     		lsrs	r2, r2, #8
 1485 0076 9A70     		strb	r2, [r3, #2]
 528:main.c        ****             Can_rx_angle.b4 = CAN_RX_DATA_BYTE5(addr);
 1486              		.loc 1 528 0
 1487 0078 8268     		ldr	r2, [r0, #8]
 1488 007a DA70     		strb	r2, [r3, #3]
 529:main.c        ****             Can_rx_angle.done = 0;
 1489              		.loc 1 529 0
 1490 007c C268     		ldr	r2, [r0, #12]
 1491 007e 120E     		lsrs	r2, r2, #24
 1492 0080 1A71     		strb	r2, [r3, #4]
 530:main.c        ****             complete = 1;
 1493              		.loc 1 530 0
 1494 0082 0022     		movs	r2, #0
 1495 0084 5A71     		strb	r2, [r3, #5]
 531:main.c        ****         } 
 1496              		.loc 1 531 0
 1497 0086 0132     		adds	r2, r2, #1
 1498 0088 084B     		ldr	r3, .L90+12
 1499 008a 5A70     		strb	r2, [r3, #1]
 1500 008c 06E0     		b	.L82
 1501              	.L89:
 534:main.c        ****             model_req = 1;
 1502              		.loc 1 534 0
 1503 008e 8368     		ldr	r3, [r0, #8]
 1504 0090 1B0E     		lsrs	r3, r3, #24
 1505 0092 102B     		cmp	r3, #16
 1506 0094 02D1     		bne	.L82
 1507              		.loc 1 535 0
 1508 0096 0122     		movs	r2, #1
 1509 0098 044B     		ldr	r3, .L90+12
 1510 009a 9A70     		strb	r2, [r3, #2]
 1511              	.L82:
 536:main.c        ****         }
 537:main.c        **** }
 1512              		.loc 1 537 0
 1513              		@ sp needed
 1514 009c 7047     		bx	lr
 1515              	.L91:
 1516 009e C046     		.align	2
 1517              	.L90:
 1518 00a0 A0002F40 		.word	1076822176
 1519 00a4 00000000 		.word	.LANCHOR0
 1520 00a8 00000000 		.word	invalid_arg
 1521 00ac 00000000 		.word	.LANCHOR1
 1522 00b0 00000000 		.word	Can_rx_pwm
 1523 00b4 00000000 		.word	Can_rx_angle
 1524              		.cfi_endproc
 1525              	.LFE48:
 1526              		.size	set_data, .-set_data
ARM GAS  C:\Users\austc\AppData\Local\Temp\ccREwTmP.s 			page 41


 1527              		.global	__aeabi_i2d
 1528              		.global	__aeabi_dmul
 1529              		.global	__aeabi_d2iz
 1530              		.section	.text.degrees_to_tick,"ax",%progbits
 1531              		.align	2
 1532              		.global	degrees_to_tick
 1533              		.code	16
 1534              		.thumb_func
 1535              		.type	degrees_to_tick, %function
 1536              	degrees_to_tick:
 1537              	.LFB50:
 538:main.c        **** 
 539:main.c        **** void set_Position(int16 degrees) {
 540:main.c        ****     if(uart_debug) {
 541:main.c        ****         sprintf(txData, "complete: %d\r\n",complete);
 542:main.c        ****         UART_UartPutString(txData);
 543:main.c        ****     }
 544:main.c        ****     //while(!complete) {
 545:main.c        ****         int PWM = position_PID(degrees_to_tick(degrees));
 546:main.c        ****         if(uart_debug) {
 547:main.c        ****             sprintf(txData, "PWM: %d\r\n",PWM);
 548:main.c        ****             UART_UartPutString(txData);
 549:main.c        ****         }
 550:main.c        ****         if(PWM > maxV){
 551:main.c        ****             set_PWM(maxV);   
 552:main.c        ****         } else if(PWM < -maxV) {
 553:main.c        ****             set_PWM(-maxV);
 554:main.c        ****         } else {
 555:main.c        ****             set_PWM(PWM);   
 556:main.c        ****         }
 557:main.c        ****    // }
 558:main.c        **** }
 559:main.c        **** 
 560:main.c        **** int degrees_to_tick(int16 degrees){
 1538              		.loc 1 560 0
 1539              		.cfi_startproc
 1540              		@ args = 0, pretend = 0, frame = 0
 1541              		@ frame_needed = 0, uses_anonymous_args = 0
 1542              	.LVL95:
 1543 0000 70B5     		push	{r4, r5, r6, lr}
 1544              		.cfi_def_cfa_offset 16
 1545              		.cfi_offset 4, -16
 1546              		.cfi_offset 5, -12
 1547              		.cfi_offset 6, -8
 1548              		.cfi_offset 14, -4
 1549 0002 0500     		movs	r5, r0
 561:main.c        ****     int ticks = (int)((double)degrees * ratio);
 1550              		.loc 1 561 0
 1551 0004 FFF7FEFF 		bl	__aeabi_i2d
 1552              	.LVL96:
 1553 0008 0B4B     		ldr	r3, .L94
 1554 000a 1A68     		ldr	r2, [r3]
 1555 000c 5B68     		ldr	r3, [r3, #4]
 1556 000e FFF7FEFF 		bl	__aeabi_dmul
 1557              	.LVL97:
 1558 0012 FFF7FEFF 		bl	__aeabi_d2iz
 1559              	.LVL98:
ARM GAS  C:\Users\austc\AppData\Local\Temp\ccREwTmP.s 			page 42


 1560 0016 0400     		movs	r4, r0
 1561              	.LVL99:
 562:main.c        ****     if(uart_debug) {
 1562              		.loc 1 562 0
 1563 0018 084B     		ldr	r3, .L94+4
 1564 001a 1B78     		ldrb	r3, [r3]
 1565 001c 002B     		cmp	r3, #0
 1566 001e 09D0     		beq	.L93
 563:main.c        ****         sprintf(txData, "degree: %d ticks: %d\r\n", degrees, ticks);
 1567              		.loc 1 563 0
 1568 0020 074E     		ldr	r6, .L94+8
 1569 0022 0300     		movs	r3, r0
 1570 0024 2A00     		movs	r2, r5
 1571 0026 0749     		ldr	r1, .L94+12
 1572 0028 3000     		movs	r0, r6
 1573              	.LVL100:
 1574 002a FFF7FEFF 		bl	sprintf
 1575              	.LVL101:
 564:main.c        ****         UART_UartPutString(txData);
 1576              		.loc 1 564 0
 1577 002e 3000     		movs	r0, r6
 1578 0030 FFF7FEFF 		bl	UART_UartPutString
 1579              	.LVL102:
 1580              	.L93:
 565:main.c        ****     }
 566:main.c        ****     return(ticks);
 567:main.c        **** }
 1581              		.loc 1 567 0
 1582 0034 2000     		movs	r0, r4
 1583              		@ sp needed
 1584              	.LVL103:
 1585 0036 70BD     		pop	{r4, r5, r6, pc}
 1586              	.L95:
 1587              		.align	2
 1588              	.L94:
 1589 0038 00000000 		.word	ratio
 1590 003c 00000000 		.word	.LANCHOR0
 1591 0040 00000000 		.word	txData
 1592 0044 B0010000 		.word	.LC81
 1593              		.cfi_endproc
 1594              	.LFE50:
 1595              		.size	degrees_to_tick, .-degrees_to_tick
 1596              		.global	__aeabi_idiv
 1597              		.section	.text.position_PID,"ax",%progbits
 1598              		.align	2
 1599              		.global	position_PID
 1600              		.code	16
 1601              		.thumb_func
 1602              		.type	position_PID, %function
 1603              	position_PID:
 1604              	.LFB51:
 568:main.c        **** 
 569:main.c        **** int position_PID(int target){
 1605              		.loc 1 569 0
 1606              		.cfi_startproc
 1607              		@ args = 0, pretend = 0, frame = 0
 1608              		@ frame_needed = 0, uses_anonymous_args = 0
ARM GAS  C:\Users\austc\AppData\Local\Temp\ccREwTmP.s 			page 43


 1609              	.LVL104:
 1610 0000 70B5     		push	{r4, r5, r6, lr}
 1611              		.cfi_def_cfa_offset 16
 1612              		.cfi_offset 4, -16
 1613              		.cfi_offset 5, -12
 1614              		.cfi_offset 6, -8
 1615              		.cfi_offset 14, -4
 1616 0002 82B0     		sub	sp, sp, #8
 1617              		.cfi_def_cfa_offset 24
 1618 0004 0400     		movs	r4, r0
 570:main.c        ****     int16 current =  QuadDec_GetCounter() * flipEncoder;
 1619              		.loc 1 570 0
 1620 0006 FFF7FEFF 		bl	QuadDec_GetCounter
 1621              	.LVL105:
 1622 000a 244B     		ldr	r3, .L102
 1623 000c 9B7B     		ldrb	r3, [r3, #14]
 1624 000e 5BB2     		sxtb	r3, r3
 1625 0010 5843     		muls	r0, r3
 1626 0012 02B2     		sxth	r2, r0
 1627              	.LVL106:
 571:main.c        ****     int p = target - current;
 1628              		.loc 1 571 0
 1629 0014 A41A     		subs	r4, r4, r2
 1630              	.LVL107:
 572:main.c        ****     if(!p) {
 1631              		.loc 1 572 0
 1632 0016 3ED0     		beq	.L101
 573:main.c        ****       //complete =  1;
 574:main.c        ****       return(0);
 575:main.c        ****     }
 576:main.c        ****     i = i + p;
 1633              		.loc 1 576 0
 1634 0018 2149     		ldr	r1, .L102+4
 1635 001a 0B69     		ldr	r3, [r1, #16]
 1636 001c E318     		adds	r3, r4, r3
 1637 001e 0B61     		str	r3, [r1, #16]
 577:main.c        ****     if ( i > 500) {
 1638              		.loc 1 577 0
 1639 0020 FA21     		movs	r1, #250
 1640 0022 4900     		lsls	r1, r1, #1
 1641 0024 8B42     		cmp	r3, r1
 1642 0026 01DD     		ble	.L98
 578:main.c        ****         i = 500;   
 1643              		.loc 1 578 0
 1644 0028 1D4B     		ldr	r3, .L102+4
 1645 002a 1961     		str	r1, [r3, #16]
 1646              	.L98:
 579:main.c        ****     }
 580:main.c        ****     if ( i < -500) {
 1647              		.loc 1 580 0
 1648 002c 1C4B     		ldr	r3, .L102+4
 1649 002e 1969     		ldr	r1, [r3, #16]
 1650 0030 1C4B     		ldr	r3, .L102+8
 1651 0032 9942     		cmp	r1, r3
 1652 0034 02DA     		bge	.L99
 581:main.c        ****         i = -500;
 1653              		.loc 1 581 0
ARM GAS  C:\Users\austc\AppData\Local\Temp\ccREwTmP.s 			page 44


 1654 0036 1900     		movs	r1, r3
 1655 0038 194B     		ldr	r3, .L102+4
 1656 003a 1961     		str	r1, [r3, #16]
 1657              	.L99:
 582:main.c        ****     }
 583:main.c        ****     int d = p - lastp;
 1658              		.loc 1 583 0
 1659 003c 184B     		ldr	r3, .L102+4
 1660 003e 5969     		ldr	r1, [r3, #20]
 1661 0040 651A     		subs	r5, r4, r1
 1662              	.LVL108:
 584:main.c        ****     lastp = p;
 1663              		.loc 1 584 0
 1664 0042 5C61     		str	r4, [r3, #20]
 585:main.c        ****     if(uart_debug) {
 1665              		.loc 1 585 0
 1666 0044 154B     		ldr	r3, .L102
 1667 0046 1B78     		ldrb	r3, [r3]
 1668 0048 002B     		cmp	r3, #0
 1669 004a 0CD0     		beq	.L100
 586:main.c        ****         sprintf(txData, "p: %d, i: %d d %d current %d\r\n",p, i, d, current);
 1670              		.loc 1 586 0
 1671 004c 144B     		ldr	r3, .L102+4
 1672 004e 1B69     		ldr	r3, [r3, #16]
 1673 0050 154E     		ldr	r6, .L102+12
 1674 0052 0192     		str	r2, [sp, #4]
 1675 0054 0095     		str	r5, [sp]
 1676 0056 2200     		movs	r2, r4
 1677              	.LVL109:
 1678 0058 1449     		ldr	r1, .L102+16
 1679 005a 3000     		movs	r0, r6
 1680 005c FFF7FEFF 		bl	sprintf
 1681              	.LVL110:
 587:main.c        ****         UART_UartPutString(txData);
 1682              		.loc 1 587 0
 1683 0060 3000     		movs	r0, r6
 1684 0062 FFF7FEFF 		bl	UART_UartPutString
 1685              	.LVL111:
 1686              	.L100:
 588:main.c        ****     }
 589:main.c        ****     return (p*kp/10 + i*ki/10 + d*kd/10);
 1687              		.loc 1 589 0
 1688 0066 124B     		ldr	r3, .L102+20
 1689 0068 1868     		ldr	r0, [r3]
 1690 006a 6043     		muls	r0, r4
 1691 006c 0A21     		movs	r1, #10
 1692 006e FFF7FEFF 		bl	__aeabi_idiv
 1693              	.LVL112:
 1694 0072 0400     		movs	r4, r0
 1695              	.LVL113:
 1696 0074 0A4B     		ldr	r3, .L102+4
 1697 0076 1869     		ldr	r0, [r3, #16]
 1698 0078 0E4B     		ldr	r3, .L102+24
 1699 007a 1B68     		ldr	r3, [r3]
 1700 007c 5843     		muls	r0, r3
 1701 007e 0A21     		movs	r1, #10
 1702 0080 FFF7FEFF 		bl	__aeabi_idiv
ARM GAS  C:\Users\austc\AppData\Local\Temp\ccREwTmP.s 			page 45


 1703              	.LVL114:
 1704 0084 2418     		adds	r4, r4, r0
 1705 0086 0C4B     		ldr	r3, .L102+28
 1706 0088 1868     		ldr	r0, [r3]
 1707 008a 6843     		muls	r0, r5
 1708 008c 0A21     		movs	r1, #10
 1709 008e FFF7FEFF 		bl	__aeabi_idiv
 1710              	.LVL115:
 1711 0092 2018     		adds	r0, r4, r0
 1712 0094 00E0     		b	.L97
 1713              	.LVL116:
 1714              	.L101:
 574:main.c        ****     }
 1715              		.loc 1 574 0
 1716 0096 0020     		movs	r0, #0
 1717              	.LVL117:
 1718              	.L97:
 590:main.c        **** }
 1719              		.loc 1 590 0
 1720 0098 02B0     		add	sp, sp, #8
 1721              		@ sp needed
 1722 009a 70BD     		pop	{r4, r5, r6, pc}
 1723              	.L103:
 1724              		.align	2
 1725              	.L102:
 1726 009c 00000000 		.word	.LANCHOR0
 1727 00a0 00000000 		.word	.LANCHOR1
 1728 00a4 0CFEFFFF 		.word	-500
 1729 00a8 00000000 		.word	txData
 1730 00ac C8010000 		.word	.LC86
 1731 00b0 00000000 		.word	kp
 1732 00b4 00000000 		.word	ki
 1733 00b8 00000000 		.word	kd
 1734              		.cfi_endproc
 1735              	.LFE51:
 1736              		.size	position_PID, .-position_PID
 1737              		.section	.text.set_Position,"ax",%progbits
 1738              		.align	2
 1739              		.global	set_Position
 1740              		.code	16
 1741              		.thumb_func
 1742              		.type	set_Position, %function
 1743              	set_Position:
 1744              	.LFB49:
 539:main.c        ****     if(uart_debug) {
 1745              		.loc 1 539 0
 1746              		.cfi_startproc
 1747              		@ args = 0, pretend = 0, frame = 0
 1748              		@ frame_needed = 0, uses_anonymous_args = 0
 1749              	.LVL118:
 1750 0000 70B5     		push	{r4, r5, r6, lr}
 1751              		.cfi_def_cfa_offset 16
 1752              		.cfi_offset 4, -16
 1753              		.cfi_offset 5, -12
 1754              		.cfi_offset 6, -8
 1755              		.cfi_offset 14, -4
 1756 0002 0400     		movs	r4, r0
ARM GAS  C:\Users\austc\AppData\Local\Temp\ccREwTmP.s 			page 46


 540:main.c        ****         sprintf(txData, "complete: %d\r\n",complete);
 1757              		.loc 1 540 0
 1758 0004 184B     		ldr	r3, .L110
 1759 0006 1B78     		ldrb	r3, [r3]
 1760 0008 002B     		cmp	r3, #0
 1761 000a 09D0     		beq	.L105
 541:main.c        ****         UART_UartPutString(txData);
 1762              		.loc 1 541 0
 1763 000c 174B     		ldr	r3, .L110+4
 1764 000e 5A78     		ldrb	r2, [r3, #1]
 1765 0010 174D     		ldr	r5, .L110+8
 1766 0012 1849     		ldr	r1, .L110+12
 1767 0014 2800     		movs	r0, r5
 1768              	.LVL119:
 1769 0016 FFF7FEFF 		bl	sprintf
 1770              	.LVL120:
 542:main.c        ****     }
 1771              		.loc 1 542 0
 1772 001a 2800     		movs	r0, r5
 1773 001c FFF7FEFF 		bl	UART_UartPutString
 1774              	.LVL121:
 1775              	.L105:
 545:main.c        ****         if(uart_debug) {
 1776              		.loc 1 545 0
 1777 0020 2000     		movs	r0, r4
 1778 0022 FFF7FEFF 		bl	degrees_to_tick
 1779              	.LVL122:
 1780 0026 FFF7FEFF 		bl	position_PID
 1781              	.LVL123:
 1782 002a 0400     		movs	r4, r0
 1783              	.LVL124:
 546:main.c        ****             sprintf(txData, "PWM: %d\r\n",PWM);
 1784              		.loc 1 546 0
 1785 002c 0E4B     		ldr	r3, .L110
 1786 002e 1B78     		ldrb	r3, [r3]
 1787 0030 002B     		cmp	r3, #0
 1788 0032 08D0     		beq	.L106
 547:main.c        ****             UART_UartPutString(txData);
 1789              		.loc 1 547 0
 1790 0034 0E4D     		ldr	r5, .L110+8
 1791 0036 0200     		movs	r2, r0
 1792 0038 0F49     		ldr	r1, .L110+16
 1793 003a 2800     		movs	r0, r5
 1794              	.LVL125:
 1795 003c FFF7FEFF 		bl	sprintf
 1796              	.LVL126:
 548:main.c        ****         }
 1797              		.loc 1 548 0
 1798 0040 2800     		movs	r0, r5
 1799 0042 FFF7FEFF 		bl	UART_UartPutString
 1800              	.LVL127:
 1801              	.L106:
 550:main.c        ****             set_PWM(maxV);   
 1802              		.loc 1 550 0
 1803 0046 094B     		ldr	r3, .L110+4
 1804 0048 187E     		ldrb	r0, [r3, #24]
 1805 004a 8442     		cmp	r4, r0
ARM GAS  C:\Users\austc\AppData\Local\Temp\ccREwTmP.s 			page 47


 1806 004c 02DD     		ble	.L107
 551:main.c        ****         } else if(PWM < -maxV) {
 1807              		.loc 1 551 0
 1808 004e FFF7FEFF 		bl	set_PWM
 1809              	.LVL128:
 1810 0052 08E0     		b	.L104
 1811              	.L107:
 552:main.c        ****             set_PWM(-maxV);
 1812              		.loc 1 552 0
 1813 0054 4042     		rsbs	r0, r0, #0
 1814 0056 8442     		cmp	r4, r0
 1815 0058 02DA     		bge	.L109
 553:main.c        ****         } else {
 1816              		.loc 1 553 0
 1817 005a FFF7FEFF 		bl	set_PWM
 1818              	.LVL129:
 1819 005e 02E0     		b	.L104
 1820              	.L109:
 555:main.c        ****         }
 1821              		.loc 1 555 0
 1822 0060 2000     		movs	r0, r4
 1823 0062 FFF7FEFF 		bl	set_PWM
 1824              	.LVL130:
 1825              	.L104:
 558:main.c        **** 
 1826              		.loc 1 558 0
 1827              		@ sp needed
 1828              	.LVL131:
 1829 0066 70BD     		pop	{r4, r5, r6, pc}
 1830              	.L111:
 1831              		.align	2
 1832              	.L110:
 1833 0068 00000000 		.word	.LANCHOR0
 1834 006c 00000000 		.word	.LANCHOR1
 1835 0070 00000000 		.word	txData
 1836 0074 E8010000 		.word	.LC94
 1837 0078 F8010000 		.word	.LC97
 1838              		.cfi_endproc
 1839              	.LFE49:
 1840              		.size	set_Position, .-set_Position
 1841              		.section	.text.main,"ax",%progbits
 1842              		.align	2
 1843              		.global	main
 1844              		.code	16
 1845              		.thumb_func
 1846              		.type	main, %function
 1847              	main:
 1848              	.LFB37:
 115:main.c        ****     #ifdef REV2
 1849              		.loc 1 115 0
 1850              		.cfi_startproc
 1851              		@ args = 0, pretend = 0, frame = 0
 1852              		@ frame_needed = 0, uses_anonymous_args = 0
 1853 0000 30B5     		push	{r4, r5, lr}
 1854              		.cfi_def_cfa_offset 12
 1855              		.cfi_offset 4, -12
 1856              		.cfi_offset 5, -8
ARM GAS  C:\Users\austc\AppData\Local\Temp\ccREwTmP.s 			page 48


 1857              		.cfi_offset 14, -4
 1858 0002 83B0     		sub	sp, sp, #12
 1859              		.cfi_def_cfa_offset 24
 117:main.c        ****         Error_Write(LED_ON);
 1860              		.loc 1 117 0
 1861 0004 0020     		movs	r0, #0
 1862 0006 FFF7FEFF 		bl	Test_LED_Write
 1863              	.LVL132:
 118:main.c        ****     #endif
 1864              		.loc 1 118 0
 1865 000a 0020     		movs	r0, #0
 1866 000c FFF7FEFF 		bl	Error_Write
 1867              	.LVL133:
 120:main.c        ****     stall.done = 1;
 1868              		.loc 1 120 0
 1869 0010 894A     		ldr	r2, .L136
 1870 0012 0123     		movs	r3, #1
 1871 0014 1370     		strb	r3, [r2]
 121:main.c        ****     command_failed.code = 0x02;
 1872              		.loc 1 121 0
 1873 0016 9370     		strb	r3, [r2, #2]
 122:main.c        ****     command_failed.done = 1;
 1874              		.loc 1 122 0
 1875 0018 884A     		ldr	r2, .L136+4
 1876 001a 0221     		movs	r1, #2
 1877 001c 1170     		strb	r1, [r2]
 123:main.c        ****     invalid_arg.code = 0x03;
 1878              		.loc 1 123 0
 1879 001e 9370     		strb	r3, [r2, #2]
 124:main.c        ****     invalid_arg.done = 1;
 1880              		.loc 1 124 0
 1881 0020 874A     		ldr	r2, .L136+8
 1882 0022 0131     		adds	r1, r1, #1
 1883 0024 1170     		strb	r1, [r2]
 125:main.c        ****     uint8 error;
 1884              		.loc 1 125 0
 1885 0026 9370     		strb	r3, [r2, #2]
 128:main.c        ****     message.ide = MESSAGE_IDE;
 1886              		.loc 1 128 0
 1887 0028 864B     		ldr	r3, .L136+12
 1888 002a 0522     		movs	r2, #5
 1889 002c 9A71     		strb	r2, [r3, #6]
 129:main.c        ****     message.irq = MESSAGE_IRQ;
 1890              		.loc 1 129 0
 1891 002e 0024     		movs	r4, #0
 1892 0030 5C71     		strb	r4, [r3, #5]
 130:main.c        ****     message.msg = &data;
 1893              		.loc 1 130 0
 1894 0032 DC71     		strb	r4, [r3, #7]
 131:main.c        ****     message.rtr = MESSAGE_RTR;
 1895              		.loc 1 131 0
 1896 0034 844A     		ldr	r2, .L136+16
 1897 0036 DA60     		str	r2, [r3, #12]
 132:main.c        ****     
 1898              		.loc 1 132 0
 1899 0038 1C71     		strb	r4, [r3, #4]
 135:main.c        ****     Error_Write(0);
ARM GAS  C:\Users\austc\AppData\Local\Temp\ccREwTmP.s 			page 49


 1900              		.loc 1 135 0
 1901 003a 0020     		movs	r0, #0
 1902 003c FFF7FEFF 		bl	Test_LED_Write
 1903              	.LVL134:
 136:main.c        **** 
 1904              		.loc 1 136 0
 1905 0040 0020     		movs	r0, #0
 1906 0042 FFF7FEFF 		bl	Error_Write
 1907              	.LVL135:
 138:main.c        ****     initialize_can_addr();
 1908              		.loc 1 138 0
 1909 0046 FFF7FEFF 		bl	initialize
 1910              	.LVL136:
 139:main.c        ****     int up = 0;
 1911              		.loc 1 139 0
 1912 004a FFF7FEFF 		bl	initialize_can_addr
 1913              	.LVL137:
 141:main.c        ****     set_PWM(0);
 1914              		.loc 1 141 0
 1915 004e 7F4B     		ldr	r3, .L136+20
 1916 0050 1C60     		str	r4, [r3]
 142:main.c        ****     
 1917              		.loc 1 142 0
 1918 0052 0020     		movs	r0, #0
 1919 0054 FFF7FEFF 		bl	set_PWM
 1920              	.LVL138:
 145:main.c        ****         Error_Write(LED_OFF);
 1921              		.loc 1 145 0
 1922 0058 0120     		movs	r0, #1
 1923 005a FFF7FEFF 		bl	Test_LED_Write
 1924              	.LVL139:
 146:main.c        ****     #endif
 1925              		.loc 1 146 0
 1926 005e 0120     		movs	r0, #1
 1927 0060 FFF7FEFF 		bl	Error_Write
 1928              	.LVL140:
 1929              	.L113:
 151:main.c        **** 
 1930              		.loc 1 151 0
 1931 0064 7A4B     		ldr	r3, .L136+24
 1932 0066 9B79     		ldrb	r3, [r3, #6]
 1933 0068 002B     		cmp	r3, #0
 1934 006a FBD1     		bne	.L113
 160:main.c        ****                     if(mode == 0) {
 1935              		.loc 1 160 0
 1936 006c 794B     		ldr	r3, .L136+28
 1937 006e 5979     		ldrb	r1, [r3, #5]
 1938 0070 0029     		cmp	r1, #0
 1939 0072 34D1     		bne	.L114
 161:main.c        ****                         if(uart_debug) {
 1940              		.loc 1 161 0
 1941 0074 784B     		ldr	r3, .L136+32
 1942 0076 9A7A     		ldrb	r2, [r3, #10]
 1943 0078 002A     		cmp	r2, #0
 1944 007a 1FD1     		bne	.L115
 162:main.c        ****                             sprintf(txData, "B1: %d, B2: %d done %x\r\n",Can_rx_pwm.b1, Can_rx_pwm.
 1945              		.loc 1 162 0
ARM GAS  C:\Users\austc\AppData\Local\Temp\ccREwTmP.s 			page 50


 1946 007c 1B78     		ldrb	r3, [r3]
 1947 007e 002B     		cmp	r3, #0
 1948 0080 0BD0     		beq	.L116
 163:main.c        ****                             UART_UartPutString(txData);
 1949              		.loc 1 163 0
 1950 0082 744B     		ldr	r3, .L136+28
 1951 0084 5A78     		ldrb	r2, [r3, #1]
 1952 0086 9B78     		ldrb	r3, [r3, #2]
 1953 0088 744D     		ldr	r5, .L136+36
 1954 008a 0091     		str	r1, [sp]
 1955 008c 7449     		ldr	r1, .L136+40
 1956 008e 2800     		movs	r0, r5
 1957 0090 FFF7FEFF 		bl	sprintf
 1958              	.LVL141:
 164:main.c        ****                         }
 1959              		.loc 1 164 0
 1960 0094 2800     		movs	r0, r5
 1961 0096 FFF7FEFF 		bl	UART_UartPutString
 1962              	.LVL142:
 1963              	.L116:
 166:main.c        ****                         if(Can_rx_pwm.b2 & 0b01) {
 1964              		.loc 1 166 0
 1965 009a 6E4B     		ldr	r3, .L136+28
 1966 009c 0122     		movs	r2, #1
 1967 009e 5A71     		strb	r2, [r3, #5]
 167:main.c        ****                             set_PWM((int)Can_rx_pwm.b1);
 1968              		.loc 1 167 0
 1969 00a0 9B78     		ldrb	r3, [r3, #2]
 1970 00a2 DB07     		lsls	r3, r3, #31
 1971 00a4 04D5     		bpl	.L117
 168:main.c        ****                         }
 1972              		.loc 1 168 0
 1973 00a6 6B4B     		ldr	r3, .L136+28
 1974 00a8 5878     		ldrb	r0, [r3, #1]
 1975 00aa FFF7FEFF 		bl	set_PWM
 1976              	.LVL143:
 1977 00ae 16E0     		b	.L114
 1978              	.L117:
 171:main.c        ****                         }
 1979              		.loc 1 171 0
 1980 00b0 684B     		ldr	r3, .L136+28
 1981 00b2 5878     		ldrb	r0, [r3, #1]
 1982 00b4 4042     		rsbs	r0, r0, #0
 1983 00b6 FFF7FEFF 		bl	set_PWM
 1984              	.LVL144:
 1985 00ba 10E0     		b	.L114
 1986              	.L115:
 174:main.c        ****                         command_failed.param = 0x02;
 1987              		.loc 1 174 0
 1988 00bc 5F4B     		ldr	r3, .L136+4
 1989 00be 0021     		movs	r1, #0
 1990 00c0 9970     		strb	r1, [r3, #2]
 175:main.c        ****                         if(uart_debug) {
 1991              		.loc 1 175 0
 1992 00c2 0231     		adds	r1, r1, #2
 1993 00c4 5970     		strb	r1, [r3, #1]
 176:main.c        ****                             sprintf(txData, "Mode is not set to 0, mode is %d\r\n",mode);
ARM GAS  C:\Users\austc\AppData\Local\Temp\ccREwTmP.s 			page 51


 1994              		.loc 1 176 0
 1995 00c6 644B     		ldr	r3, .L136+32
 1996 00c8 1B78     		ldrb	r3, [r3]
 1997 00ca 002B     		cmp	r3, #0
 1998 00cc 07D0     		beq	.L114
 177:main.c        ****                             UART_UartPutString(txData);
 1999              		.loc 1 177 0
 2000 00ce 634D     		ldr	r5, .L136+36
 2001 00d0 6449     		ldr	r1, .L136+44
 2002 00d2 2800     		movs	r0, r5
 2003 00d4 FFF7FEFF 		bl	sprintf
 2004              	.LVL145:
 178:main.c        ****                         }
 2005              		.loc 1 178 0
 2006 00d8 2800     		movs	r0, r5
 2007 00da FFF7FEFF 		bl	UART_UartPutString
 2008              	.LVL146:
 2009              	.L114:
 185:main.c        ****                         if(uart_debug) {
 2010              		.loc 1 185 0
 2011 00de 5E4B     		ldr	r3, .L136+32
 2012 00e0 9A7A     		ldrb	r2, [r3, #10]
 2013 00e2 012A     		cmp	r2, #1
 2014 00e4 21D1     		bne	.L118
 186:main.c        ****                             sprintf(txData, "B1: %d, B3: %d done %x\r\n",Can_rx_angle.b1, Can_rx_an
 2015              		.loc 1 186 0
 2016 00e6 1B78     		ldrb	r3, [r3]
 2017 00e8 002B     		cmp	r3, #0
 2018 00ea 0DD0     		beq	.L119
 187:main.c        ****                             UART_UartPutString(txData);
 2019              		.loc 1 187 0
 2020 00ec 5E4B     		ldr	r3, .L136+48
 2021 00ee 5A78     		ldrb	r2, [r3, #1]
 2022 00f0 DB78     		ldrb	r3, [r3, #3]
 2023 00f2 5849     		ldr	r1, .L136+28
 2024 00f4 4979     		ldrb	r1, [r1, #5]
 2025 00f6 594D     		ldr	r5, .L136+36
 2026 00f8 0091     		str	r1, [sp]
 2027 00fa 5C49     		ldr	r1, .L136+52
 2028 00fc 2800     		movs	r0, r5
 2029 00fe FFF7FEFF 		bl	sprintf
 2030              	.LVL147:
 188:main.c        ****                         }
 2031              		.loc 1 188 0
 2032 0102 2800     		movs	r0, r5
 2033 0104 FFF7FEFF 		bl	UART_UartPutString
 2034              	.LVL148:
 2035              	.L119:
 191:main.c        ****                         maxV = Can_rx_angle.b3;
 2036              		.loc 1 191 0
 2037 0108 514A     		ldr	r2, .L136+24
 2038 010a 0021     		movs	r1, #0
 2039 010c 5170     		strb	r1, [r2, #1]
 192:main.c        ****                         i = 0;
 2040              		.loc 1 192 0
 2041 010e 564B     		ldr	r3, .L136+48
 2042 0110 D878     		ldrb	r0, [r3, #3]
ARM GAS  C:\Users\austc\AppData\Local\Temp\ccREwTmP.s 			page 52


 2043 0112 1076     		strb	r0, [r2, #24]
 193:main.c        ****                         
 2044              		.loc 1 193 0
 2045 0114 1161     		str	r1, [r2, #16]
 197:main.c        ****                         set_Position(final_angle);
 2046              		.loc 1 197 0
 2047 0116 9878     		ldrb	r0, [r3, #2]
 2048 0118 0002     		lsls	r0, r0, #8
 2049 011a 5B78     		ldrb	r3, [r3, #1]
 2050 011c 1843     		orrs	r0, r3
 2051 011e 00B2     		sxth	r0, r0
 2052 0120 534B     		ldr	r3, .L136+56
 2053 0122 1880     		strh	r0, [r3]
 198:main.c        ****                     }
 2054              		.loc 1 198 0
 2055 0124 FFF7FEFF 		bl	set_Position
 2056              	.LVL149:
 2057 0128 14E0     		b	.L120
 2058              	.L118:
 200:main.c        ****                         command_failed.done = 0;
 2059              		.loc 1 200 0
 2060 012a 4A4B     		ldr	r3, .L136+28
 2061 012c 5B79     		ldrb	r3, [r3, #5]
 2062 012e 002B     		cmp	r3, #0
 2063 0130 10D1     		bne	.L120
 201:main.c        ****                         command_failed.param = 0x04;
 2064              		.loc 1 201 0
 2065 0132 424B     		ldr	r3, .L136+4
 2066 0134 0021     		movs	r1, #0
 2067 0136 9970     		strb	r1, [r3, #2]
 202:main.c        ****                         if(uart_debug) {
 2068              		.loc 1 202 0
 2069 0138 0431     		adds	r1, r1, #4
 2070 013a 5970     		strb	r1, [r3, #1]
 203:main.c        ****                             sprintf(txData, "Mode is not set to 1, mode is %d\r\n", mode);
 2071              		.loc 1 203 0
 2072 013c 464B     		ldr	r3, .L136+32
 2073 013e 1B78     		ldrb	r3, [r3]
 2074 0140 002B     		cmp	r3, #0
 2075 0142 07D0     		beq	.L120
 204:main.c        ****                             UART_UartPutString(txData);
 2076              		.loc 1 204 0
 2077 0144 454D     		ldr	r5, .L136+36
 2078 0146 4B49     		ldr	r1, .L136+60
 2079 0148 2800     		movs	r0, r5
 2080 014a FFF7FEFF 		bl	sprintf
 2081              	.LVL150:
 205:main.c        ****                         }
 2082              		.loc 1 205 0
 2083 014e 2800     		movs	r0, r5
 2084 0150 FFF7FEFF 		bl	UART_UartPutString
 2085              	.LVL151:
 2086              	.L120:
 210:main.c        ****                     Can_rx_angle.done = 1;
 2087              		.loc 1 210 0
 2088 0154 404B     		ldr	r3, .L136+32
 2089 0156 9B7A     		ldrb	r3, [r3, #10]
ARM GAS  C:\Users\austc\AppData\Local\Temp\ccREwTmP.s 			page 53


 2090 0158 012B     		cmp	r3, #1
 2091 015a 04D9     		bls	.L121
 211:main.c        ****                     Can_rx_pwm.done = 1;
 2092              		.loc 1 211 0
 2093 015c 0123     		movs	r3, #1
 2094 015e 424A     		ldr	r2, .L136+48
 2095 0160 5371     		strb	r3, [r2, #5]
 212:main.c        ****                 }
 2096              		.loc 1 212 0
 2097 0162 3C4A     		ldr	r2, .L136+28
 2098 0164 5371     		strb	r3, [r2, #5]
 2099              	.L121:
 217:main.c        ****             
 2100              		.loc 1 217 0
 2101 0166 344B     		ldr	r3, .L136
 2102 0168 9978     		ldrb	r1, [r3, #2]
 2103 016a 354B     		ldr	r3, .L136+8
 2104 016c 9D78     		ldrb	r5, [r3, #2]
 2105 016e 4B42     		rsbs	r3, r1, #0
 2106 0170 4B41     		adcs	r3, r3, r1
 2107 0172 6A42     		rsbs	r2, r5, #0
 2108 0174 6A41     		adcs	r2, r2, r5
 2109 0176 1343     		orrs	r3, r2
 2110 0178 304A     		ldr	r2, .L136+4
 2111 017a 9078     		ldrb	r0, [r2, #2]
 2112 017c 4242     		rsbs	r2, r0, #0
 2113 017e 4241     		adcs	r2, r2, r0
 2114 0180 D2B2     		uxtb	r2, r2
 2115              	.LVL152:
 220:main.c        ****                 if(!stall.done) {
 2116              		.loc 1 220 0
 2117 0182 002B     		cmp	r3, #0
 2118 0184 01D1     		bne	.L135
 2119 0186 002A     		cmp	r2, #0
 2120 0188 1ED0     		beq	.L122
 2121              	.L135:
 221:main.c        ****                     CAN_Send_Error(stall.code, stall.param);
 2122              		.loc 1 221 0
 2123 018a 0029     		cmp	r1, #0
 2124 018c 06D1     		bne	.L124
 222:main.c        ****                     stall.done = 1;
 2125              		.loc 1 222 0
 2126 018e 2A4D     		ldr	r5, .L136
 2127 0190 6978     		ldrb	r1, [r5, #1]
 2128 0192 2878     		ldrb	r0, [r5]
 2129 0194 FFF7FEFF 		bl	CAN_Send_Error
 2130              	.LVL153:
 223:main.c        ****                 }
 2131              		.loc 1 223 0
 2132 0198 0123     		movs	r3, #1
 2133 019a AB70     		strb	r3, [r5, #2]
 2134              	.L124:
 225:main.c        ****                     CAN_Send_Error(invalid_arg.code, invalid_arg.param);
 2135              		.loc 1 225 0
 2136 019c 284B     		ldr	r3, .L136+8
 2137 019e 9B78     		ldrb	r3, [r3, #2]
 2138 01a0 002B     		cmp	r3, #0
ARM GAS  C:\Users\austc\AppData\Local\Temp\ccREwTmP.s 			page 54


 2139 01a2 06D1     		bne	.L125
 226:main.c        ****                     invalid_arg.done = 1;
 2140              		.loc 1 226 0
 2141 01a4 264D     		ldr	r5, .L136+8
 2142 01a6 6978     		ldrb	r1, [r5, #1]
 2143 01a8 2878     		ldrb	r0, [r5]
 2144 01aa FFF7FEFF 		bl	CAN_Send_Error
 2145              	.LVL154:
 227:main.c        ****                 }
 2146              		.loc 1 227 0
 2147 01ae 0123     		movs	r3, #1
 2148 01b0 AB70     		strb	r3, [r5, #2]
 2149              	.L125:
 229:main.c        ****                     CAN_Send_Error(command_failed.code, command_failed.param);
 2150              		.loc 1 229 0
 2151 01b2 224B     		ldr	r3, .L136+4
 2152 01b4 9B78     		ldrb	r3, [r3, #2]
 2153 01b6 002B     		cmp	r3, #0
 2154 01b8 06D1     		bne	.L122
 230:main.c        ****                     command_failed.done = 1;
 2155              		.loc 1 230 0
 2156 01ba 204D     		ldr	r5, .L136+4
 2157 01bc 6978     		ldrb	r1, [r5, #1]
 2158 01be 2878     		ldrb	r0, [r5]
 2159 01c0 FFF7FEFF 		bl	CAN_Send_Error
 2160              	.LVL155:
 231:main.c        ****                 }
 2161              		.loc 1 231 0
 2162 01c4 0123     		movs	r3, #1
 2163 01c6 AB70     		strb	r3, [r5, #2]
 2164              	.L122:
 236:main.c        ****                 if(uart_debug) {
 2165              		.loc 1 236 0
 2166 01c8 234B     		ldr	r3, .L136+32
 2167 01ca DB7B     		ldrb	r3, [r3, #15]
 2168 01cc 002B     		cmp	r3, #0
 2169 01ce 0DD0     		beq	.L126
 237:main.c        ****                     sprintf(txData,"\nSending Data... \r\n");
 2170              		.loc 1 237 0
 2171 01d0 214B     		ldr	r3, .L136+32
 2172 01d2 1B78     		ldrb	r3, [r3]
 2173 01d4 002B     		cmp	r3, #0
 2174 01d6 04D0     		beq	.L127
 238:main.c        ****                    // UART_UartPutString(txData);
 2175              		.loc 1 238 0
 2176 01d8 1422     		movs	r2, #20
 2177 01da 2749     		ldr	r1, .L136+64
 2178 01dc 1F48     		ldr	r0, .L136+36
 2179 01de FFF7FEFF 		bl	memcpy
 2180              	.LVL156:
 2181              	.L127:
 241:main.c        ****                 send_data = 0;
 2182              		.loc 1 241 0
 2183 01e2 FFF7FEFF 		bl	CAN_Send_Encoder
 2184              	.LVL157:
 242:main.c        ****             }
 2185              		.loc 1 242 0
ARM GAS  C:\Users\austc\AppData\Local\Temp\ccREwTmP.s 			page 55


 2186 01e6 0022     		movs	r2, #0
 2187 01e8 1B4B     		ldr	r3, .L136+32
 2188 01ea DA73     		strb	r2, [r3, #15]
 2189              	.L126:
 246:main.c        ****                 CAN_Send_Model();
 2190              		.loc 1 246 0
 2191 01ec 184B     		ldr	r3, .L136+24
 2192 01ee 9B78     		ldrb	r3, [r3, #2]
 2193 01f0 002B     		cmp	r3, #0
 2194 01f2 04D0     		beq	.L128
 247:main.c        ****                 model_req = 0;
 2195              		.loc 1 247 0
 2196 01f4 FFF7FEFF 		bl	CAN_Send_Model
 2197              	.LVL158:
 248:main.c        ****             }
 2198              		.loc 1 248 0
 2199 01f8 0022     		movs	r2, #0
 2200 01fa 154B     		ldr	r3, .L136+24
 2201 01fc 9A70     		strb	r2, [r3, #2]
 2202              	.L128:
 251:main.c        ****             if(up){
 2203              		.loc 1 251 0
 2204 01fe 6420     		movs	r0, #100
 2205 0200 FFF7FEFF 		bl	CyDelay
 2206              	.LVL159:
 252:main.c        ****                 pwm_compare += 10;
 2207              		.loc 1 252 0
 2208 0204 002C     		cmp	r4, #0
 2209 0206 04D0     		beq	.L129
 253:main.c        ****             } else {
 2210              		.loc 1 253 0
 2211 0208 104A     		ldr	r2, .L136+20
 2212 020a 1368     		ldr	r3, [r2]
 2213 020c 0A33     		adds	r3, r3, #10
 2214 020e 1360     		str	r3, [r2]
 2215 0210 03E0     		b	.L130
 2216              	.L129:
 255:main.c        ****             }
 2217              		.loc 1 255 0
 2218 0212 0E4A     		ldr	r2, .L136+20
 2219 0214 1368     		ldr	r3, [r2]
 2220 0216 0A3B     		subs	r3, r3, #10
 2221 0218 1360     		str	r3, [r2]
 2222              	.L130:
 257:main.c        ****                 up = 0;   
 2223              		.loc 1 257 0
 2224 021a 0C4B     		ldr	r3, .L136+20
 2225 021c 1868     		ldr	r0, [r3]
 2226 021e FF28     		cmp	r0, #255
 2227 0220 03DC     		bgt	.L133
 259:main.c        ****                 up = 1;
 2228              		.loc 1 259 0
 2229 0222 0300     		movs	r3, r0
 2230 0224 FF33     		adds	r3, r3, #255
 2231 0226 02DB     		blt	.L134
 2232 0228 02E0     		b	.L131
 2233              	.L133:
ARM GAS  C:\Users\austc\AppData\Local\Temp\ccREwTmP.s 			page 56


 258:main.c        ****             } else if (pwm_compare < -255) {
 2234              		.loc 1 258 0
 2235 022a 0024     		movs	r4, #0
 2236              	.LVL160:
 2237 022c 00E0     		b	.L131
 2238              	.LVL161:
 2239              	.L134:
 260:main.c        ****             }
 2240              		.loc 1 260 0
 2241 022e 0124     		movs	r4, #1
 2242              	.LVL162:
 2243              	.L131:
 262:main.c        ****             
 2244              		.loc 1 262 0
 2245 0230 FFF7FEFF 		bl	set_PWM
 2246              	.LVL163:
 2247 0234 16E7     		b	.L113
 2248              	.L137:
 2249 0236 C046     		.align	2
 2250              	.L136:
 2251 0238 00000000 		.word	stall
 2252 023c 00000000 		.word	command_failed
 2253 0240 00000000 		.word	invalid_arg
 2254 0244 00000000 		.word	message
 2255 0248 00000000 		.word	data
 2256 024c 00000000 		.word	pwm_compare
 2257 0250 00000000 		.word	.LANCHOR1
 2258 0254 00000000 		.word	Can_rx_pwm
 2259 0258 00000000 		.word	.LANCHOR0
 2260 025c 00000000 		.word	txData
 2261 0260 04020000 		.word	.LC108
 2262 0264 20020000 		.word	.LC111
 2263 0268 00000000 		.word	Can_rx_angle
 2264 026c 44020000 		.word	.LC114
 2265 0270 00000000 		.word	final_angle
 2266 0274 60020000 		.word	.LC117
 2267 0278 84020000 		.word	.LC119
 2268              		.cfi_endproc
 2269              	.LFE37:
 2270              		.size	main, .-main
 2271              		.global	drive
 2272              		.comm	message,16,4
 2273              		.comm	data,8,4
 2274              		.comm	txData,100,4
 2275              		.global	emergency
 2276              		.global	mailbox
 2277              		.comm	invalid_arg,3,4
 2278              		.comm	command_failed,3,4
 2279              		.comm	stall,3,4
 2280              		.comm	Can_rx_angle,6,4
 2281              		.comm	Can_rx_pwm,6,4
 2282              		.global	disable_limit
 2283              		.global	model_req
 2284              		.global	send_data
 2285              		.global	mode
 2286              		.global	maxV
 2287              		.global	complete
ARM GAS  C:\Users\austc\AppData\Local\Temp\ccREwTmP.s 			page 57


 2288              		.comm	ratio,8,8
 2289              		.comm	kd,4,4
 2290              		.comm	ki,4,4
 2291              		.comm	kp,4,4
 2292              		.global	lastp
 2293              		.global	i
 2294              		.comm	final_angle,2,2
 2295              		.global	flipEncoder
 2296              		.global	invalidate
 2297              		.comm	pwm_compare,4,4
 2298              		.comm	GEAR_RATIO,4,4
 2299              		.global	uart_debug
 2300              		.comm	CAN_TIMEOUT,4,4
 2301              		.global	CAN_RX_MAILBOX_0
 2302              		.global	CAN_RX_MAILBOX_1
 2303              		.global	CAN_RX_MAILBOX_0_SHIFT
 2304              		.global	CAN_RX_MAILBOX_1_SHIFT
 2305              		.global	message_id
 2306              		.global	time_LED
 2307              		.data
 2308              		.align	2
 2309              		.set	.LANCHOR0,. + 0
 2310              		.type	uart_debug, %object
 2311              		.size	uart_debug, 1
 2312              	uart_debug:
 2313 0000 01       		.byte	1
 2314 0001 000000   		.space	3
 2315              		.type	CAN_RX_MAILBOX_0_SHIFT, %object
 2316              		.size	CAN_RX_MAILBOX_0_SHIFT, 4
 2317              	CAN_RX_MAILBOX_0_SHIFT:
 2318 0004 80000000 		.word	128
 2319              		.type	CAN_RX_MAILBOX_0, %object
 2320              		.size	CAN_RX_MAILBOX_0, 2
 2321              	CAN_RX_MAILBOX_0:
 2322 0008 0700     		.short	7
 2323              		.type	mode, %object
 2324              		.size	mode, 1
 2325              	mode:
 2326 000a 02       		.byte	2
 2327 000b 00       		.space	1
 2328              		.type	CAN_RX_MAILBOX_1_SHIFT, %object
 2329              		.size	CAN_RX_MAILBOX_1_SHIFT, 2
 2330              	CAN_RX_MAILBOX_1_SHIFT:
 2331 000c 0100     		.short	1
 2332              		.type	flipEncoder, %object
 2333              		.size	flipEncoder, 1
 2334              	flipEncoder:
 2335 000e 01       		.byte	1
 2336              		.type	send_data, %object
 2337              		.size	send_data, 1
 2338              	send_data:
 2339 000f 01       		.byte	1
 2340              		.section	.rodata.str1.4,"aMS",%progbits,1
 2341              		.align	2
 2342              	.LC1:
 2343 0000 0A204361 		.ascii	"\012 Can rx triggered\012\000"
 2343      6E207278 
ARM GAS  C:\Users\austc\AppData\Local\Temp\ccREwTmP.s 			page 58


 2343      20747269 
 2343      67676572 
 2343      65640A00 
 2344              	.LC3:
 2345 0014 50302072 		.ascii	"P0 recieved\012\000"
 2345      65636965 
 2345      7665640A 
 2345      00
 2346 0021 000000   		.space	3
 2347              	.LC9:
 2348 0024 50312072 		.ascii	"P1 recieved\012\012\000"
 2348      65636965 
 2348      7665640A 
 2348      0A00
 2349 0032 0000     		.space	2
 2350              	.LC16:
 2351 0034 43414E5F 		.ascii	"CAN_Start():  %u\015\012\000"
 2351      53746172 
 2351      7428293A 
 2351      20202575 
 2351      0D0A00
 2352 0047 00       		.space	1
 2353              	.LC28:
 2354 0048 43414E20 		.ascii	"CAN dip setting:  %x Message ID: %ld\015\012\000"
 2354      64697020 
 2354      73657474 
 2354      696E673A 
 2354      20202578 
 2355 006f 00       		.space	1
 2356              	.LC31:
 2357 0070 43616E20 		.ascii	"Can shift: %d   P0Mailbox: %d P1Mailbox %d\015\012\000"
 2357      73686966 
 2357      743A2025 
 2357      64202020 
 2357      50304D61 
 2358 009d 000000   		.space	3
 2359              	.LC35:
 2360 00a0 50574D3A 		.ascii	"PWM:%d\015\012\000"
 2360      25640D0A 
 2360      00
 2361 00a9 000000   		.space	3
 2362              	.LC40:
 2363 00ac 50657269 		.ascii	"Period interupt triggerd %x\015\012\000"
 2363      6F642069 
 2363      6E746572 
 2363      75707420 
 2363      74726967 
 2364 00ca 0000     		.space	2
 2365              	.LC47:
 2366 00cc 4C696D69 		.ascii	"Limit interupt triggerd\015\012\000"
 2366      7420696E 
 2366      74657275 
 2366      70742074 
 2366      72696767 
 2367 00e6 0000     		.space	2
 2368              	.LC53:
 2369 00e8 43414E5F 		.ascii	"CAN_Send_Encoder: byte[0u] %x byte[1u] %x byte[2u] "
ARM GAS  C:\Users\austc\AppData\Local\Temp\ccREwTmP.s 			page 59


 2369      53656E64 
 2369      5F456E63 
 2369      6F646572 
 2369      3A206279 
 2370 011b 25780A20 		.ascii	"%x\012 QuadDec Count %d\015\012\000"
 2370      51756164 
 2370      44656320 
 2370      436F756E 
 2370      74202564 
 2371 0132 0000     		.space	2
 2372              	.LC59:
 2373 0134 54656C65 		.ascii	"Telemerty: byte[0u] %x byte[1u] %x\015\012\000"
 2373      6D657274 
 2373      793A2062 
 2373      7974655B 
 2373      30755D20 
 2374 0159 000000   		.space	3
 2375              	.LC65:
 2376 015c 4D6F6465 		.ascii	"Model: byte[0u] %x byte[1u] %x\015\012\000"
 2376      6C3A2062 
 2376      7974655B 
 2376      30755D20 
 2376      25782062 
 2377 017d 000000   		.space	3
 2378              	.LC71:
 2379 0180 4572726F 		.ascii	"Error: byte[0u] %x byte[1u] %x byte[2u] %x\015\012\000"
 2379      723A2062 
 2379      7974655B 
 2379      30755D20 
 2379      25782062 
 2380 01ad 000000   		.space	3
 2381              	.LC81:
 2382 01b0 64656772 		.ascii	"degree: %d ticks: %d\015\012\000"
 2382      65653A20 
 2382      25642074 
 2382      69636B73 
 2382      3A202564 
 2383 01c7 00       		.space	1
 2384              	.LC86:
 2385 01c8 703A2025 		.ascii	"p: %d, i: %d d %d current %d\015\012\000"
 2385      642C2069 
 2385      3A202564 
 2385      20642025 
 2385      64206375 
 2386 01e7 00       		.space	1
 2387              	.LC94:
 2388 01e8 636F6D70 		.ascii	"complete: %d\015\012\000"
 2388      6C657465 
 2388      3A202564 
 2388      0D0A00
 2389 01f7 00       		.space	1
 2390              	.LC97:
 2391 01f8 50574D3A 		.ascii	"PWM: %d\015\012\000"
 2391      2025640D 
 2391      0A00
 2392 0202 0000     		.space	2
 2393              	.LC108:
ARM GAS  C:\Users\austc\AppData\Local\Temp\ccREwTmP.s 			page 60


 2394 0204 42313A20 		.ascii	"B1: %d, B2: %d done %x\015\012\000"
 2394      25642C20 
 2394      42323A20 
 2394      25642064 
 2394      6F6E6520 
 2395 021d 000000   		.space	3
 2396              	.LC111:
 2397 0220 4D6F6465 		.ascii	"Mode is not set to 0, mode is %d\015\012\000"
 2397      20697320 
 2397      6E6F7420 
 2397      73657420 
 2397      746F2030 
 2398 0243 00       		.space	1
 2399              	.LC114:
 2400 0244 42313A20 		.ascii	"B1: %d, B3: %d done %x\015\012\000"
 2400      25642C20 
 2400      42333A20 
 2400      25642064 
 2400      6F6E6520 
 2401 025d 000000   		.space	3
 2402              	.LC117:
 2403 0260 4D6F6465 		.ascii	"Mode is not set to 1, mode is %d\015\012\000"
 2403      20697320 
 2403      6E6F7420 
 2403      73657420 
 2403      746F2031 
 2404 0283 00       		.space	1
 2405              	.LC119:
 2406 0284 0A53656E 		.ascii	"\012Sending Data... \015\012\000"
 2406      64696E67 
 2406      20446174 
 2406      612E2E2E 
 2406      200D0A00 
 2407              		.bss
 2408              		.align	2
 2409              		.set	.LANCHOR1,. + 0
 2410              		.type	time_LED, %object
 2411              		.size	time_LED, 1
 2412              	time_LED:
 2413 0000 00       		.space	1
 2414              		.type	complete, %object
 2415              		.size	complete, 1
 2416              	complete:
 2417 0001 00       		.space	1
 2418              		.type	model_req, %object
 2419              		.size	model_req, 1
 2420              	model_req:
 2421 0002 00       		.space	1
 2422 0003 00       		.space	1
 2423              		.type	CAN_RX_MAILBOX_1, %object
 2424              		.size	CAN_RX_MAILBOX_1, 2
 2425              	CAN_RX_MAILBOX_1:
 2426 0004 0000     		.space	2
 2427              		.type	emergency, %object
 2428              		.size	emergency, 1
 2429              	emergency:
 2430 0006 00       		.space	1
ARM GAS  C:\Users\austc\AppData\Local\Temp\ccREwTmP.s 			page 61


 2431 0007 00       		.space	1
 2432              		.type	message_id, %object
 2433              		.size	message_id, 4
 2434              	message_id:
 2435 0008 00000000 		.space	4
 2436              		.type	disable_limit, %object
 2437              		.size	disable_limit, 1
 2438              	disable_limit:
 2439 000c 00       		.space	1
 2440              		.type	invalidate, %object
 2441              		.size	invalidate, 1
 2442              	invalidate:
 2443 000d 00       		.space	1
 2444 000e 0000     		.space	2
 2445              		.type	i, %object
 2446              		.size	i, 4
 2447              	i:
 2448 0010 00000000 		.space	4
 2449              		.type	lastp, %object
 2450              		.size	lastp, 4
 2451              	lastp:
 2452 0014 00000000 		.space	4
 2453              		.type	maxV, %object
 2454              		.size	maxV, 1
 2455              	maxV:
 2456 0018 00       		.space	1
 2457              		.type	drive, %object
 2458              		.size	drive, 1
 2459              	drive:
 2460 0019 00       		.space	1
 2461 001a 0000     		.space	2
 2462              		.type	mailbox, %object
 2463              		.size	mailbox, 4
 2464              	mailbox:
 2465 001c 00000000 		.space	4
 2466              		.text
 2467              	.Letext0:
 2468              		.file 2 "c:\\program files (x86)\\cypress\\psoc creator\\4.2\\psoc creator\\import\\gnu\\arm\\5.4.
 2469              		.file 3 "c:\\program files (x86)\\cypress\\psoc creator\\4.2\\psoc creator\\import\\gnu\\arm\\5.4.
 2470              		.file 4 "Generated_Source\\PSoC4/cytypes.h"
 2471              		.file 5 "./cyapicallbacks.h"
 2472              		.file 6 "Generated_Source\\PSoC4/CAN.h"
 2473              		.file 7 "Generated_Source\\PSoC4/UART_SPI_UART.h"
 2474              		.file 8 "Generated_Source\\PSoC4/Test_LED.h"
 2475              		.file 9 "Generated_Source\\PSoC4/PWM_Motor.h"
 2476              		.file 10 "Generated_Source\\PSoC4/Status_Reg_Switches.h"
 2477              		.file 11 "Generated_Source\\PSoC4/Timer_1.h"
 2478              		.file 12 "Generated_Source\\PSoC4/QuadDec.h"
 2479              		.file 13 "Generated_Source\\PSoC4/CyLib.h"
 2480              		.file 14 "Generated_Source\\PSoC4/isr_Limit_1.h"
 2481              		.file 15 "Generated_Source\\PSoC4/isr_period.h"
 2482              		.file 16 "Generated_Source\\PSoC4/UART.h"
 2483              		.file 17 "c:\\program files (x86)\\cypress\\psoc creator\\4.2\\psoc creator\\import\\gnu\\arm\\5.4
 2484              		.file 18 "Generated_Source\\PSoC4/Can_addr.h"
 2485              		.file 19 "Generated_Source\\PSoC4/Pin_Direction.h"
 2486              		.file 20 "Generated_Source\\PSoC4/Error.h"
 2487              		.section	.debug_info,"",%progbits
ARM GAS  C:\Users\austc\AppData\Local\Temp\ccREwTmP.s 			page 62


 2488              	.Ldebug_info0:
 2489 0000 D6100000 		.4byte	0x10d6
 2490 0004 0400     		.2byte	0x4
 2491 0006 00000000 		.4byte	.Ldebug_abbrev0
 2492 000a 04       		.byte	0x4
 2493 000b 01       		.uleb128 0x1
 2494 000c 9D010000 		.4byte	.LASF125
 2495 0010 0C       		.byte	0xc
 2496 0011 64000000 		.4byte	.LASF126
 2497 0015 08000000 		.4byte	.LASF127
 2498 0019 00000000 		.4byte	.Ldebug_ranges0+0
 2499 001d 00000000 		.4byte	0
 2500 0021 00000000 		.4byte	.Ldebug_line0
 2501 0025 02       		.uleb128 0x2
 2502 0026 01       		.byte	0x1
 2503 0027 06       		.byte	0x6
 2504 0028 4F060000 		.4byte	.LASF0
 2505 002c 02       		.uleb128 0x2
 2506 002d 01       		.byte	0x1
 2507 002e 08       		.byte	0x8
 2508 002f 09060000 		.4byte	.LASF1
 2509 0033 02       		.uleb128 0x2
 2510 0034 02       		.byte	0x2
 2511 0035 05       		.byte	0x5
 2512 0036 FF040000 		.4byte	.LASF2
 2513 003a 03       		.uleb128 0x3
 2514 003b 81010000 		.4byte	.LASF9
 2515 003f 02       		.byte	0x2
 2516 0040 2B       		.byte	0x2b
 2517 0041 45000000 		.4byte	0x45
 2518 0045 02       		.uleb128 0x2
 2519 0046 02       		.byte	0x2
 2520 0047 07       		.byte	0x7
 2521 0048 5B060000 		.4byte	.LASF3
 2522 004c 02       		.uleb128 0x2
 2523 004d 04       		.byte	0x4
 2524 004e 05       		.byte	0x5
 2525 004f 1E050000 		.4byte	.LASF4
 2526 0053 02       		.uleb128 0x2
 2527 0054 04       		.byte	0x4
 2528 0055 07       		.byte	0x7
 2529 0056 C6050000 		.4byte	.LASF5
 2530 005a 02       		.uleb128 0x2
 2531 005b 08       		.byte	0x8
 2532 005c 05       		.byte	0x5
 2533 005d C1030000 		.4byte	.LASF6
 2534 0061 02       		.uleb128 0x2
 2535 0062 08       		.byte	0x8
 2536 0063 07       		.byte	0x7
 2537 0064 3C010000 		.4byte	.LASF7
 2538 0068 04       		.uleb128 0x4
 2539 0069 04       		.byte	0x4
 2540 006a 05       		.byte	0x5
 2541 006b 696E7400 		.ascii	"int\000"
 2542 006f 02       		.uleb128 0x2
 2543 0070 04       		.byte	0x4
 2544 0071 07       		.byte	0x7
ARM GAS  C:\Users\austc\AppData\Local\Temp\ccREwTmP.s 			page 63


 2545 0072 C3000000 		.4byte	.LASF8
 2546 0076 03       		.uleb128 0x3
 2547 0077 84040000 		.4byte	.LASF10
 2548 007b 03       		.byte	0x3
 2549 007c 24       		.byte	0x24
 2550 007d 3A000000 		.4byte	0x3a
 2551 0081 05       		.uleb128 0x5
 2552 0082 82060000 		.4byte	.LASF11
 2553 0086 04       		.byte	0x4
 2554 0087 E401     		.2byte	0x1e4
 2555 0089 2C000000 		.4byte	0x2c
 2556 008d 05       		.uleb128 0x5
 2557 008e 4F030000 		.4byte	.LASF12
 2558 0092 04       		.byte	0x4
 2559 0093 E501     		.2byte	0x1e5
 2560 0095 45000000 		.4byte	0x45
 2561 0099 05       		.uleb128 0x5
 2562 009a 38040000 		.4byte	.LASF13
 2563 009e 04       		.byte	0x4
 2564 009f E601     		.2byte	0x1e6
 2565 00a1 53000000 		.4byte	0x53
 2566 00a5 05       		.uleb128 0x5
 2567 00a6 5B030000 		.4byte	.LASF14
 2568 00aa 04       		.byte	0x4
 2569 00ab E701     		.2byte	0x1e7
 2570 00ad 25000000 		.4byte	0x25
 2571 00b1 05       		.uleb128 0x5
 2572 00b2 E4000000 		.4byte	.LASF15
 2573 00b6 04       		.byte	0x4
 2574 00b7 E801     		.2byte	0x1e8
 2575 00b9 33000000 		.4byte	0x33
 2576 00bd 02       		.uleb128 0x2
 2577 00be 04       		.byte	0x4
 2578 00bf 04       		.byte	0x4
 2579 00c0 30010000 		.4byte	.LASF16
 2580 00c4 02       		.uleb128 0x2
 2581 00c5 08       		.byte	0x8
 2582 00c6 04       		.byte	0x4
 2583 00c7 88060000 		.4byte	.LASF17
 2584 00cb 05       		.uleb128 0x5
 2585 00cc 84030000 		.4byte	.LASF18
 2586 00d0 04       		.byte	0x4
 2587 00d1 F501     		.2byte	0x1f5
 2588 00d3 D7000000 		.4byte	0xd7
 2589 00d7 02       		.uleb128 0x2
 2590 00d8 01       		.byte	0x1
 2591 00d9 08       		.byte	0x8
 2592 00da 10030000 		.4byte	.LASF19
 2593 00de 05       		.uleb128 0x5
 2594 00df EA000000 		.4byte	.LASF20
 2595 00e3 04       		.byte	0x4
 2596 00e4 8E02     		.2byte	0x28e
 2597 00e6 EA000000 		.4byte	0xea
 2598 00ea 06       		.uleb128 0x6
 2599 00eb 81000000 		.4byte	0x81
 2600 00ef 05       		.uleb128 0x5
 2601 00f0 8D040000 		.4byte	.LASF21
ARM GAS  C:\Users\austc\AppData\Local\Temp\ccREwTmP.s 			page 64


 2602 00f4 04       		.byte	0x4
 2603 00f5 9002     		.2byte	0x290
 2604 00f7 FB000000 		.4byte	0xfb
 2605 00fb 06       		.uleb128 0x6
 2606 00fc 99000000 		.4byte	0x99
 2607 0100 02       		.uleb128 0x2
 2608 0101 08       		.byte	0x8
 2609 0102 04       		.byte	0x4
 2610 0103 68040000 		.4byte	.LASF22
 2611 0107 02       		.uleb128 0x2
 2612 0108 04       		.byte	0x4
 2613 0109 07       		.byte	0x7
 2614 010a BD050000 		.4byte	.LASF23
 2615 010e 07       		.uleb128 0x7
 2616 010f 6C010000 		.4byte	.LASF25
 2617 0113 06       		.byte	0x6
 2618 0114 05       		.byte	0x5
 2619 0115 14       		.byte	0x14
 2620 0116 5E010000 		.4byte	0x15e
 2621 011a 08       		.uleb128 0x8
 2622 011b 623000   		.ascii	"b0\000"
 2623 011e 05       		.byte	0x5
 2624 011f 16       		.byte	0x16
 2625 0120 81000000 		.4byte	0x81
 2626 0124 00       		.byte	0
 2627 0125 08       		.uleb128 0x8
 2628 0126 623100   		.ascii	"b1\000"
 2629 0129 05       		.byte	0x5
 2630 012a 16       		.byte	0x16
 2631 012b 81000000 		.4byte	0x81
 2632 012f 01       		.byte	0x1
 2633 0130 08       		.uleb128 0x8
 2634 0131 623200   		.ascii	"b2\000"
 2635 0134 05       		.byte	0x5
 2636 0135 16       		.byte	0x16
 2637 0136 81000000 		.4byte	0x81
 2638 013a 02       		.byte	0x2
 2639 013b 08       		.uleb128 0x8
 2640 013c 623300   		.ascii	"b3\000"
 2641 013f 05       		.byte	0x5
 2642 0140 16       		.byte	0x16
 2643 0141 81000000 		.4byte	0x81
 2644 0145 03       		.byte	0x3
 2645 0146 08       		.uleb128 0x8
 2646 0147 623400   		.ascii	"b4\000"
 2647 014a 05       		.byte	0x5
 2648 014b 16       		.byte	0x16
 2649 014c 81000000 		.4byte	0x81
 2650 0150 04       		.byte	0x4
 2651 0151 09       		.uleb128 0x9
 2652 0152 49040000 		.4byte	.LASF24
 2653 0156 05       		.byte	0x5
 2654 0157 16       		.byte	0x16
 2655 0158 81000000 		.4byte	0x81
 2656 015c 05       		.byte	0x5
 2657 015d 00       		.byte	0
 2658 015e 07       		.uleb128 0x7
ARM GAS  C:\Users\austc\AppData\Local\Temp\ccREwTmP.s 			page 65


 2659 015f 97010000 		.4byte	.LASF26
 2660 0163 03       		.byte	0x3
 2661 0164 05       		.byte	0x5
 2662 0165 18       		.byte	0x18
 2663 0166 8F010000 		.4byte	0x18f
 2664 016a 09       		.uleb128 0x9
 2665 016b 97020000 		.4byte	.LASF27
 2666 016f 05       		.byte	0x5
 2667 0170 1A       		.byte	0x1a
 2668 0171 81000000 		.4byte	0x81
 2669 0175 00       		.byte	0
 2670 0176 09       		.uleb128 0x9
 2671 0177 0F040000 		.4byte	.LASF28
 2672 017b 05       		.byte	0x5
 2673 017c 1A       		.byte	0x1a
 2674 017d 81000000 		.4byte	0x81
 2675 0181 01       		.byte	0x1
 2676 0182 09       		.uleb128 0x9
 2677 0183 49040000 		.4byte	.LASF24
 2678 0187 05       		.byte	0x5
 2679 0188 1A       		.byte	0x1a
 2680 0189 81000000 		.4byte	0x81
 2681 018d 02       		.byte	0x2
 2682 018e 00       		.byte	0
 2683 018f 0A       		.uleb128 0xa
 2684 0190 08       		.byte	0x8
 2685 0191 06       		.byte	0x6
 2686 0192 6F       		.byte	0x6f
 2687 0193 A4010000 		.4byte	0x1a4
 2688 0197 09       		.uleb128 0x9
 2689 0198 FF050000 		.4byte	.LASF29
 2690 019c 06       		.byte	0x6
 2691 019d 71       		.byte	0x71
 2692 019e A4010000 		.4byte	0x1a4
 2693 01a2 00       		.byte	0
 2694 01a3 00       		.byte	0
 2695 01a4 0B       		.uleb128 0xb
 2696 01a5 81000000 		.4byte	0x81
 2697 01a9 B4010000 		.4byte	0x1b4
 2698 01ad 0C       		.uleb128 0xc
 2699 01ae 07010000 		.4byte	0x107
 2700 01b2 07       		.byte	0x7
 2701 01b3 00       		.byte	0
 2702 01b4 03       		.uleb128 0x3
 2703 01b5 15030000 		.4byte	.LASF30
 2704 01b9 06       		.byte	0x6
 2705 01ba 72       		.byte	0x72
 2706 01bb 8F010000 		.4byte	0x18f
 2707 01bf 0A       		.uleb128 0xa
 2708 01c0 08       		.byte	0x8
 2709 01c1 06       		.byte	0x6
 2710 01c2 75       		.byte	0x75
 2711 01c3 D4010000 		.4byte	0x1d4
 2712 01c7 09       		.uleb128 0x9
 2713 01c8 FF050000 		.4byte	.LASF29
 2714 01cc 06       		.byte	0x6
 2715 01cd 77       		.byte	0x77
ARM GAS  C:\Users\austc\AppData\Local\Temp\ccREwTmP.s 			page 66


 2716 01ce E4010000 		.4byte	0x1e4
 2717 01d2 00       		.byte	0
 2718 01d3 00       		.byte	0
 2719 01d4 0B       		.uleb128 0xb
 2720 01d5 DE000000 		.4byte	0xde
 2721 01d9 E4010000 		.4byte	0x1e4
 2722 01dd 0C       		.uleb128 0xc
 2723 01de 07010000 		.4byte	0x107
 2724 01e2 07       		.byte	0x7
 2725 01e3 00       		.byte	0
 2726 01e4 06       		.uleb128 0x6
 2727 01e5 D4010000 		.4byte	0x1d4
 2728 01e9 03       		.uleb128 0x3
 2729 01ea 21040000 		.4byte	.LASF31
 2730 01ee 06       		.byte	0x6
 2731 01ef 78       		.byte	0x78
 2732 01f0 BF010000 		.4byte	0x1bf
 2733 01f4 0A       		.uleb128 0xa
 2734 01f5 04       		.byte	0x4
 2735 01f6 06       		.byte	0x6
 2736 01f7 7B       		.byte	0x7b
 2737 01f8 09020000 		.4byte	0x209
 2738 01fc 09       		.uleb128 0x9
 2739 01fd FF050000 		.4byte	.LASF29
 2740 0201 06       		.byte	0x6
 2741 0202 7D       		.byte	0x7d
 2742 0203 19020000 		.4byte	0x219
 2743 0207 00       		.byte	0
 2744 0208 00       		.byte	0
 2745 0209 0B       		.uleb128 0xb
 2746 020a DE000000 		.4byte	0xde
 2747 020e 19020000 		.4byte	0x219
 2748 0212 0C       		.uleb128 0xc
 2749 0213 07010000 		.4byte	0x107
 2750 0217 03       		.byte	0x3
 2751 0218 00       		.byte	0
 2752 0219 06       		.uleb128 0x6
 2753 021a 09020000 		.4byte	0x209
 2754 021e 03       		.uleb128 0x3
 2755 021f D8050000 		.4byte	.LASF32
 2756 0223 06       		.byte	0x6
 2757 0224 7E       		.byte	0x7e
 2758 0225 F4010000 		.4byte	0x1f4
 2759 0229 0A       		.uleb128 0xa
 2760 022a 10       		.byte	0x10
 2761 022b 06       		.byte	0x6
 2762 022c 81       		.byte	0x81
 2763 022d 85020000 		.4byte	0x285
 2764 0231 08       		.uleb128 0x8
 2765 0232 696400   		.ascii	"id\000"
 2766 0235 06       		.byte	0x6
 2767 0236 83       		.byte	0x83
 2768 0237 99000000 		.4byte	0x99
 2769 023b 00       		.byte	0
 2770 023c 08       		.uleb128 0x8
 2771 023d 72747200 		.ascii	"rtr\000"
 2772 0241 06       		.byte	0x6
ARM GAS  C:\Users\austc\AppData\Local\Temp\ccREwTmP.s 			page 67


 2773 0242 84       		.byte	0x84
 2774 0243 81000000 		.4byte	0x81
 2775 0247 04       		.byte	0x4
 2776 0248 08       		.uleb128 0x8
 2777 0249 69646500 		.ascii	"ide\000"
 2778 024d 06       		.byte	0x6
 2779 024e 85       		.byte	0x85
 2780 024f 81000000 		.4byte	0x81
 2781 0253 05       		.byte	0x5
 2782 0254 08       		.uleb128 0x8
 2783 0255 646C6300 		.ascii	"dlc\000"
 2784 0259 06       		.byte	0x6
 2785 025a 86       		.byte	0x86
 2786 025b 81000000 		.4byte	0x81
 2787 025f 06       		.byte	0x6
 2788 0260 08       		.uleb128 0x8
 2789 0261 69727100 		.ascii	"irq\000"
 2790 0265 06       		.byte	0x6
 2791 0266 87       		.byte	0x87
 2792 0267 81000000 		.4byte	0x81
 2793 026b 07       		.byte	0x7
 2794 026c 08       		.uleb128 0x8
 2795 026d 73737400 		.ascii	"sst\000"
 2796 0271 06       		.byte	0x6
 2797 0272 89       		.byte	0x89
 2798 0273 81000000 		.4byte	0x81
 2799 0277 08       		.byte	0x8
 2800 0278 08       		.uleb128 0x8
 2801 0279 6D736700 		.ascii	"msg\000"
 2802 027d 06       		.byte	0x6
 2803 027e 8B       		.byte	0x8b
 2804 027f 85020000 		.4byte	0x285
 2805 0283 0C       		.byte	0xc
 2806 0284 00       		.byte	0
 2807 0285 0D       		.uleb128 0xd
 2808 0286 04       		.byte	0x4
 2809 0287 B4010000 		.4byte	0x1b4
 2810 028b 03       		.uleb128 0x3
 2811 028c 0A010000 		.4byte	.LASF33
 2812 0290 06       		.byte	0x6
 2813 0291 8C       		.byte	0x8c
 2814 0292 29020000 		.4byte	0x229
 2815 0296 0A       		.uleb128 0xa
 2816 0297 20       		.byte	0x20
 2817 0298 06       		.byte	0x6
 2818 0299 A0       		.byte	0xa0
 2819 029a F3020000 		.4byte	0x2f3
 2820 029e 09       		.uleb128 0x9
 2821 029f 31060000 		.4byte	.LASF34
 2822 02a3 06       		.byte	0x6
 2823 02a4 A2       		.byte	0xa2
 2824 02a5 1E020000 		.4byte	0x21e
 2825 02a9 00       		.byte	0
 2826 02aa 09       		.uleb128 0x9
 2827 02ab 04060000 		.4byte	.LASF35
 2828 02af 06       		.byte	0x6
 2829 02b0 A3       		.byte	0xa3
ARM GAS  C:\Users\austc\AppData\Local\Temp\ccREwTmP.s 			page 68


 2830 02b1 1E020000 		.4byte	0x21e
 2831 02b5 04       		.byte	0x4
 2832 02b6 09       		.uleb128 0x9
 2833 02b7 08040000 		.4byte	.LASF36
 2834 02bb 06       		.byte	0x6
 2835 02bc A4       		.byte	0xa4
 2836 02bd E9010000 		.4byte	0x1e9
 2837 02c1 08       		.byte	0x8
 2838 02c2 09       		.uleb128 0x9
 2839 02c3 D0000000 		.4byte	.LASF37
 2840 02c7 06       		.byte	0x6
 2841 02c8 A5       		.byte	0xa5
 2842 02c9 1E020000 		.4byte	0x21e
 2843 02cd 10       		.byte	0x10
 2844 02ce 09       		.uleb128 0x9
 2845 02cf 28030000 		.4byte	.LASF38
 2846 02d3 06       		.byte	0x6
 2847 02d4 A6       		.byte	0xa6
 2848 02d5 1E020000 		.4byte	0x21e
 2849 02d9 14       		.byte	0x14
 2850 02da 09       		.uleb128 0x9
 2851 02db 3D030000 		.4byte	.LASF39
 2852 02df 06       		.byte	0x6
 2853 02e0 A7       		.byte	0xa7
 2854 02e1 1E020000 		.4byte	0x21e
 2855 02e5 18       		.byte	0x18
 2856 02e6 09       		.uleb128 0x9
 2857 02e7 93030000 		.4byte	.LASF40
 2858 02eb 06       		.byte	0x6
 2859 02ec A8       		.byte	0xa8
 2860 02ed 1E020000 		.4byte	0x21e
 2861 02f1 1C       		.byte	0x1c
 2862 02f2 00       		.byte	0
 2863 02f3 03       		.uleb128 0x3
 2864 02f4 52020000 		.4byte	.LASF41
 2865 02f8 06       		.byte	0x6
 2866 02f9 A9       		.byte	0xa9
 2867 02fa 96020000 		.4byte	0x296
 2868 02fe 0E       		.uleb128 0xe
 2869 02ff CF030000 		.4byte	.LASF128
 2870 0303 01       		.byte	0x1
 2871 0304 F801     		.2byte	0x1f8
 2872 0306 03       		.byte	0x3
 2873 0307 18030000 		.4byte	0x318
 2874 030b 0F       		.uleb128 0xf
 2875 030c 37060000 		.4byte	.LASF129
 2876 0310 01       		.byte	0x1
 2877 0311 F801     		.2byte	0x1f8
 2878 0313 8D000000 		.4byte	0x8d
 2879 0317 00       		.byte	0
 2880 0318 10       		.uleb128 0x10
 2881 0319 B2040000 		.4byte	.LASF42
 2882 031d 01       		.byte	0x1
 2883 031e D201     		.2byte	0x1d2
 2884 0320 00000000 		.4byte	.LFB47
 2885 0324 F8010000 		.4byte	.LFE47-.LFB47
 2886 0328 01       		.uleb128 0x1
ARM GAS  C:\Users\austc\AppData\Local\Temp\ccREwTmP.s 			page 69


 2887 0329 9C       		.byte	0x9c
 2888 032a D2030000 		.4byte	0x3d2
 2889 032e 11       		.uleb128 0x11
 2890 032f FE020000 		.4byte	0x2fe
 2891 0333 42000000 		.4byte	.LBB6
 2892 0337 9C000000 		.4byte	.LBE6-.LBB6
 2893 033b 01       		.byte	0x1
 2894 033c E201     		.2byte	0x1e2
 2895 033e 4C030000 		.4byte	0x34c
 2896 0342 12       		.uleb128 0x12
 2897 0343 0B030000 		.4byte	0x30b
 2898 0347 00000000 		.4byte	.LLST0
 2899 034b 00       		.byte	0
 2900 034c 11       		.uleb128 0x11
 2901 034d FE020000 		.4byte	0x2fe
 2902 0351 1A010000 		.4byte	.LBB8
 2903 0355 9C000000 		.4byte	.LBE8-.LBB8
 2904 0359 01       		.byte	0x1
 2905 035a F001     		.2byte	0x1f0
 2906 035c 6A030000 		.4byte	0x36a
 2907 0360 12       		.uleb128 0x12
 2908 0361 0B030000 		.4byte	0x30b
 2909 0365 22000000 		.4byte	.LLST1
 2910 0369 00       		.byte	0
 2911 036a 13       		.uleb128 0x13
 2912 036b 18000000 		.4byte	.LVL0
 2913 036f C30F0000 		.4byte	0xfc3
 2914 0373 81030000 		.4byte	0x381
 2915 0377 14       		.uleb128 0x14
 2916 0378 01       		.uleb128 0x1
 2917 0379 50       		.byte	0x50
 2918 037a 05       		.uleb128 0x5
 2919 037b 03       		.byte	0x3
 2920 037c 00000000 		.4byte	.LC1
 2921 0380 00       		.byte	0
 2922 0381 13       		.uleb128 0x13
 2923 0382 32000000 		.4byte	.LVL1
 2924 0386 C30F0000 		.4byte	0xfc3
 2925 038a 98030000 		.4byte	0x398
 2926 038e 14       		.uleb128 0x14
 2927 038f 01       		.uleb128 0x1
 2928 0390 50       		.byte	0x50
 2929 0391 05       		.uleb128 0x5
 2930 0392 03       		.byte	0x3
 2931 0393 14000000 		.4byte	.LC3
 2932 0397 00       		.byte	0
 2933 0398 13       		.uleb128 0x13
 2934 0399 3E000000 		.4byte	.LVL2
 2935 039d CF0F0000 		.4byte	0xfcf
 2936 03a1 AB030000 		.4byte	0x3ab
 2937 03a5 14       		.uleb128 0x14
 2938 03a6 01       		.uleb128 0x1
 2939 03a7 50       		.byte	0x50
 2940 03a8 01       		.uleb128 0x1
 2941 03a9 30       		.byte	0x30
 2942 03aa 00       		.byte	0
 2943 03ab 13       		.uleb128 0x13
ARM GAS  C:\Users\austc\AppData\Local\Temp\ccREwTmP.s 			page 70


 2944 03ac 0C010000 		.4byte	.LVL6
 2945 03b0 C30F0000 		.4byte	0xfc3
 2946 03b4 C2030000 		.4byte	0x3c2
 2947 03b8 14       		.uleb128 0x14
 2948 03b9 01       		.uleb128 0x1
 2949 03ba 50       		.byte	0x50
 2950 03bb 05       		.uleb128 0x5
 2951 03bc 03       		.byte	0x3
 2952 03bd 24000000 		.4byte	.LC9
 2953 03c1 00       		.byte	0
 2954 03c2 15       		.uleb128 0x15
 2955 03c3 18010000 		.4byte	.LVL7
 2956 03c7 CF0F0000 		.4byte	0xfcf
 2957 03cb 14       		.uleb128 0x14
 2958 03cc 01       		.uleb128 0x1
 2959 03cd 50       		.byte	0x50
 2960 03ce 01       		.uleb128 0x1
 2961 03cf 30       		.byte	0x30
 2962 03d0 00       		.byte	0
 2963 03d1 00       		.byte	0
 2964 03d2 10       		.uleb128 0x10
 2965 03d3 B2030000 		.4byte	.LASF43
 2966 03d7 01       		.byte	0x1
 2967 03d8 0D01     		.2byte	0x10d
 2968 03da 00000000 		.4byte	.LFB38
 2969 03de 14000000 		.4byte	.LFE38-.LFB38
 2970 03e2 01       		.uleb128 0x1
 2971 03e3 9C       		.byte	0x9c
 2972 03e4 F2030000 		.4byte	0x3f2
 2973 03e8 16       		.uleb128 0x16
 2974 03e9 06000000 		.4byte	.LVL11
 2975 03ed DA0F0000 		.4byte	0xfda
 2976 03f1 00       		.byte	0
 2977 03f2 10       		.uleb128 0x10
 2978 03f3 3D020000 		.4byte	.LASF44
 2979 03f7 01       		.byte	0x1
 2980 03f8 1401     		.2byte	0x114
 2981 03fa 00000000 		.4byte	.LFB39
 2982 03fe 6C000000 		.4byte	.LFE39-.LFB39
 2983 0402 01       		.uleb128 0x1
 2984 0403 9C       		.byte	0x9c
 2985 0404 D5040000 		.4byte	0x4d5
 2986 0408 17       		.uleb128 0x17
 2987 0409 DD020000 		.4byte	.LASF47
 2988 040d 01       		.byte	0x1
 2989 040e 1601     		.2byte	0x116
 2990 0410 68000000 		.4byte	0x68
 2991 0414 44000000 		.4byte	.LLST2
 2992 0418 16       		.uleb128 0x16
 2993 0419 06000000 		.4byte	.LVL12
 2994 041d E60F0000 		.4byte	0xfe6
 2995 0421 16       		.uleb128 0x16
 2996 0422 0C000000 		.4byte	.LVL14
 2997 0426 F10F0000 		.4byte	0xff1
 2998 042a 16       		.uleb128 0x16
 2999 042b 10000000 		.4byte	.LVL15
 3000 042f FC0F0000 		.4byte	0xffc
ARM GAS  C:\Users\austc\AppData\Local\Temp\ccREwTmP.s 			page 71


 3001 0433 16       		.uleb128 0x16
 3002 0434 14000000 		.4byte	.LVL16
 3003 0438 07100000 		.4byte	0x1007
 3004 043c 16       		.uleb128 0x16
 3005 043d 18000000 		.4byte	.LVL17
 3006 0441 12100000 		.4byte	0x1012
 3007 0445 16       		.uleb128 0x16
 3008 0446 1C000000 		.4byte	.LVL18
 3009 044a 1E100000 		.4byte	0x101e
 3010 044e 13       		.uleb128 0x13
 3011 044f 24000000 		.4byte	.LVL19
 3012 0453 29100000 		.4byte	0x1029
 3013 0457 6A040000 		.4byte	0x46a
 3014 045b 14       		.uleb128 0x14
 3015 045c 01       		.uleb128 0x1
 3016 045d 50       		.byte	0x50
 3017 045e 01       		.uleb128 0x1
 3018 045f 4D       		.byte	0x4d
 3019 0460 14       		.uleb128 0x14
 3020 0461 01       		.uleb128 0x1
 3021 0462 51       		.byte	0x51
 3022 0463 05       		.uleb128 0x5
 3023 0464 03       		.byte	0x3
 3024 0465 00000000 		.4byte	ISR_CAN
 3025 0469 00       		.byte	0
 3026 046a 13       		.uleb128 0x13
 3027 046b 2C000000 		.4byte	.LVL20
 3028 046f 34100000 		.4byte	0x1034
 3029 0473 81040000 		.4byte	0x481
 3030 0477 14       		.uleb128 0x14
 3031 0478 01       		.uleb128 0x1
 3032 0479 50       		.byte	0x50
 3033 047a 05       		.uleb128 0x5
 3034 047b 03       		.byte	0x3
 3035 047c 00000000 		.4byte	Pin_Limit_Handler
 3036 0480 00       		.byte	0
 3037 0481 13       		.uleb128 0x13
 3038 0482 32000000 		.4byte	.LVL21
 3039 0486 3F100000 		.4byte	0x103f
 3040 048a 98040000 		.4byte	0x498
 3041 048e 14       		.uleb128 0x14
 3042 048f 01       		.uleb128 0x1
 3043 0490 50       		.byte	0x50
 3044 0491 05       		.uleb128 0x5
 3045 0492 03       		.byte	0x3
 3046 0493 00000000 		.4byte	Period_Reset_Handler
 3047 0497 00       		.byte	0
 3048 0498 16       		.uleb128 0x16
 3049 0499 3E000000 		.4byte	.LVL22
 3050 049d 4A100000 		.4byte	0x104a
 3051 04a1 13       		.uleb128 0x13
 3052 04a2 4A000000 		.4byte	.LVL23
 3053 04a6 55100000 		.4byte	0x1055
 3054 04aa C4040000 		.4byte	0x4c4
 3055 04ae 14       		.uleb128 0x14
 3056 04af 01       		.uleb128 0x1
 3057 04b0 50       		.byte	0x50
ARM GAS  C:\Users\austc\AppData\Local\Temp\ccREwTmP.s 			page 72


 3058 04b1 02       		.uleb128 0x2
 3059 04b2 75       		.byte	0x75
 3060 04b3 00       		.sleb128 0
 3061 04b4 14       		.uleb128 0x14
 3062 04b5 01       		.uleb128 0x1
 3063 04b6 51       		.byte	0x51
 3064 04b7 05       		.uleb128 0x5
 3065 04b8 03       		.byte	0x3
 3066 04b9 34000000 		.4byte	.LC16
 3067 04bd 14       		.uleb128 0x14
 3068 04be 01       		.uleb128 0x1
 3069 04bf 52       		.byte	0x52
 3070 04c0 02       		.uleb128 0x2
 3071 04c1 74       		.byte	0x74
 3072 04c2 00       		.sleb128 0
 3073 04c3 00       		.byte	0
 3074 04c4 15       		.uleb128 0x15
 3075 04c5 50000000 		.4byte	.LVL24
 3076 04c9 C30F0000 		.4byte	0xfc3
 3077 04cd 14       		.uleb128 0x14
 3078 04ce 01       		.uleb128 0x1
 3079 04cf 50       		.byte	0x50
 3080 04d0 02       		.uleb128 0x2
 3081 04d1 75       		.byte	0x75
 3082 04d2 00       		.sleb128 0
 3083 04d3 00       		.byte	0
 3084 04d4 00       		.byte	0
 3085 04d5 10       		.uleb128 0x10
 3086 04d6 82000000 		.4byte	.LASF45
 3087 04da 01       		.byte	0x1
 3088 04db 8101     		.2byte	0x181
 3089 04dd 00000000 		.4byte	.LFB41
 3090 04e1 1C000000 		.4byte	.LFE41-.LFB41
 3091 04e5 01       		.uleb128 0x1
 3092 04e6 9C       		.byte	0x9c
 3093 04e7 FC040000 		.4byte	0x4fc
 3094 04eb 18       		.uleb128 0x18
 3095 04ec 65050000 		.4byte	.LASF51
 3096 04f0 01       		.byte	0x1
 3097 04f1 8101     		.2byte	0x181
 3098 04f3 99000000 		.4byte	0x99
 3099 04f7 62000000 		.4byte	.LLST3
 3100 04fb 00       		.byte	0
 3101 04fc 10       		.uleb128 0x10
 3102 04fd 4E040000 		.4byte	.LASF46
 3103 0501 01       		.byte	0x1
 3104 0502 3B01     		.2byte	0x13b
 3105 0504 00000000 		.4byte	.LFB40
 3106 0508 88010000 		.4byte	.LFE40-.LFB40
 3107 050c 01       		.uleb128 0x1
 3108 050d 9C       		.byte	0x9c
 3109 050e C2050000 		.4byte	0x5c2
 3110 0512 17       		.uleb128 0x17
 3111 0513 15010000 		.4byte	.LASF48
 3112 0517 01       		.byte	0x1
 3113 0518 3C01     		.2byte	0x13c
 3114 051a 81000000 		.4byte	0x81
ARM GAS  C:\Users\austc\AppData\Local\Temp\ccREwTmP.s 			page 73


 3115 051e 83000000 		.4byte	.LLST4
 3116 0522 17       		.uleb128 0x17
 3117 0523 36010000 		.4byte	.LASF49
 3118 0527 01       		.byte	0x1
 3119 0528 3D01     		.2byte	0x13d
 3120 052a 81000000 		.4byte	0x81
 3121 052e 96000000 		.4byte	.LLST5
 3122 0532 16       		.uleb128 0x16
 3123 0533 08000000 		.4byte	.LVL28
 3124 0537 60100000 		.4byte	0x1060
 3125 053b 16       		.uleb128 0x16
 3126 053c 0E000000 		.4byte	.LVL30
 3127 0540 60100000 		.4byte	0x1060
 3128 0544 13       		.uleb128 0x13
 3129 0545 12010000 		.4byte	.LVL44
 3130 0549 D5040000 		.4byte	0x4d5
 3131 054d 57050000 		.4byte	0x557
 3132 0551 14       		.uleb128 0x14
 3133 0552 01       		.uleb128 0x1
 3134 0553 50       		.byte	0x50
 3135 0554 01       		.uleb128 0x1
 3136 0555 31       		.byte	0x31
 3137 0556 00       		.byte	0
 3138 0557 13       		.uleb128 0x13
 3139 0558 28010000 		.4byte	.LVL45
 3140 055c 55100000 		.4byte	0x1055
 3141 0560 7A050000 		.4byte	0x57a
 3142 0564 14       		.uleb128 0x14
 3143 0565 01       		.uleb128 0x1
 3144 0566 50       		.byte	0x50
 3145 0567 02       		.uleb128 0x2
 3146 0568 74       		.byte	0x74
 3147 0569 00       		.sleb128 0
 3148 056a 14       		.uleb128 0x14
 3149 056b 01       		.uleb128 0x1
 3150 056c 51       		.byte	0x51
 3151 056d 05       		.uleb128 0x5
 3152 056e 03       		.byte	0x3
 3153 056f 48000000 		.4byte	.LC28
 3154 0573 14       		.uleb128 0x14
 3155 0574 01       		.uleb128 0x1
 3156 0575 52       		.byte	0x52
 3157 0576 02       		.uleb128 0x2
 3158 0577 75       		.byte	0x75
 3159 0578 00       		.sleb128 0
 3160 0579 00       		.byte	0
 3161 057a 13       		.uleb128 0x13
 3162 057b 2E010000 		.4byte	.LVL46
 3163 057f C30F0000 		.4byte	0xfc3
 3164 0583 8E050000 		.4byte	0x58e
 3165 0587 14       		.uleb128 0x14
 3166 0588 01       		.uleb128 0x1
 3167 0589 50       		.byte	0x50
 3168 058a 02       		.uleb128 0x2
 3169 058b 74       		.byte	0x74
 3170 058c 00       		.sleb128 0
 3171 058d 00       		.byte	0
ARM GAS  C:\Users\austc\AppData\Local\Temp\ccREwTmP.s 			page 74


 3172 058e 13       		.uleb128 0x13
 3173 058f 40010000 		.4byte	.LVL47
 3174 0593 55100000 		.4byte	0x1055
 3175 0597 B1050000 		.4byte	0x5b1
 3176 059b 14       		.uleb128 0x14
 3177 059c 01       		.uleb128 0x1
 3178 059d 50       		.byte	0x50
 3179 059e 02       		.uleb128 0x2
 3180 059f 74       		.byte	0x74
 3181 05a0 00       		.sleb128 0
 3182 05a1 14       		.uleb128 0x14
 3183 05a2 01       		.uleb128 0x1
 3184 05a3 51       		.byte	0x51
 3185 05a4 05       		.uleb128 0x5
 3186 05a5 03       		.byte	0x3
 3187 05a6 70000000 		.4byte	.LC31
 3188 05aa 14       		.uleb128 0x14
 3189 05ab 01       		.uleb128 0x1
 3190 05ac 52       		.byte	0x52
 3191 05ad 02       		.uleb128 0x2
 3192 05ae 76       		.byte	0x76
 3193 05af 00       		.sleb128 0
 3194 05b0 00       		.byte	0
 3195 05b1 15       		.uleb128 0x15
 3196 05b2 46010000 		.4byte	.LVL48
 3197 05b6 C30F0000 		.4byte	0xfc3
 3198 05ba 14       		.uleb128 0x14
 3199 05bb 01       		.uleb128 0x1
 3200 05bc 50       		.byte	0x50
 3201 05bd 02       		.uleb128 0x2
 3202 05be 74       		.byte	0x74
 3203 05bf 00       		.sleb128 0
 3204 05c0 00       		.byte	0
 3205 05c1 00       		.byte	0
 3206 05c2 10       		.uleb128 0x10
 3207 05c3 74040000 		.4byte	.LASF50
 3208 05c7 01       		.byte	0x1
 3209 05c8 8601     		.2byte	0x186
 3210 05ca 00000000 		.4byte	.LFB42
 3211 05ce 90000000 		.4byte	.LFE42-.LFB42
 3212 05d2 01       		.uleb128 0x1
 3213 05d3 9C       		.byte	0x9c
 3214 05d4 97060000 		.4byte	0x697
 3215 05d8 18       		.uleb128 0x18
 3216 05d9 30040000 		.4byte	.LASF52
 3217 05dd 01       		.byte	0x1
 3218 05de 8601     		.2byte	0x186
 3219 05e0 68000000 		.4byte	0x68
 3220 05e4 45010000 		.4byte	.LLST6
 3221 05e8 17       		.uleb128 0x17
 3222 05e9 7D030000 		.4byte	.LASF53
 3223 05ed 01       		.byte	0x1
 3224 05ee 8E01     		.2byte	0x18e
 3225 05f0 81000000 		.4byte	0x81
 3226 05f4 7C010000 		.4byte	.LLST7
 3227 05f8 13       		.uleb128 0x13
 3228 05f9 1C000000 		.4byte	.LVL53
ARM GAS  C:\Users\austc\AppData\Local\Temp\ccREwTmP.s 			page 75


 3229 05fd 55100000 		.4byte	0x1055
 3230 0601 1B060000 		.4byte	0x61b
 3231 0605 14       		.uleb128 0x14
 3232 0606 01       		.uleb128 0x1
 3233 0607 50       		.byte	0x50
 3234 0608 02       		.uleb128 0x2
 3235 0609 75       		.byte	0x75
 3236 060a 00       		.sleb128 0
 3237 060b 14       		.uleb128 0x14
 3238 060c 01       		.uleb128 0x1
 3239 060d 51       		.byte	0x51
 3240 060e 05       		.uleb128 0x5
 3241 060f 03       		.byte	0x3
 3242 0610 A0000000 		.4byte	.LC35
 3243 0614 14       		.uleb128 0x14
 3244 0615 01       		.uleb128 0x1
 3245 0616 52       		.byte	0x52
 3246 0617 02       		.uleb128 0x2
 3247 0618 74       		.byte	0x74
 3248 0619 00       		.sleb128 0
 3249 061a 00       		.byte	0
 3250 061b 13       		.uleb128 0x13
 3251 061c 22000000 		.4byte	.LVL54
 3252 0620 C30F0000 		.4byte	0xfc3
 3253 0624 2F060000 		.4byte	0x62f
 3254 0628 14       		.uleb128 0x14
 3255 0629 01       		.uleb128 0x1
 3256 062a 50       		.byte	0x50
 3257 062b 02       		.uleb128 0x2
 3258 062c 75       		.byte	0x75
 3259 062d 00       		.sleb128 0
 3260 062e 00       		.byte	0
 3261 062f 16       		.uleb128 0x16
 3262 0630 38000000 		.4byte	.LVL55
 3263 0634 6B100000 		.4byte	0x106b
 3264 0638 13       		.uleb128 0x13
 3265 0639 4E000000 		.4byte	.LVL57
 3266 063d 76100000 		.4byte	0x1076
 3267 0641 4B060000 		.4byte	0x64b
 3268 0645 14       		.uleb128 0x14
 3269 0646 01       		.uleb128 0x1
 3270 0647 50       		.byte	0x50
 3271 0648 01       		.uleb128 0x1
 3272 0649 30       		.byte	0x30
 3273 064a 00       		.byte	0
 3274 064b 13       		.uleb128 0x13
 3275 064c 54000000 		.4byte	.LVL58
 3276 0650 81100000 		.4byte	0x1081
 3277 0654 60060000 		.4byte	0x660
 3278 0658 14       		.uleb128 0x14
 3279 0659 01       		.uleb128 0x1
 3280 065a 50       		.byte	0x50
 3281 065b 03       		.uleb128 0x3
 3282 065c 74       		.byte	0x74
 3283 065d 00       		.sleb128 0
 3284 065e 1F       		.byte	0x1f
 3285 065f 00       		.byte	0
ARM GAS  C:\Users\austc\AppData\Local\Temp\ccREwTmP.s 			page 76


 3286 0660 13       		.uleb128 0x13
 3287 0661 6C000000 		.4byte	.LVL61
 3288 0665 76100000 		.4byte	0x1076
 3289 0669 73060000 		.4byte	0x673
 3290 066d 14       		.uleb128 0x14
 3291 066e 01       		.uleb128 0x1
 3292 066f 50       		.byte	0x50
 3293 0670 01       		.uleb128 0x1
 3294 0671 31       		.byte	0x31
 3295 0672 00       		.byte	0
 3296 0673 13       		.uleb128 0x13
 3297 0674 72000000 		.4byte	.LVL62
 3298 0678 81100000 		.4byte	0x1081
 3299 067c 87060000 		.4byte	0x687
 3300 0680 14       		.uleb128 0x14
 3301 0681 01       		.uleb128 0x1
 3302 0682 50       		.byte	0x50
 3303 0683 02       		.uleb128 0x2
 3304 0684 74       		.byte	0x74
 3305 0685 00       		.sleb128 0
 3306 0686 00       		.byte	0
 3307 0687 15       		.uleb128 0x15
 3308 0688 7A000000 		.4byte	.LVL65
 3309 068c 81100000 		.4byte	0x1081
 3310 0690 14       		.uleb128 0x14
 3311 0691 01       		.uleb128 0x1
 3312 0692 50       		.byte	0x50
 3313 0693 01       		.uleb128 0x1
 3314 0694 30       		.byte	0x30
 3315 0695 00       		.byte	0
 3316 0696 00       		.byte	0
 3317 0697 19       		.uleb128 0x19
 3318 0698 FB020000 		.4byte	.LASF54
 3319 069c 01       		.byte	0x1
 3320 069d 54       		.byte	0x54
 3321 069e 00000000 		.4byte	.LFB35
 3322 06a2 64000000 		.4byte	.LFE35-.LFB35
 3323 06a6 01       		.uleb128 0x1
 3324 06a7 9C       		.byte	0x9c
 3325 06a8 07070000 		.4byte	0x707
 3326 06ac 1A       		.uleb128 0x1a
 3327 06ad 99060000 		.4byte	.LASF55
 3328 06b1 01       		.byte	0x1
 3329 06b2 55       		.byte	0x55
 3330 06b3 68000000 		.4byte	0x68
 3331 06b7 A5010000 		.4byte	.LLST8
 3332 06bb 16       		.uleb128 0x16
 3333 06bc 06000000 		.4byte	.LVL67
 3334 06c0 8D100000 		.4byte	0x108d
 3335 06c4 13       		.uleb128 0x13
 3336 06c5 18000000 		.4byte	.LVL69
 3337 06c9 55100000 		.4byte	0x1055
 3338 06cd E4060000 		.4byte	0x6e4
 3339 06d1 14       		.uleb128 0x14
 3340 06d2 01       		.uleb128 0x1
 3341 06d3 50       		.byte	0x50
 3342 06d4 05       		.uleb128 0x5
ARM GAS  C:\Users\austc\AppData\Local\Temp\ccREwTmP.s 			page 77


 3343 06d5 03       		.byte	0x3
 3344 06d6 00000000 		.4byte	txData
 3345 06da 14       		.uleb128 0x14
 3346 06db 01       		.uleb128 0x1
 3347 06dc 51       		.byte	0x51
 3348 06dd 05       		.uleb128 0x5
 3349 06de 03       		.byte	0x3
 3350 06df AC000000 		.4byte	.LC40
 3351 06e3 00       		.byte	0
 3352 06e4 13       		.uleb128 0x13
 3353 06e5 38000000 		.4byte	.LVL70
 3354 06e9 C2050000 		.4byte	0x5c2
 3355 06ed F7060000 		.4byte	0x6f7
 3356 06f1 14       		.uleb128 0x14
 3357 06f2 01       		.uleb128 0x1
 3358 06f3 50       		.byte	0x50
 3359 06f4 01       		.uleb128 0x1
 3360 06f5 30       		.byte	0x30
 3361 06f6 00       		.byte	0
 3362 06f7 15       		.uleb128 0x15
 3363 06f8 4C000000 		.4byte	.LVL71
 3364 06fc CF0F0000 		.4byte	0xfcf
 3365 0700 14       		.uleb128 0x14
 3366 0701 01       		.uleb128 0x1
 3367 0702 50       		.byte	0x50
 3368 0703 01       		.uleb128 0x1
 3369 0704 31       		.byte	0x31
 3370 0705 00       		.byte	0
 3371 0706 00       		.byte	0
 3372 0707 19       		.uleb128 0x19
 3373 0708 93040000 		.4byte	.LASF56
 3374 070c 01       		.byte	0x1
 3375 070d 69       		.byte	0x69
 3376 070e 00000000 		.4byte	.LFB36
 3377 0712 3C000000 		.4byte	.LFE36-.LFB36
 3378 0716 01       		.uleb128 0x1
 3379 0717 9C       		.byte	0x9c
 3380 0718 6B070000 		.4byte	0x76b
 3381 071c 13       		.uleb128 0x13
 3382 071d 16000000 		.4byte	.LVL72
 3383 0721 98100000 		.4byte	0x1098
 3384 0725 3E070000 		.4byte	0x73e
 3385 0729 14       		.uleb128 0x14
 3386 072a 01       		.uleb128 0x1
 3387 072b 50       		.byte	0x50
 3388 072c 02       		.uleb128 0x2
 3389 072d 74       		.byte	0x74
 3390 072e 00       		.sleb128 0
 3391 072f 14       		.uleb128 0x14
 3392 0730 01       		.uleb128 0x1
 3393 0731 51       		.byte	0x51
 3394 0732 05       		.uleb128 0x5
 3395 0733 03       		.byte	0x3
 3396 0734 CC000000 		.4byte	.LC47
 3397 0738 14       		.uleb128 0x14
 3398 0739 01       		.uleb128 0x1
 3399 073a 52       		.byte	0x52
ARM GAS  C:\Users\austc\AppData\Local\Temp\ccREwTmP.s 			page 78


 3400 073b 01       		.uleb128 0x1
 3401 073c 4A       		.byte	0x4a
 3402 073d 00       		.byte	0
 3403 073e 13       		.uleb128 0x13
 3404 073f 1C000000 		.4byte	.LVL73
 3405 0743 C30F0000 		.4byte	0xfc3
 3406 0747 52070000 		.4byte	0x752
 3407 074b 14       		.uleb128 0x14
 3408 074c 01       		.uleb128 0x1
 3409 074d 50       		.byte	0x50
 3410 074e 02       		.uleb128 0x2
 3411 074f 74       		.byte	0x74
 3412 0750 00       		.sleb128 0
 3413 0751 00       		.byte	0
 3414 0752 16       		.uleb128 0x16
 3415 0753 24000000 		.4byte	.LVL74
 3416 0757 C2050000 		.4byte	0x5c2
 3417 075b 15       		.uleb128 0x15
 3418 075c 2A000000 		.4byte	.LVL75
 3419 0760 A1100000 		.4byte	0x10a1
 3420 0764 14       		.uleb128 0x14
 3421 0765 01       		.uleb128 0x1
 3422 0766 50       		.byte	0x50
 3423 0767 01       		.uleb128 0x1
 3424 0768 30       		.byte	0x30
 3425 0769 00       		.byte	0
 3426 076a 00       		.byte	0
 3427 076b 10       		.uleb128 0x10
 3428 076c 67020000 		.4byte	.LASF57
 3429 0770 01       		.byte	0x1
 3430 0771 9B01     		.2byte	0x19b
 3431 0773 00000000 		.4byte	.LFB43
 3432 0777 68000000 		.4byte	.LFE43-.LFB43
 3433 077b 01       		.uleb128 0x1
 3434 077c 9C       		.byte	0x9c
 3435 077d FB070000 		.4byte	0x7fb
 3436 0781 17       		.uleb128 0x17
 3437 0782 D7020000 		.4byte	.LASF58
 3438 0786 01       		.byte	0x1
 3439 0787 9C01     		.2byte	0x19c
 3440 0789 B1000000 		.4byte	0xb1
 3441 078d C3010000 		.4byte	.LLST9
 3442 0791 16       		.uleb128 0x16
 3443 0792 08000000 		.4byte	.LVL76
 3444 0796 AC100000 		.4byte	0x10ac
 3445 079a 13       		.uleb128 0x13
 3446 079b 22000000 		.4byte	.LVL78
 3447 079f B7100000 		.4byte	0x10b7
 3448 07a3 B1070000 		.4byte	0x7b1
 3449 07a7 14       		.uleb128 0x14
 3450 07a8 01       		.uleb128 0x1
 3451 07a9 50       		.byte	0x50
 3452 07aa 05       		.uleb128 0x5
 3453 07ab 03       		.byte	0x3
 3454 07ac 00000000 		.4byte	message
 3455 07b0 00       		.byte	0
 3456 07b1 16       		.uleb128 0x16
ARM GAS  C:\Users\austc\AppData\Local\Temp\ccREwTmP.s 			page 79


 3457 07b2 36000000 		.4byte	.LVL79
 3458 07b6 AC100000 		.4byte	0x10ac
 3459 07ba 13       		.uleb128 0x13
 3460 07bb 48000000 		.4byte	.LVL80
 3461 07bf 55100000 		.4byte	0x1055
 3462 07c3 EA070000 		.4byte	0x7ea
 3463 07c7 14       		.uleb128 0x14
 3464 07c8 01       		.uleb128 0x1
 3465 07c9 50       		.byte	0x50
 3466 07ca 02       		.uleb128 0x2
 3467 07cb 74       		.byte	0x74
 3468 07cc 00       		.sleb128 0
 3469 07cd 14       		.uleb128 0x14
 3470 07ce 01       		.uleb128 0x1
 3471 07cf 51       		.byte	0x51
 3472 07d0 05       		.uleb128 0x5
 3473 07d1 03       		.byte	0x3
 3474 07d2 E8000000 		.4byte	.LC53
 3475 07d6 14       		.uleb128 0x14
 3476 07d7 01       		.uleb128 0x1
 3477 07d8 52       		.byte	0x52
 3478 07d9 02       		.uleb128 0x2
 3479 07da 75       		.byte	0x75
 3480 07db 00       		.sleb128 0
 3481 07dc 14       		.uleb128 0x14
 3482 07dd 01       		.uleb128 0x1
 3483 07de 53       		.byte	0x53
 3484 07df 02       		.uleb128 0x2
 3485 07e0 76       		.byte	0x76
 3486 07e1 00       		.sleb128 0
 3487 07e2 14       		.uleb128 0x14
 3488 07e3 02       		.uleb128 0x2
 3489 07e4 7D       		.byte	0x7d
 3490 07e5 00       		.sleb128 0
 3491 07e6 02       		.uleb128 0x2
 3492 07e7 77       		.byte	0x77
 3493 07e8 00       		.sleb128 0
 3494 07e9 00       		.byte	0
 3495 07ea 15       		.uleb128 0x15
 3496 07eb 4E000000 		.4byte	.LVL81
 3497 07ef C30F0000 		.4byte	0xfc3
 3498 07f3 14       		.uleb128 0x14
 3499 07f4 01       		.uleb128 0x1
 3500 07f5 50       		.byte	0x50
 3501 07f6 02       		.uleb128 0x2
 3502 07f7 74       		.byte	0x74
 3503 07f8 00       		.sleb128 0
 3504 07f9 00       		.byte	0
 3505 07fa 00       		.byte	0
 3506 07fb 10       		.uleb128 0x10
 3507 07fc B0000000 		.4byte	.LASF59
 3508 0800 01       		.byte	0x1
 3509 0801 AB01     		.2byte	0x1ab
 3510 0803 00000000 		.4byte	.LFB44
 3511 0807 4C000000 		.4byte	.LFE44-.LFB44
 3512 080b 01       		.uleb128 0x1
 3513 080c 9C       		.byte	0x9c
ARM GAS  C:\Users\austc\AppData\Local\Temp\ccREwTmP.s 			page 80


 3514 080d 56080000 		.4byte	0x856
 3515 0811 13       		.uleb128 0x13
 3516 0812 18000000 		.4byte	.LVL82
 3517 0816 B7100000 		.4byte	0x10b7
 3518 081a 28080000 		.4byte	0x828
 3519 081e 14       		.uleb128 0x14
 3520 081f 01       		.uleb128 0x1
 3521 0820 50       		.byte	0x50
 3522 0821 05       		.uleb128 0x5
 3523 0822 03       		.byte	0x3
 3524 0823 00000000 		.4byte	message
 3525 0827 00       		.byte	0
 3526 0828 13       		.uleb128 0x13
 3527 0829 30000000 		.4byte	.LVL83
 3528 082d 55100000 		.4byte	0x1055
 3529 0831 45080000 		.4byte	0x845
 3530 0835 14       		.uleb128 0x14
 3531 0836 01       		.uleb128 0x1
 3532 0837 50       		.byte	0x50
 3533 0838 02       		.uleb128 0x2
 3534 0839 74       		.byte	0x74
 3535 083a 00       		.sleb128 0
 3536 083b 14       		.uleb128 0x14
 3537 083c 01       		.uleb128 0x1
 3538 083d 51       		.byte	0x51
 3539 083e 05       		.uleb128 0x5
 3540 083f 03       		.byte	0x3
 3541 0840 34010000 		.4byte	.LC59
 3542 0844 00       		.byte	0
 3543 0845 15       		.uleb128 0x15
 3544 0846 36000000 		.4byte	.LVL84
 3545 084a C30F0000 		.4byte	0xfc3
 3546 084e 14       		.uleb128 0x14
 3547 084f 01       		.uleb128 0x1
 3548 0850 50       		.byte	0x50
 3549 0851 02       		.uleb128 0x2
 3550 0852 74       		.byte	0x74
 3551 0853 00       		.sleb128 0
 3552 0854 00       		.byte	0
 3553 0855 00       		.byte	0
 3554 0856 10       		.uleb128 0x10
 3555 0857 56050000 		.4byte	.LASF60
 3556 085b 01       		.byte	0x1
 3557 085c B801     		.2byte	0x1b8
 3558 085e 00000000 		.4byte	.LFB45
 3559 0862 4C000000 		.4byte	.LFE45-.LFB45
 3560 0866 01       		.uleb128 0x1
 3561 0867 9C       		.byte	0x9c
 3562 0868 B1080000 		.4byte	0x8b1
 3563 086c 13       		.uleb128 0x13
 3564 086d 18000000 		.4byte	.LVL85
 3565 0871 B7100000 		.4byte	0x10b7
 3566 0875 83080000 		.4byte	0x883
 3567 0879 14       		.uleb128 0x14
 3568 087a 01       		.uleb128 0x1
 3569 087b 50       		.byte	0x50
 3570 087c 05       		.uleb128 0x5
ARM GAS  C:\Users\austc\AppData\Local\Temp\ccREwTmP.s 			page 81


 3571 087d 03       		.byte	0x3
 3572 087e 00000000 		.4byte	message
 3573 0882 00       		.byte	0
 3574 0883 13       		.uleb128 0x13
 3575 0884 30000000 		.4byte	.LVL86
 3576 0888 55100000 		.4byte	0x1055
 3577 088c A0080000 		.4byte	0x8a0
 3578 0890 14       		.uleb128 0x14
 3579 0891 01       		.uleb128 0x1
 3580 0892 50       		.byte	0x50
 3581 0893 02       		.uleb128 0x2
 3582 0894 74       		.byte	0x74
 3583 0895 00       		.sleb128 0
 3584 0896 14       		.uleb128 0x14
 3585 0897 01       		.uleb128 0x1
 3586 0898 51       		.byte	0x51
 3587 0899 05       		.uleb128 0x5
 3588 089a 03       		.byte	0x3
 3589 089b 5C010000 		.4byte	.LC65
 3590 089f 00       		.byte	0
 3591 08a0 15       		.uleb128 0x15
 3592 08a1 36000000 		.4byte	.LVL87
 3593 08a5 C30F0000 		.4byte	0xfc3
 3594 08a9 14       		.uleb128 0x14
 3595 08aa 01       		.uleb128 0x1
 3596 08ab 50       		.byte	0x50
 3597 08ac 02       		.uleb128 0x2
 3598 08ad 74       		.byte	0x74
 3599 08ae 00       		.sleb128 0
 3600 08af 00       		.byte	0
 3601 08b0 00       		.byte	0
 3602 08b1 10       		.uleb128 0x10
 3603 08b2 2E030000 		.4byte	.LASF61
 3604 08b6 01       		.byte	0x1
 3605 08b7 C501     		.2byte	0x1c5
 3606 08b9 00000000 		.4byte	.LFB46
 3607 08bd 54000000 		.4byte	.LFE46-.LFB46
 3608 08c1 01       		.uleb128 0x1
 3609 08c2 9C       		.byte	0x9c
 3610 08c3 2C090000 		.4byte	0x92c
 3611 08c7 18       		.uleb128 0x18
 3612 08c8 97020000 		.4byte	.LASF27
 3613 08cc 01       		.byte	0x1
 3614 08cd C501     		.2byte	0x1c5
 3615 08cf 81000000 		.4byte	0x81
 3616 08d3 D6010000 		.4byte	.LLST10
 3617 08d7 18       		.uleb128 0x18
 3618 08d8 0F040000 		.4byte	.LASF28
 3619 08dc 01       		.byte	0x1
 3620 08dd C501     		.2byte	0x1c5
 3621 08df 81000000 		.4byte	0x81
 3622 08e3 03020000 		.4byte	.LLST11
 3623 08e7 13       		.uleb128 0x13
 3624 08e8 1A000000 		.4byte	.LVL90
 3625 08ec B7100000 		.4byte	0x10b7
 3626 08f0 FE080000 		.4byte	0x8fe
 3627 08f4 14       		.uleb128 0x14
ARM GAS  C:\Users\austc\AppData\Local\Temp\ccREwTmP.s 			page 82


 3628 08f5 01       		.uleb128 0x1
 3629 08f6 50       		.byte	0x50
 3630 08f7 05       		.uleb128 0x5
 3631 08f8 03       		.byte	0x3
 3632 08f9 00000000 		.4byte	message
 3633 08fd 00       		.byte	0
 3634 08fe 13       		.uleb128 0x13
 3635 08ff 36000000 		.4byte	.LVL91
 3636 0903 55100000 		.4byte	0x1055
 3637 0907 1B090000 		.4byte	0x91b
 3638 090b 14       		.uleb128 0x14
 3639 090c 01       		.uleb128 0x1
 3640 090d 50       		.byte	0x50
 3641 090e 02       		.uleb128 0x2
 3642 090f 74       		.byte	0x74
 3643 0910 00       		.sleb128 0
 3644 0911 14       		.uleb128 0x14
 3645 0912 01       		.uleb128 0x1
 3646 0913 51       		.byte	0x51
 3647 0914 05       		.uleb128 0x5
 3648 0915 03       		.byte	0x3
 3649 0916 80010000 		.4byte	.LC71
 3650 091a 00       		.byte	0
 3651 091b 15       		.uleb128 0x15
 3652 091c 3C000000 		.4byte	.LVL92
 3653 0920 C30F0000 		.4byte	0xfc3
 3654 0924 14       		.uleb128 0x14
 3655 0925 01       		.uleb128 0x1
 3656 0926 50       		.byte	0x50
 3657 0927 02       		.uleb128 0x2
 3658 0928 74       		.byte	0x74
 3659 0929 00       		.sleb128 0
 3660 092a 00       		.byte	0
 3661 092b 00       		.byte	0
 3662 092c 1B       		.uleb128 0x1b
 3663 092d FE020000 		.4byte	0x2fe
 3664 0931 00000000 		.4byte	.LFB48
 3665 0935 B8000000 		.4byte	.LFE48-.LFB48
 3666 0939 01       		.uleb128 0x1
 3667 093a 9C       		.byte	0x9c
 3668 093b 49090000 		.4byte	0x949
 3669 093f 12       		.uleb128 0x12
 3670 0940 0B030000 		.4byte	0x30b
 3671 0944 24020000 		.4byte	.LLST12
 3672 0948 00       		.byte	0
 3673 0949 1C       		.uleb128 0x1c
 3674 094a EF000000 		.4byte	.LASF63
 3675 094e 01       		.byte	0x1
 3676 094f 3002     		.2byte	0x230
 3677 0951 68000000 		.4byte	0x68
 3678 0955 00000000 		.4byte	.LFB50
 3679 0959 48000000 		.4byte	.LFE50-.LFB50
 3680 095d 01       		.uleb128 0x1
 3681 095e 9C       		.byte	0x9c
 3682 095f BD090000 		.4byte	0x9bd
 3683 0963 18       		.uleb128 0x18
 3684 0964 8D000000 		.4byte	.LASF62
ARM GAS  C:\Users\austc\AppData\Local\Temp\ccREwTmP.s 			page 83


 3685 0968 01       		.byte	0x1
 3686 0969 3002     		.2byte	0x230
 3687 096b B1000000 		.4byte	0xb1
 3688 096f 45020000 		.4byte	.LLST13
 3689 0973 17       		.uleb128 0x17
 3690 0974 D7020000 		.4byte	.LASF58
 3691 0978 01       		.byte	0x1
 3692 0979 3102     		.2byte	0x231
 3693 097b 68000000 		.4byte	0x68
 3694 097f 66020000 		.4byte	.LLST14
 3695 0983 13       		.uleb128 0x13
 3696 0984 2E000000 		.4byte	.LVL101
 3697 0988 55100000 		.4byte	0x1055
 3698 098c AC090000 		.4byte	0x9ac
 3699 0990 14       		.uleb128 0x14
 3700 0991 01       		.uleb128 0x1
 3701 0992 50       		.byte	0x50
 3702 0993 02       		.uleb128 0x2
 3703 0994 76       		.byte	0x76
 3704 0995 00       		.sleb128 0
 3705 0996 14       		.uleb128 0x14
 3706 0997 01       		.uleb128 0x1
 3707 0998 51       		.byte	0x51
 3708 0999 05       		.uleb128 0x5
 3709 099a 03       		.byte	0x3
 3710 099b B0010000 		.4byte	.LC81
 3711 099f 14       		.uleb128 0x14
 3712 09a0 01       		.uleb128 0x1
 3713 09a1 52       		.byte	0x52
 3714 09a2 02       		.uleb128 0x2
 3715 09a3 75       		.byte	0x75
 3716 09a4 00       		.sleb128 0
 3717 09a5 14       		.uleb128 0x14
 3718 09a6 01       		.uleb128 0x1
 3719 09a7 53       		.byte	0x53
 3720 09a8 02       		.uleb128 0x2
 3721 09a9 74       		.byte	0x74
 3722 09aa 00       		.sleb128 0
 3723 09ab 00       		.byte	0
 3724 09ac 15       		.uleb128 0x15
 3725 09ad 34000000 		.4byte	.LVL102
 3726 09b1 C30F0000 		.4byte	0xfc3
 3727 09b5 14       		.uleb128 0x14
 3728 09b6 01       		.uleb128 0x1
 3729 09b7 50       		.byte	0x50
 3730 09b8 02       		.uleb128 0x2
 3731 09b9 76       		.byte	0x76
 3732 09ba 00       		.sleb128 0
 3733 09bb 00       		.byte	0
 3734 09bc 00       		.byte	0
 3735 09bd 1C       		.uleb128 0x1c
 3736 09be A5040000 		.4byte	.LASF64
 3737 09c2 01       		.byte	0x1
 3738 09c3 3902     		.2byte	0x239
 3739 09c5 68000000 		.4byte	0x68
 3740 09c9 00000000 		.4byte	.LFB51
 3741 09cd BC000000 		.4byte	.LFE51-.LFB51
ARM GAS  C:\Users\austc\AppData\Local\Temp\ccREwTmP.s 			page 84


 3742 09d1 01       		.uleb128 0x1
 3743 09d2 9C       		.byte	0x9c
 3744 09d3 570A0000 		.4byte	0xa57
 3745 09d7 18       		.uleb128 0x18
 3746 09d8 36020000 		.4byte	.LASF65
 3747 09dc 01       		.byte	0x1
 3748 09dd 3902     		.2byte	0x239
 3749 09df 68000000 		.4byte	0x68
 3750 09e3 9A020000 		.4byte	.LLST15
 3751 09e7 17       		.uleb128 0x17
 3752 09e8 7A060000 		.4byte	.LASF66
 3753 09ec 01       		.byte	0x1
 3754 09ed 3A02     		.2byte	0x23a
 3755 09ef B1000000 		.4byte	0xb1
 3756 09f3 C6020000 		.4byte	.LLST16
 3757 09f7 1D       		.uleb128 0x1d
 3758 09f8 7000     		.ascii	"p\000"
 3759 09fa 01       		.byte	0x1
 3760 09fb 3B02     		.2byte	0x23b
 3761 09fd 68000000 		.4byte	0x68
 3762 0a01 F0020000 		.4byte	.LLST17
 3763 0a05 1D       		.uleb128 0x1d
 3764 0a06 6400     		.ascii	"d\000"
 3765 0a08 01       		.byte	0x1
 3766 0a09 4702     		.2byte	0x247
 3767 0a0b 68000000 		.4byte	0x68
 3768 0a0f 0E030000 		.4byte	.LLST18
 3769 0a13 16       		.uleb128 0x16
 3770 0a14 0A000000 		.4byte	.LVL105
 3771 0a18 AC100000 		.4byte	0x10ac
 3772 0a1c 13       		.uleb128 0x13
 3773 0a1d 60000000 		.4byte	.LVL110
 3774 0a21 55100000 		.4byte	0x1055
 3775 0a25 460A0000 		.4byte	0xa46
 3776 0a29 14       		.uleb128 0x14
 3777 0a2a 01       		.uleb128 0x1
 3778 0a2b 50       		.byte	0x50
 3779 0a2c 02       		.uleb128 0x2
 3780 0a2d 76       		.byte	0x76
 3781 0a2e 00       		.sleb128 0
 3782 0a2f 14       		.uleb128 0x14
 3783 0a30 01       		.uleb128 0x1
 3784 0a31 51       		.byte	0x51
 3785 0a32 05       		.uleb128 0x5
 3786 0a33 03       		.byte	0x3
 3787 0a34 C8010000 		.4byte	.LC86
 3788 0a38 14       		.uleb128 0x14
 3789 0a39 01       		.uleb128 0x1
 3790 0a3a 52       		.byte	0x52
 3791 0a3b 02       		.uleb128 0x2
 3792 0a3c 74       		.byte	0x74
 3793 0a3d 00       		.sleb128 0
 3794 0a3e 14       		.uleb128 0x14
 3795 0a3f 02       		.uleb128 0x2
 3796 0a40 7D       		.byte	0x7d
 3797 0a41 00       		.sleb128 0
 3798 0a42 02       		.uleb128 0x2
ARM GAS  C:\Users\austc\AppData\Local\Temp\ccREwTmP.s 			page 85


 3799 0a43 75       		.byte	0x75
 3800 0a44 00       		.sleb128 0
 3801 0a45 00       		.byte	0
 3802 0a46 15       		.uleb128 0x15
 3803 0a47 66000000 		.4byte	.LVL111
 3804 0a4b C30F0000 		.4byte	0xfc3
 3805 0a4f 14       		.uleb128 0x14
 3806 0a50 01       		.uleb128 0x1
 3807 0a51 50       		.byte	0x50
 3808 0a52 02       		.uleb128 0x2
 3809 0a53 76       		.byte	0x76
 3810 0a54 00       		.sleb128 0
 3811 0a55 00       		.byte	0
 3812 0a56 00       		.byte	0
 3813 0a57 10       		.uleb128 0x10
 3814 0a58 49050000 		.4byte	.LASF67
 3815 0a5c 01       		.byte	0x1
 3816 0a5d 1B02     		.2byte	0x21b
 3817 0a5f 00000000 		.4byte	.LFB49
 3818 0a63 7C000000 		.4byte	.LFE49-.LFB49
 3819 0a67 01       		.uleb128 0x1
 3820 0a68 9C       		.byte	0x9c
 3821 0a69 350B0000 		.4byte	0xb35
 3822 0a6d 18       		.uleb128 0x18
 3823 0a6e 8D000000 		.4byte	.LASF62
 3824 0a72 01       		.byte	0x1
 3825 0a73 1B02     		.2byte	0x21b
 3826 0a75 B1000000 		.4byte	0xb1
 3827 0a79 21030000 		.4byte	.LLST19
 3828 0a7d 1D       		.uleb128 0x1d
 3829 0a7e 50574D00 		.ascii	"PWM\000"
 3830 0a82 01       		.byte	0x1
 3831 0a83 2102     		.2byte	0x221
 3832 0a85 68000000 		.4byte	0x68
 3833 0a89 42030000 		.4byte	.LLST20
 3834 0a8d 13       		.uleb128 0x13
 3835 0a8e 1A000000 		.4byte	.LVL120
 3836 0a92 55100000 		.4byte	0x1055
 3837 0a96 AA0A0000 		.4byte	0xaaa
 3838 0a9a 14       		.uleb128 0x14
 3839 0a9b 01       		.uleb128 0x1
 3840 0a9c 50       		.byte	0x50
 3841 0a9d 02       		.uleb128 0x2
 3842 0a9e 75       		.byte	0x75
 3843 0a9f 00       		.sleb128 0
 3844 0aa0 14       		.uleb128 0x14
 3845 0aa1 01       		.uleb128 0x1
 3846 0aa2 51       		.byte	0x51
 3847 0aa3 05       		.uleb128 0x5
 3848 0aa4 03       		.byte	0x3
 3849 0aa5 E8010000 		.4byte	.LC94
 3850 0aa9 00       		.byte	0
 3851 0aaa 13       		.uleb128 0x13
 3852 0aab 20000000 		.4byte	.LVL121
 3853 0aaf C30F0000 		.4byte	0xfc3
 3854 0ab3 BE0A0000 		.4byte	0xabe
 3855 0ab7 14       		.uleb128 0x14
ARM GAS  C:\Users\austc\AppData\Local\Temp\ccREwTmP.s 			page 86


 3856 0ab8 01       		.uleb128 0x1
 3857 0ab9 50       		.byte	0x50
 3858 0aba 02       		.uleb128 0x2
 3859 0abb 75       		.byte	0x75
 3860 0abc 00       		.sleb128 0
 3861 0abd 00       		.byte	0
 3862 0abe 13       		.uleb128 0x13
 3863 0abf 26000000 		.4byte	.LVL122
 3864 0ac3 49090000 		.4byte	0x949
 3865 0ac7 D20A0000 		.4byte	0xad2
 3866 0acb 14       		.uleb128 0x14
 3867 0acc 01       		.uleb128 0x1
 3868 0acd 50       		.byte	0x50
 3869 0ace 02       		.uleb128 0x2
 3870 0acf 74       		.byte	0x74
 3871 0ad0 00       		.sleb128 0
 3872 0ad1 00       		.byte	0
 3873 0ad2 16       		.uleb128 0x16
 3874 0ad3 2A000000 		.4byte	.LVL123
 3875 0ad7 BD090000 		.4byte	0x9bd
 3876 0adb 13       		.uleb128 0x13
 3877 0adc 40000000 		.4byte	.LVL126
 3878 0ae0 55100000 		.4byte	0x1055
 3879 0ae4 FE0A0000 		.4byte	0xafe
 3880 0ae8 14       		.uleb128 0x14
 3881 0ae9 01       		.uleb128 0x1
 3882 0aea 50       		.byte	0x50
 3883 0aeb 02       		.uleb128 0x2
 3884 0aec 75       		.byte	0x75
 3885 0aed 00       		.sleb128 0
 3886 0aee 14       		.uleb128 0x14
 3887 0aef 01       		.uleb128 0x1
 3888 0af0 51       		.byte	0x51
 3889 0af1 05       		.uleb128 0x5
 3890 0af2 03       		.byte	0x3
 3891 0af3 F8010000 		.4byte	.LC97
 3892 0af7 14       		.uleb128 0x14
 3893 0af8 01       		.uleb128 0x1
 3894 0af9 52       		.byte	0x52
 3895 0afa 02       		.uleb128 0x2
 3896 0afb 74       		.byte	0x74
 3897 0afc 00       		.sleb128 0
 3898 0afd 00       		.byte	0
 3899 0afe 13       		.uleb128 0x13
 3900 0aff 46000000 		.4byte	.LVL127
 3901 0b03 C30F0000 		.4byte	0xfc3
 3902 0b07 120B0000 		.4byte	0xb12
 3903 0b0b 14       		.uleb128 0x14
 3904 0b0c 01       		.uleb128 0x1
 3905 0b0d 50       		.byte	0x50
 3906 0b0e 02       		.uleb128 0x2
 3907 0b0f 75       		.byte	0x75
 3908 0b10 00       		.sleb128 0
 3909 0b11 00       		.byte	0
 3910 0b12 16       		.uleb128 0x16
 3911 0b13 52000000 		.4byte	.LVL128
 3912 0b17 C2050000 		.4byte	0x5c2
ARM GAS  C:\Users\austc\AppData\Local\Temp\ccREwTmP.s 			page 87


 3913 0b1b 16       		.uleb128 0x16
 3914 0b1c 5E000000 		.4byte	.LVL129
 3915 0b20 C2050000 		.4byte	0x5c2
 3916 0b24 15       		.uleb128 0x15
 3917 0b25 66000000 		.4byte	.LVL130
 3918 0b29 C2050000 		.4byte	0x5c2
 3919 0b2d 14       		.uleb128 0x14
 3920 0b2e 01       		.uleb128 0x1
 3921 0b2f 50       		.byte	0x50
 3922 0b30 02       		.uleb128 0x2
 3923 0b31 74       		.byte	0x74
 3924 0b32 00       		.sleb128 0
 3925 0b33 00       		.byte	0
 3926 0b34 00       		.byte	0
 3927 0b35 1E       		.uleb128 0x1e
 3928 0b36 75060000 		.4byte	.LASF130
 3929 0b3a 01       		.byte	0x1
 3930 0b3b 72       		.byte	0x72
 3931 0b3c 68000000 		.4byte	0x68
 3932 0b40 00000000 		.4byte	.LFB37
 3933 0b44 7C020000 		.4byte	.LFE37-.LFB37
 3934 0b48 01       		.uleb128 0x1
 3935 0b49 9C       		.byte	0x9c
 3936 0b4a 540D0000 		.4byte	0xd54
 3937 0b4e 1A       		.uleb128 0x1a
 3938 0b4f FF000000 		.4byte	.LASF68
 3939 0b53 01       		.byte	0x1
 3940 0b54 7E       		.byte	0x7e
 3941 0b55 81000000 		.4byte	0x81
 3942 0b59 6B030000 		.4byte	.LLST21
 3943 0b5d 1F       		.uleb128 0x1f
 3944 0b5e 757000   		.ascii	"up\000"
 3945 0b61 01       		.byte	0x1
 3946 0b62 8C       		.byte	0x8c
 3947 0b63 68000000 		.4byte	0x68
 3948 0b67 83030000 		.4byte	.LLST22
 3949 0b6b 13       		.uleb128 0x13
 3950 0b6c 0A000000 		.4byte	.LVL132
 3951 0b70 CF0F0000 		.4byte	0xfcf
 3952 0b74 7E0B0000 		.4byte	0xb7e
 3953 0b78 14       		.uleb128 0x14
 3954 0b79 01       		.uleb128 0x1
 3955 0b7a 50       		.byte	0x50
 3956 0b7b 01       		.uleb128 0x1
 3957 0b7c 30       		.byte	0x30
 3958 0b7d 00       		.byte	0
 3959 0b7e 13       		.uleb128 0x13
 3960 0b7f 10000000 		.4byte	.LVL133
 3961 0b83 C3100000 		.4byte	0x10c3
 3962 0b87 910B0000 		.4byte	0xb91
 3963 0b8b 14       		.uleb128 0x14
 3964 0b8c 01       		.uleb128 0x1
 3965 0b8d 50       		.byte	0x50
 3966 0b8e 01       		.uleb128 0x1
 3967 0b8f 30       		.byte	0x30
 3968 0b90 00       		.byte	0
 3969 0b91 13       		.uleb128 0x13
ARM GAS  C:\Users\austc\AppData\Local\Temp\ccREwTmP.s 			page 88


 3970 0b92 40000000 		.4byte	.LVL134
 3971 0b96 CF0F0000 		.4byte	0xfcf
 3972 0b9a A50B0000 		.4byte	0xba5
 3973 0b9e 14       		.uleb128 0x14
 3974 0b9f 01       		.uleb128 0x1
 3975 0ba0 50       		.byte	0x50
 3976 0ba1 02       		.uleb128 0x2
 3977 0ba2 74       		.byte	0x74
 3978 0ba3 00       		.sleb128 0
 3979 0ba4 00       		.byte	0
 3980 0ba5 13       		.uleb128 0x13
 3981 0ba6 46000000 		.4byte	.LVL135
 3982 0baa C3100000 		.4byte	0x10c3
 3983 0bae B90B0000 		.4byte	0xbb9
 3984 0bb2 14       		.uleb128 0x14
 3985 0bb3 01       		.uleb128 0x1
 3986 0bb4 50       		.byte	0x50
 3987 0bb5 02       		.uleb128 0x2
 3988 0bb6 74       		.byte	0x74
 3989 0bb7 00       		.sleb128 0
 3990 0bb8 00       		.byte	0
 3991 0bb9 16       		.uleb128 0x16
 3992 0bba 4A000000 		.4byte	.LVL136
 3993 0bbe F2030000 		.4byte	0x3f2
 3994 0bc2 16       		.uleb128 0x16
 3995 0bc3 4E000000 		.4byte	.LVL137
 3996 0bc7 FC040000 		.4byte	0x4fc
 3997 0bcb 13       		.uleb128 0x13
 3998 0bcc 58000000 		.4byte	.LVL138
 3999 0bd0 C2050000 		.4byte	0x5c2
 4000 0bd4 DF0B0000 		.4byte	0xbdf
 4001 0bd8 14       		.uleb128 0x14
 4002 0bd9 01       		.uleb128 0x1
 4003 0bda 50       		.byte	0x50
 4004 0bdb 02       		.uleb128 0x2
 4005 0bdc 74       		.byte	0x74
 4006 0bdd 00       		.sleb128 0
 4007 0bde 00       		.byte	0
 4008 0bdf 13       		.uleb128 0x13
 4009 0be0 5E000000 		.4byte	.LVL139
 4010 0be4 CF0F0000 		.4byte	0xfcf
 4011 0be8 F20B0000 		.4byte	0xbf2
 4012 0bec 14       		.uleb128 0x14
 4013 0bed 01       		.uleb128 0x1
 4014 0bee 50       		.byte	0x50
 4015 0bef 01       		.uleb128 0x1
 4016 0bf0 31       		.byte	0x31
 4017 0bf1 00       		.byte	0
 4018 0bf2 13       		.uleb128 0x13
 4019 0bf3 64000000 		.4byte	.LVL140
 4020 0bf7 C3100000 		.4byte	0x10c3
 4021 0bfb 050C0000 		.4byte	0xc05
 4022 0bff 14       		.uleb128 0x14
 4023 0c00 01       		.uleb128 0x1
 4024 0c01 50       		.byte	0x50
 4025 0c02 01       		.uleb128 0x1
 4026 0c03 31       		.byte	0x31
ARM GAS  C:\Users\austc\AppData\Local\Temp\ccREwTmP.s 			page 89


 4027 0c04 00       		.byte	0
 4028 0c05 13       		.uleb128 0x13
 4029 0c06 94000000 		.4byte	.LVL141
 4030 0c0a 55100000 		.4byte	0x1055
 4031 0c0e 220C0000 		.4byte	0xc22
 4032 0c12 14       		.uleb128 0x14
 4033 0c13 01       		.uleb128 0x1
 4034 0c14 50       		.byte	0x50
 4035 0c15 02       		.uleb128 0x2
 4036 0c16 75       		.byte	0x75
 4037 0c17 00       		.sleb128 0
 4038 0c18 14       		.uleb128 0x14
 4039 0c19 01       		.uleb128 0x1
 4040 0c1a 51       		.byte	0x51
 4041 0c1b 05       		.uleb128 0x5
 4042 0c1c 03       		.byte	0x3
 4043 0c1d 04020000 		.4byte	.LC108
 4044 0c21 00       		.byte	0
 4045 0c22 13       		.uleb128 0x13
 4046 0c23 9A000000 		.4byte	.LVL142
 4047 0c27 C30F0000 		.4byte	0xfc3
 4048 0c2b 360C0000 		.4byte	0xc36
 4049 0c2f 14       		.uleb128 0x14
 4050 0c30 01       		.uleb128 0x1
 4051 0c31 50       		.byte	0x50
 4052 0c32 02       		.uleb128 0x2
 4053 0c33 75       		.byte	0x75
 4054 0c34 00       		.sleb128 0
 4055 0c35 00       		.byte	0
 4056 0c36 16       		.uleb128 0x16
 4057 0c37 AE000000 		.4byte	.LVL143
 4058 0c3b C2050000 		.4byte	0x5c2
 4059 0c3f 16       		.uleb128 0x16
 4060 0c40 BA000000 		.4byte	.LVL144
 4061 0c44 C2050000 		.4byte	0x5c2
 4062 0c48 13       		.uleb128 0x13
 4063 0c49 D8000000 		.4byte	.LVL145
 4064 0c4d 55100000 		.4byte	0x1055
 4065 0c51 650C0000 		.4byte	0xc65
 4066 0c55 14       		.uleb128 0x14
 4067 0c56 01       		.uleb128 0x1
 4068 0c57 50       		.byte	0x50
 4069 0c58 02       		.uleb128 0x2
 4070 0c59 75       		.byte	0x75
 4071 0c5a 00       		.sleb128 0
 4072 0c5b 14       		.uleb128 0x14
 4073 0c5c 01       		.uleb128 0x1
 4074 0c5d 51       		.byte	0x51
 4075 0c5e 05       		.uleb128 0x5
 4076 0c5f 03       		.byte	0x3
 4077 0c60 20020000 		.4byte	.LC111
 4078 0c64 00       		.byte	0
 4079 0c65 13       		.uleb128 0x13
 4080 0c66 DE000000 		.4byte	.LVL146
 4081 0c6a C30F0000 		.4byte	0xfc3
 4082 0c6e 790C0000 		.4byte	0xc79
 4083 0c72 14       		.uleb128 0x14
ARM GAS  C:\Users\austc\AppData\Local\Temp\ccREwTmP.s 			page 90


 4084 0c73 01       		.uleb128 0x1
 4085 0c74 50       		.byte	0x50
 4086 0c75 02       		.uleb128 0x2
 4087 0c76 75       		.byte	0x75
 4088 0c77 00       		.sleb128 0
 4089 0c78 00       		.byte	0
 4090 0c79 13       		.uleb128 0x13
 4091 0c7a 02010000 		.4byte	.LVL147
 4092 0c7e 55100000 		.4byte	0x1055
 4093 0c82 960C0000 		.4byte	0xc96
 4094 0c86 14       		.uleb128 0x14
 4095 0c87 01       		.uleb128 0x1
 4096 0c88 50       		.byte	0x50
 4097 0c89 02       		.uleb128 0x2
 4098 0c8a 75       		.byte	0x75
 4099 0c8b 00       		.sleb128 0
 4100 0c8c 14       		.uleb128 0x14
 4101 0c8d 01       		.uleb128 0x1
 4102 0c8e 51       		.byte	0x51
 4103 0c8f 05       		.uleb128 0x5
 4104 0c90 03       		.byte	0x3
 4105 0c91 44020000 		.4byte	.LC114
 4106 0c95 00       		.byte	0
 4107 0c96 13       		.uleb128 0x13
 4108 0c97 08010000 		.4byte	.LVL148
 4109 0c9b C30F0000 		.4byte	0xfc3
 4110 0c9f AA0C0000 		.4byte	0xcaa
 4111 0ca3 14       		.uleb128 0x14
 4112 0ca4 01       		.uleb128 0x1
 4113 0ca5 50       		.byte	0x50
 4114 0ca6 02       		.uleb128 0x2
 4115 0ca7 75       		.byte	0x75
 4116 0ca8 00       		.sleb128 0
 4117 0ca9 00       		.byte	0
 4118 0caa 16       		.uleb128 0x16
 4119 0cab 28010000 		.4byte	.LVL149
 4120 0caf 570A0000 		.4byte	0xa57
 4121 0cb3 13       		.uleb128 0x13
 4122 0cb4 4E010000 		.4byte	.LVL150
 4123 0cb8 55100000 		.4byte	0x1055
 4124 0cbc D00C0000 		.4byte	0xcd0
 4125 0cc0 14       		.uleb128 0x14
 4126 0cc1 01       		.uleb128 0x1
 4127 0cc2 50       		.byte	0x50
 4128 0cc3 02       		.uleb128 0x2
 4129 0cc4 75       		.byte	0x75
 4130 0cc5 00       		.sleb128 0
 4131 0cc6 14       		.uleb128 0x14
 4132 0cc7 01       		.uleb128 0x1
 4133 0cc8 51       		.byte	0x51
 4134 0cc9 05       		.uleb128 0x5
 4135 0cca 03       		.byte	0x3
 4136 0ccb 60020000 		.4byte	.LC117
 4137 0ccf 00       		.byte	0
 4138 0cd0 13       		.uleb128 0x13
 4139 0cd1 54010000 		.4byte	.LVL151
 4140 0cd5 C30F0000 		.4byte	0xfc3
ARM GAS  C:\Users\austc\AppData\Local\Temp\ccREwTmP.s 			page 91


 4141 0cd9 E40C0000 		.4byte	0xce4
 4142 0cdd 14       		.uleb128 0x14
 4143 0cde 01       		.uleb128 0x1
 4144 0cdf 50       		.byte	0x50
 4145 0ce0 02       		.uleb128 0x2
 4146 0ce1 75       		.byte	0x75
 4147 0ce2 00       		.sleb128 0
 4148 0ce3 00       		.byte	0
 4149 0ce4 16       		.uleb128 0x16
 4150 0ce5 98010000 		.4byte	.LVL153
 4151 0ce9 B1080000 		.4byte	0x8b1
 4152 0ced 16       		.uleb128 0x16
 4153 0cee AE010000 		.4byte	.LVL154
 4154 0cf2 B1080000 		.4byte	0x8b1
 4155 0cf6 16       		.uleb128 0x16
 4156 0cf7 C4010000 		.4byte	.LVL155
 4157 0cfb B1080000 		.4byte	0x8b1
 4158 0cff 13       		.uleb128 0x13
 4159 0d00 E2010000 		.4byte	.LVL156
 4160 0d04 98100000 		.4byte	0x1098
 4161 0d08 240D0000 		.4byte	0xd24
 4162 0d0c 14       		.uleb128 0x14
 4163 0d0d 01       		.uleb128 0x1
 4164 0d0e 50       		.byte	0x50
 4165 0d0f 05       		.uleb128 0x5
 4166 0d10 03       		.byte	0x3
 4167 0d11 00000000 		.4byte	txData
 4168 0d15 14       		.uleb128 0x14
 4169 0d16 01       		.uleb128 0x1
 4170 0d17 51       		.byte	0x51
 4171 0d18 05       		.uleb128 0x5
 4172 0d19 03       		.byte	0x3
 4173 0d1a 84020000 		.4byte	.LC119
 4174 0d1e 14       		.uleb128 0x14
 4175 0d1f 01       		.uleb128 0x1
 4176 0d20 52       		.byte	0x52
 4177 0d21 01       		.uleb128 0x1
 4178 0d22 44       		.byte	0x44
 4179 0d23 00       		.byte	0
 4180 0d24 16       		.uleb128 0x16
 4181 0d25 E6010000 		.4byte	.LVL157
 4182 0d29 6B070000 		.4byte	0x76b
 4183 0d2d 16       		.uleb128 0x16
 4184 0d2e F8010000 		.4byte	.LVL158
 4185 0d32 56080000 		.4byte	0x856
 4186 0d36 13       		.uleb128 0x13
 4187 0d37 04020000 		.4byte	.LVL159
 4188 0d3b CE100000 		.4byte	0x10ce
 4189 0d3f 4A0D0000 		.4byte	0xd4a
 4190 0d43 14       		.uleb128 0x14
 4191 0d44 01       		.uleb128 0x1
 4192 0d45 50       		.byte	0x50
 4193 0d46 02       		.uleb128 0x2
 4194 0d47 08       		.byte	0x8
 4195 0d48 64       		.byte	0x64
 4196 0d49 00       		.byte	0
 4197 0d4a 16       		.uleb128 0x16
ARM GAS  C:\Users\austc\AppData\Local\Temp\ccREwTmP.s 			page 92


 4198 0d4b 34020000 		.4byte	.LVL163
 4199 0d4f C2050000 		.4byte	0x5c2
 4200 0d53 00       		.byte	0
 4201 0d54 20       		.uleb128 0x20
 4202 0d55 8A030000 		.4byte	.LASF69
 4203 0d59 01       		.byte	0x1
 4204 0d5a 15       		.byte	0x15
 4205 0d5b 81000000 		.4byte	0x81
 4206 0d5f 05       		.uleb128 0x5
 4207 0d60 03       		.byte	0x3
 4208 0d61 00000000 		.4byte	time_LED
 4209 0d65 20       		.uleb128 0x20
 4210 0d66 8B050000 		.4byte	.LASF70
 4211 0d6a 01       		.byte	0x1
 4212 0d6b 18       		.byte	0x18
 4213 0d6c 99000000 		.4byte	0x99
 4214 0d70 05       		.uleb128 0x5
 4215 0d71 03       		.byte	0x3
 4216 0d72 00000000 		.4byte	message_id
 4217 0d76 20       		.uleb128 0x20
 4218 0d77 6B000000 		.4byte	.LASF71
 4219 0d7b 01       		.byte	0x1
 4220 0d7c 1C       		.byte	0x1c
 4221 0d7d 8D000000 		.4byte	0x8d
 4222 0d81 05       		.uleb128 0x5
 4223 0d82 03       		.byte	0x3
 4224 0d83 00000000 		.4byte	CAN_RX_MAILBOX_1_SHIFT
 4225 0d87 20       		.uleb128 0x20
 4226 0d88 BA040000 		.4byte	.LASF72
 4227 0d8c 01       		.byte	0x1
 4228 0d8d 1D       		.byte	0x1d
 4229 0d8e 99000000 		.4byte	0x99
 4230 0d92 05       		.uleb128 0x5
 4231 0d93 03       		.byte	0x3
 4232 0d94 00000000 		.4byte	CAN_RX_MAILBOX_0_SHIFT
 4233 0d98 20       		.uleb128 0x20
 4234 0d99 EE040000 		.4byte	.LASF73
 4235 0d9d 01       		.byte	0x1
 4236 0d9e 1E       		.byte	0x1e
 4237 0d9f 8D000000 		.4byte	0x8d
 4238 0da3 05       		.uleb128 0x5
 4239 0da4 03       		.byte	0x3
 4240 0da5 00000000 		.4byte	CAN_RX_MAILBOX_1
 4241 0da9 20       		.uleb128 0x20
 4242 0daa DD040000 		.4byte	.LASF74
 4243 0dae 01       		.byte	0x1
 4244 0daf 1F       		.byte	0x1f
 4245 0db0 8D000000 		.4byte	0x8d
 4246 0db4 05       		.uleb128 0x5
 4247 0db5 03       		.byte	0x3
 4248 0db6 00000000 		.4byte	CAN_RX_MAILBOX_0
 4249 0dba 20       		.uleb128 0x20
 4250 0dbb 15040000 		.4byte	.LASF75
 4251 0dbf 01       		.byte	0x1
 4252 0dc0 20       		.byte	0x20
 4253 0dc1 68000000 		.4byte	0x68
 4254 0dc5 05       		.uleb128 0x5
ARM GAS  C:\Users\austc\AppData\Local\Temp\ccREwTmP.s 			page 93


 4255 0dc6 03       		.byte	0x3
 4256 0dc7 00000000 		.4byte	CAN_TIMEOUT
 4257 0dcb 20       		.uleb128 0x20
 4258 0dcc 44030000 		.4byte	.LASF76
 4259 0dd0 01       		.byte	0x1
 4260 0dd1 25       		.byte	0x25
 4261 0dd2 EA000000 		.4byte	0xea
 4262 0dd6 05       		.uleb128 0x5
 4263 0dd7 03       		.byte	0x3
 4264 0dd8 00000000 		.4byte	uart_debug
 4265 0ddc 20       		.uleb128 0x20
 4266 0ddd 26060000 		.4byte	.LASF77
 4267 0de1 01       		.byte	0x1
 4268 0de2 2B       		.byte	0x2b
 4269 0de3 68000000 		.4byte	0x68
 4270 0de7 05       		.uleb128 0x5
 4271 0de8 03       		.byte	0x3
 4272 0de9 00000000 		.4byte	GEAR_RATIO
 4273 0ded 20       		.uleb128 0x20
 4274 0dee 9A030000 		.4byte	.LASF78
 4275 0df2 01       		.byte	0x1
 4276 0df3 2C       		.byte	0x2c
 4277 0df4 68000000 		.4byte	0x68
 4278 0df8 05       		.uleb128 0x5
 4279 0df9 03       		.byte	0x3
 4280 0dfa 00000000 		.4byte	pwm_compare
 4281 0dfe 20       		.uleb128 0x20
 4282 0dff 2B020000 		.4byte	.LASF79
 4283 0e03 01       		.byte	0x1
 4284 0e04 2D       		.byte	0x2d
 4285 0e05 81000000 		.4byte	0x81
 4286 0e09 05       		.uleb128 0x5
 4287 0e0a 03       		.byte	0x3
 4288 0e0b 00000000 		.4byte	invalidate
 4289 0e0f 20       		.uleb128 0x20
 4290 0e10 FC030000 		.4byte	.LASF80
 4291 0e14 01       		.byte	0x1
 4292 0e15 30       		.byte	0x30
 4293 0e16 A5000000 		.4byte	0xa5
 4294 0e1a 05       		.uleb128 0x5
 4295 0e1b 03       		.byte	0x3
 4296 0e1c 00000000 		.4byte	flipEncoder
 4297 0e20 20       		.uleb128 0x20
 4298 0e21 75010000 		.4byte	.LASF81
 4299 0e25 01       		.byte	0x1
 4300 0e26 31       		.byte	0x31
 4301 0e27 B1000000 		.4byte	0xb1
 4302 0e2b 05       		.uleb128 0x5
 4303 0e2c 03       		.byte	0x3
 4304 0e2d 00000000 		.4byte	final_angle
 4305 0e31 21       		.uleb128 0x21
 4306 0e32 6900     		.ascii	"i\000"
 4307 0e34 01       		.byte	0x1
 4308 0e35 32       		.byte	0x32
 4309 0e36 68000000 		.4byte	0x68
 4310 0e3a 05       		.uleb128 0x5
 4311 0e3b 03       		.byte	0x3
ARM GAS  C:\Users\austc\AppData\Local\Temp\ccREwTmP.s 			page 94


 4312 0e3c 00000000 		.4byte	i
 4313 0e40 20       		.uleb128 0x20
 4314 0e41 62040000 		.4byte	.LASF82
 4315 0e45 01       		.byte	0x1
 4316 0e46 33       		.byte	0x33
 4317 0e47 68000000 		.4byte	0x68
 4318 0e4b 05       		.uleb128 0x5
 4319 0e4c 03       		.byte	0x3
 4320 0e4d 00000000 		.4byte	lastp
 4321 0e51 21       		.uleb128 0x21
 4322 0e52 6B7000   		.ascii	"kp\000"
 4323 0e55 01       		.byte	0x1
 4324 0e56 34       		.byte	0x34
 4325 0e57 68000000 		.4byte	0x68
 4326 0e5b 05       		.uleb128 0x5
 4327 0e5c 03       		.byte	0x3
 4328 0e5d 00000000 		.4byte	kp
 4329 0e61 21       		.uleb128 0x21
 4330 0e62 6B6900   		.ascii	"ki\000"
 4331 0e65 01       		.byte	0x1
 4332 0e66 35       		.byte	0x35
 4333 0e67 68000000 		.4byte	0x68
 4334 0e6b 05       		.uleb128 0x5
 4335 0e6c 03       		.byte	0x3
 4336 0e6d 00000000 		.4byte	ki
 4337 0e71 21       		.uleb128 0x21
 4338 0e72 6B6400   		.ascii	"kd\000"
 4339 0e75 01       		.byte	0x1
 4340 0e76 36       		.byte	0x36
 4341 0e77 68000000 		.4byte	0x68
 4342 0e7b 05       		.uleb128 0x5
 4343 0e7c 03       		.byte	0x3
 4344 0e7d 00000000 		.4byte	kd
 4345 0e81 20       		.uleb128 0x20
 4346 0e82 18050000 		.4byte	.LASF83
 4347 0e86 01       		.byte	0x1
 4348 0e87 37       		.byte	0x37
 4349 0e88 C4000000 		.4byte	0xc4
 4350 0e8c 05       		.uleb128 0x5
 4351 0e8d 03       		.byte	0x3
 4352 0e8e 00000000 		.4byte	ratio
 4353 0e92 20       		.uleb128 0x20
 4354 0e93 9C020000 		.4byte	.LASF84
 4355 0e97 01       		.byte	0x1
 4356 0e98 38       		.byte	0x38
 4357 0e99 81000000 		.4byte	0x81
 4358 0e9d 05       		.uleb128 0x5
 4359 0e9e 03       		.byte	0x3
 4360 0e9f 00000000 		.4byte	complete
 4361 0ea3 20       		.uleb128 0x20
 4362 0ea4 3C060000 		.4byte	.LASF85
 4363 0ea8 01       		.byte	0x1
 4364 0ea9 39       		.byte	0x39
 4365 0eaa 81000000 		.4byte	0x81
 4366 0eae 05       		.uleb128 0x5
 4367 0eaf 03       		.byte	0x3
 4368 0eb0 00000000 		.4byte	maxV
ARM GAS  C:\Users\austc\AppData\Local\Temp\ccREwTmP.s 			page 95


 4369 0eb4 20       		.uleb128 0x20
 4370 0eb5 05010000 		.4byte	.LASF86
 4371 0eb9 01       		.byte	0x1
 4372 0eba 3C       		.byte	0x3c
 4373 0ebb 81000000 		.4byte	0x81
 4374 0ebf 05       		.uleb128 0x5
 4375 0ec0 03       		.byte	0x3
 4376 0ec1 00000000 		.4byte	mode
 4377 0ec5 20       		.uleb128 0x20
 4378 0ec6 48020000 		.4byte	.LASF87
 4379 0eca 01       		.byte	0x1
 4380 0ecb 3F       		.byte	0x3f
 4381 0ecc 81000000 		.4byte	0x81
 4382 0ed0 05       		.uleb128 0x5
 4383 0ed1 03       		.byte	0x3
 4384 0ed2 00000000 		.4byte	send_data
 4385 0ed6 20       		.uleb128 0x20
 4386 0ed7 3F040000 		.4byte	.LASF88
 4387 0edb 01       		.byte	0x1
 4388 0edc 40       		.byte	0x40
 4389 0edd 81000000 		.4byte	0x81
 4390 0ee1 05       		.uleb128 0x5
 4391 0ee2 03       		.byte	0x3
 4392 0ee3 00000000 		.4byte	model_req
 4393 0ee7 20       		.uleb128 0x20
 4394 0ee8 D6000000 		.4byte	.LASF89
 4395 0eec 01       		.byte	0x1
 4396 0eed 41       		.byte	0x41
 4397 0eee 81000000 		.4byte	0x81
 4398 0ef2 05       		.uleb128 0x5
 4399 0ef3 03       		.byte	0x3
 4400 0ef4 00000000 		.4byte	disable_limit
 4401 0ef8 20       		.uleb128 0x20
 4402 0ef9 8C010000 		.4byte	.LASF90
 4403 0efd 01       		.byte	0x1
 4404 0efe 44       		.byte	0x44
 4405 0eff 0E010000 		.4byte	0x10e
 4406 0f03 05       		.uleb128 0x5
 4407 0f04 03       		.byte	0x3
 4408 0f05 00000000 		.4byte	Can_rx_pwm
 4409 0f09 20       		.uleb128 0x20
 4410 0f0a 96050000 		.4byte	.LASF91
 4411 0f0e 01       		.byte	0x1
 4412 0f0f 44       		.byte	0x44
 4413 0f10 0E010000 		.4byte	0x10e
 4414 0f14 05       		.uleb128 0x5
 4415 0f15 03       		.byte	0x3
 4416 0f16 00000000 		.4byte	Can_rx_angle
 4417 0f1a 20       		.uleb128 0x20
 4418 0f1b 78020000 		.4byte	.LASF92
 4419 0f1f 01       		.byte	0x1
 4420 0f20 45       		.byte	0x45
 4421 0f21 5E010000 		.4byte	0x15e
 4422 0f25 05       		.uleb128 0x5
 4423 0f26 03       		.byte	0x3
 4424 0f27 00000000 		.4byte	stall
 4425 0f2b 20       		.uleb128 0x20
ARM GAS  C:\Users\austc\AppData\Local\Temp\ccREwTmP.s 			page 96


 4426 0f2c A3050000 		.4byte	.LASF93
 4427 0f30 01       		.byte	0x1
 4428 0f31 46       		.byte	0x46
 4429 0f32 5E010000 		.4byte	0x15e
 4430 0f36 05       		.uleb128 0x5
 4431 0f37 03       		.byte	0x3
 4432 0f38 00000000 		.4byte	command_failed
 4433 0f3c 20       		.uleb128 0x20
 4434 0f3d D1040000 		.4byte	.LASF94
 4435 0f41 01       		.byte	0x1
 4436 0f42 47       		.byte	0x47
 4437 0f43 5E010000 		.4byte	0x15e
 4438 0f47 05       		.uleb128 0x5
 4439 0f48 03       		.byte	0x3
 4440 0f49 00000000 		.4byte	invalid_arg
 4441 0f4d 20       		.uleb128 0x20
 4442 0f4e B3060000 		.4byte	.LASF95
 4443 0f52 01       		.byte	0x1
 4444 0f53 4A       		.byte	0x4a
 4445 0f54 68000000 		.4byte	0x68
 4446 0f58 05       		.uleb128 0x5
 4447 0f59 03       		.byte	0x3
 4448 0f5a 00000000 		.4byte	mailbox
 4449 0f5e 20       		.uleb128 0x20
 4450 0f5f 81050000 		.4byte	.LASF96
 4451 0f63 01       		.byte	0x1
 4452 0f64 4B       		.byte	0x4b
 4453 0f65 81000000 		.4byte	0x81
 4454 0f69 05       		.uleb128 0x5
 4455 0f6a 03       		.byte	0x3
 4456 0f6b 00000000 		.4byte	emergency
 4457 0f6f 0B       		.uleb128 0xb
 4458 0f70 CB000000 		.4byte	0xcb
 4459 0f74 7F0F0000 		.4byte	0xf7f
 4460 0f78 0C       		.uleb128 0xc
 4461 0f79 07010000 		.4byte	0x107
 4462 0f7d 63       		.byte	0x63
 4463 0f7e 00       		.byte	0
 4464 0f7f 20       		.uleb128 0x20
 4465 0f80 60020000 		.4byte	.LASF97
 4466 0f84 01       		.byte	0x1
 4467 0f85 4C       		.byte	0x4c
 4468 0f86 6F0F0000 		.4byte	0xf6f
 4469 0f8a 05       		.uleb128 0x5
 4470 0f8b 03       		.byte	0x3
 4471 0f8c 00000000 		.4byte	txData
 4472 0f90 20       		.uleb128 0x20
 4473 0f91 56030000 		.4byte	.LASF98
 4474 0f95 01       		.byte	0x1
 4475 0f96 4E       		.byte	0x4e
 4476 0f97 B4010000 		.4byte	0x1b4
 4477 0f9b 05       		.uleb128 0x5
 4478 0f9c 03       		.byte	0x3
 4479 0f9d 00000000 		.4byte	data
 4480 0fa1 20       		.uleb128 0x20
 4481 0fa2 95000000 		.4byte	.LASF99
 4482 0fa6 01       		.byte	0x1
ARM GAS  C:\Users\austc\AppData\Local\Temp\ccREwTmP.s 			page 97


 4483 0fa7 4F       		.byte	0x4f
 4484 0fa8 8B020000 		.4byte	0x28b
 4485 0fac 05       		.uleb128 0x5
 4486 0fad 03       		.byte	0x3
 4487 0fae 00000000 		.4byte	message
 4488 0fb2 20       		.uleb128 0x20
 4489 0fb3 7E020000 		.4byte	.LASF100
 4490 0fb7 01       		.byte	0x1
 4491 0fb8 51       		.byte	0x51
 4492 0fb9 EA000000 		.4byte	0xea
 4493 0fbd 05       		.uleb128 0x5
 4494 0fbe 03       		.byte	0x3
 4495 0fbf 00000000 		.4byte	drive
 4496 0fc3 22       		.uleb128 0x22
 4497 0fc4 6E050000 		.4byte	.LASF101
 4498 0fc8 6E050000 		.4byte	.LASF101
 4499 0fcc 07       		.byte	0x7
 4500 0fcd 2A03     		.2byte	0x32a
 4501 0fcf 23       		.uleb128 0x23
 4502 0fd0 09050000 		.4byte	.LASF102
 4503 0fd4 09050000 		.4byte	.LASF102
 4504 0fd8 08       		.byte	0x8
 4505 0fd9 33       		.byte	0x33
 4506 0fda 22       		.uleb128 0x22
 4507 0fdb 17060000 		.4byte	.LASF103
 4508 0fdf 17060000 		.4byte	.LASF103
 4509 0fe3 09       		.byte	0x9
 4510 0fe4 3301     		.2byte	0x133
 4511 0fe6 23       		.uleb128 0x23
 4512 0fe7 8F060000 		.4byte	.LASF104
 4513 0feb 8F060000 		.4byte	.LASF104
 4514 0fef 06       		.byte	0x6
 4515 0ff0 C5       		.byte	0xc5
 4516 0ff1 23       		.uleb128 0x23
 4517 0ff2 D8030000 		.4byte	.LASF105
 4518 0ff6 D8030000 		.4byte	.LASF105
 4519 0ffa 0A       		.byte	0xa
 4520 0ffb 31       		.byte	0x31
 4521 0ffc 23       		.uleb128 0x23
 4522 0ffd 41060000 		.4byte	.LASF106
 4523 1001 41060000 		.4byte	.LASF106
 4524 1005 0B       		.byte	0xb
 4525 1006 5A       		.byte	0x5a
 4526 1007 23       		.uleb128 0x23
 4527 1008 60030000 		.4byte	.LASF107
 4528 100c 60030000 		.4byte	.LASF107
 4529 1010 0C       		.byte	0xc
 4530 1011 48       		.byte	0x48
 4531 1012 22       		.uleb128 0x22
 4532 1013 E3050000 		.4byte	.LASF108
 4533 1017 E3050000 		.4byte	.LASF108
 4534 101b 09       		.byte	0x9
 4535 101c 3201     		.2byte	0x132
 4536 101e 23       		.uleb128 0x23
 4537 101f 35050000 		.4byte	.LASF109
 4538 1023 35050000 		.4byte	.LASF109
 4539 1027 06       		.byte	0x6
ARM GAS  C:\Users\austc\AppData\Local\Temp\ccREwTmP.s 			page 98


 4540 1028 C8       		.byte	0xc8
 4541 1029 23       		.uleb128 0x23
 4542 102a 6E030000 		.4byte	.LASF110
 4543 102e 6E030000 		.4byte	.LASF110
 4544 1032 0D       		.byte	0xd
 4545 1033 BD       		.byte	0xbd
 4546 1034 23       		.uleb128 0x23
 4547 1035 9F060000 		.4byte	.LASF111
 4548 1039 9F060000 		.4byte	.LASF111
 4549 103d 0E       		.byte	0xe
 4550 103e 18       		.byte	0x18
 4551 103f 23       		.uleb128 0x23
 4552 1040 9D000000 		.4byte	.LASF112
 4553 1044 9D000000 		.4byte	.LASF112
 4554 1048 0F       		.byte	0xf
 4555 1049 18       		.byte	0x18
 4556 104a 23       		.uleb128 0x23
 4557 104b B2050000 		.4byte	.LASF113
 4558 104f B2050000 		.4byte	.LASF113
 4559 1053 10       		.byte	0x10
 4560 1054 72       		.byte	0x72
 4561 1055 23       		.uleb128 0x23
 4562 1056 7C040000 		.4byte	.LASF114
 4563 105a 7C040000 		.4byte	.LASF114
 4564 105e 11       		.byte	0x11
 4565 105f E7       		.byte	0xe7
 4566 1060 23       		.uleb128 0x23
 4567 1061 27050000 		.4byte	.LASF115
 4568 1065 27050000 		.4byte	.LASF115
 4569 1069 12       		.byte	0x12
 4570 106a 30       		.byte	0x30
 4571 106b 23       		.uleb128 0x23
 4572 106c 53010000 		.4byte	.LASF116
 4573 1070 53010000 		.4byte	.LASF116
 4574 1074 0A       		.byte	0xa
 4575 1075 30       		.byte	0x30
 4576 1076 23       		.uleb128 0x23
 4577 1077 E7020000 		.4byte	.LASF117
 4578 107b E7020000 		.4byte	.LASF117
 4579 107f 13       		.byte	0x13
 4580 1080 33       		.byte	0x33
 4581 1081 22       		.uleb128 0x22
 4582 1082 C0020000 		.4byte	.LASF118
 4583 1086 C0020000 		.4byte	.LASF118
 4584 108a 09       		.byte	0x9
 4585 108b 5501     		.2byte	0x155
 4586 108d 23       		.uleb128 0x23
 4587 108e A5020000 		.4byte	.LASF119
 4588 1092 A5020000 		.4byte	.LASF119
 4589 1096 0B       		.byte	0xb
 4590 1097 5E       		.byte	0x5e
 4591 1098 24       		.uleb128 0x24
 4592 1099 6E060000 		.4byte	.LASF131
 4593 109d 6E060000 		.4byte	.LASF131
 4594 10a1 23       		.uleb128 0x23
 4595 10a2 1D010000 		.4byte	.LASF120
 4596 10a6 1D010000 		.4byte	.LASF120
ARM GAS  C:\Users\austc\AppData\Local\Temp\ccREwTmP.s 			page 99


 4597 10aa 0C       		.byte	0xc
 4598 10ab 4F       		.byte	0x4f
 4599 10ac 23       		.uleb128 0x23
 4600 10ad 84020000 		.4byte	.LASF121
 4601 10b1 84020000 		.4byte	.LASF121
 4602 10b5 0C       		.byte	0xc
 4603 10b6 4E       		.byte	0x4e
 4604 10b7 22       		.uleb128 0x22
 4605 10b8 A6030000 		.4byte	.LASF122
 4606 10bc A6030000 		.4byte	.LASF122
 4607 10c0 06       		.byte	0x6
 4608 10c1 1801     		.2byte	0x118
 4609 10c3 23       		.uleb128 0x23
 4610 10c4 F3050000 		.4byte	.LASF123
 4611 10c8 F3050000 		.4byte	.LASF123
 4612 10cc 14       		.byte	0x14
 4613 10cd 33       		.byte	0x33
 4614 10ce 23       		.uleb128 0x23
 4615 10cf 00000000 		.4byte	.LASF124
 4616 10d3 00000000 		.4byte	.LASF124
 4617 10d7 0D       		.byte	0xd
 4618 10d8 D9       		.byte	0xd9
 4619 10d9 00       		.byte	0
 4620              		.section	.debug_abbrev,"",%progbits
 4621              	.Ldebug_abbrev0:
 4622 0000 01       		.uleb128 0x1
 4623 0001 11       		.uleb128 0x11
 4624 0002 01       		.byte	0x1
 4625 0003 25       		.uleb128 0x25
 4626 0004 0E       		.uleb128 0xe
 4627 0005 13       		.uleb128 0x13
 4628 0006 0B       		.uleb128 0xb
 4629 0007 03       		.uleb128 0x3
 4630 0008 0E       		.uleb128 0xe
 4631 0009 1B       		.uleb128 0x1b
 4632 000a 0E       		.uleb128 0xe
 4633 000b 55       		.uleb128 0x55
 4634 000c 17       		.uleb128 0x17
 4635 000d 11       		.uleb128 0x11
 4636 000e 01       		.uleb128 0x1
 4637 000f 10       		.uleb128 0x10
 4638 0010 17       		.uleb128 0x17
 4639 0011 00       		.byte	0
 4640 0012 00       		.byte	0
 4641 0013 02       		.uleb128 0x2
 4642 0014 24       		.uleb128 0x24
 4643 0015 00       		.byte	0
 4644 0016 0B       		.uleb128 0xb
 4645 0017 0B       		.uleb128 0xb
 4646 0018 3E       		.uleb128 0x3e
 4647 0019 0B       		.uleb128 0xb
 4648 001a 03       		.uleb128 0x3
 4649 001b 0E       		.uleb128 0xe
 4650 001c 00       		.byte	0
 4651 001d 00       		.byte	0
 4652 001e 03       		.uleb128 0x3
 4653 001f 16       		.uleb128 0x16
ARM GAS  C:\Users\austc\AppData\Local\Temp\ccREwTmP.s 			page 100


 4654 0020 00       		.byte	0
 4655 0021 03       		.uleb128 0x3
 4656 0022 0E       		.uleb128 0xe
 4657 0023 3A       		.uleb128 0x3a
 4658 0024 0B       		.uleb128 0xb
 4659 0025 3B       		.uleb128 0x3b
 4660 0026 0B       		.uleb128 0xb
 4661 0027 49       		.uleb128 0x49
 4662 0028 13       		.uleb128 0x13
 4663 0029 00       		.byte	0
 4664 002a 00       		.byte	0
 4665 002b 04       		.uleb128 0x4
 4666 002c 24       		.uleb128 0x24
 4667 002d 00       		.byte	0
 4668 002e 0B       		.uleb128 0xb
 4669 002f 0B       		.uleb128 0xb
 4670 0030 3E       		.uleb128 0x3e
 4671 0031 0B       		.uleb128 0xb
 4672 0032 03       		.uleb128 0x3
 4673 0033 08       		.uleb128 0x8
 4674 0034 00       		.byte	0
 4675 0035 00       		.byte	0
 4676 0036 05       		.uleb128 0x5
 4677 0037 16       		.uleb128 0x16
 4678 0038 00       		.byte	0
 4679 0039 03       		.uleb128 0x3
 4680 003a 0E       		.uleb128 0xe
 4681 003b 3A       		.uleb128 0x3a
 4682 003c 0B       		.uleb128 0xb
 4683 003d 3B       		.uleb128 0x3b
 4684 003e 05       		.uleb128 0x5
 4685 003f 49       		.uleb128 0x49
 4686 0040 13       		.uleb128 0x13
 4687 0041 00       		.byte	0
 4688 0042 00       		.byte	0
 4689 0043 06       		.uleb128 0x6
 4690 0044 35       		.uleb128 0x35
 4691 0045 00       		.byte	0
 4692 0046 49       		.uleb128 0x49
 4693 0047 13       		.uleb128 0x13
 4694 0048 00       		.byte	0
 4695 0049 00       		.byte	0
 4696 004a 07       		.uleb128 0x7
 4697 004b 13       		.uleb128 0x13
 4698 004c 01       		.byte	0x1
 4699 004d 03       		.uleb128 0x3
 4700 004e 0E       		.uleb128 0xe
 4701 004f 0B       		.uleb128 0xb
 4702 0050 0B       		.uleb128 0xb
 4703 0051 3A       		.uleb128 0x3a
 4704 0052 0B       		.uleb128 0xb
 4705 0053 3B       		.uleb128 0x3b
 4706 0054 0B       		.uleb128 0xb
 4707 0055 01       		.uleb128 0x1
 4708 0056 13       		.uleb128 0x13
 4709 0057 00       		.byte	0
 4710 0058 00       		.byte	0
ARM GAS  C:\Users\austc\AppData\Local\Temp\ccREwTmP.s 			page 101


 4711 0059 08       		.uleb128 0x8
 4712 005a 0D       		.uleb128 0xd
 4713 005b 00       		.byte	0
 4714 005c 03       		.uleb128 0x3
 4715 005d 08       		.uleb128 0x8
 4716 005e 3A       		.uleb128 0x3a
 4717 005f 0B       		.uleb128 0xb
 4718 0060 3B       		.uleb128 0x3b
 4719 0061 0B       		.uleb128 0xb
 4720 0062 49       		.uleb128 0x49
 4721 0063 13       		.uleb128 0x13
 4722 0064 38       		.uleb128 0x38
 4723 0065 0B       		.uleb128 0xb
 4724 0066 00       		.byte	0
 4725 0067 00       		.byte	0
 4726 0068 09       		.uleb128 0x9
 4727 0069 0D       		.uleb128 0xd
 4728 006a 00       		.byte	0
 4729 006b 03       		.uleb128 0x3
 4730 006c 0E       		.uleb128 0xe
 4731 006d 3A       		.uleb128 0x3a
 4732 006e 0B       		.uleb128 0xb
 4733 006f 3B       		.uleb128 0x3b
 4734 0070 0B       		.uleb128 0xb
 4735 0071 49       		.uleb128 0x49
 4736 0072 13       		.uleb128 0x13
 4737 0073 38       		.uleb128 0x38
 4738 0074 0B       		.uleb128 0xb
 4739 0075 00       		.byte	0
 4740 0076 00       		.byte	0
 4741 0077 0A       		.uleb128 0xa
 4742 0078 13       		.uleb128 0x13
 4743 0079 01       		.byte	0x1
 4744 007a 0B       		.uleb128 0xb
 4745 007b 0B       		.uleb128 0xb
 4746 007c 3A       		.uleb128 0x3a
 4747 007d 0B       		.uleb128 0xb
 4748 007e 3B       		.uleb128 0x3b
 4749 007f 0B       		.uleb128 0xb
 4750 0080 01       		.uleb128 0x1
 4751 0081 13       		.uleb128 0x13
 4752 0082 00       		.byte	0
 4753 0083 00       		.byte	0
 4754 0084 0B       		.uleb128 0xb
 4755 0085 01       		.uleb128 0x1
 4756 0086 01       		.byte	0x1
 4757 0087 49       		.uleb128 0x49
 4758 0088 13       		.uleb128 0x13
 4759 0089 01       		.uleb128 0x1
 4760 008a 13       		.uleb128 0x13
 4761 008b 00       		.byte	0
 4762 008c 00       		.byte	0
 4763 008d 0C       		.uleb128 0xc
 4764 008e 21       		.uleb128 0x21
 4765 008f 00       		.byte	0
 4766 0090 49       		.uleb128 0x49
 4767 0091 13       		.uleb128 0x13
ARM GAS  C:\Users\austc\AppData\Local\Temp\ccREwTmP.s 			page 102


 4768 0092 2F       		.uleb128 0x2f
 4769 0093 0B       		.uleb128 0xb
 4770 0094 00       		.byte	0
 4771 0095 00       		.byte	0
 4772 0096 0D       		.uleb128 0xd
 4773 0097 0F       		.uleb128 0xf
 4774 0098 00       		.byte	0
 4775 0099 0B       		.uleb128 0xb
 4776 009a 0B       		.uleb128 0xb
 4777 009b 49       		.uleb128 0x49
 4778 009c 13       		.uleb128 0x13
 4779 009d 00       		.byte	0
 4780 009e 00       		.byte	0
 4781 009f 0E       		.uleb128 0xe
 4782 00a0 2E       		.uleb128 0x2e
 4783 00a1 01       		.byte	0x1
 4784 00a2 3F       		.uleb128 0x3f
 4785 00a3 19       		.uleb128 0x19
 4786 00a4 03       		.uleb128 0x3
 4787 00a5 0E       		.uleb128 0xe
 4788 00a6 3A       		.uleb128 0x3a
 4789 00a7 0B       		.uleb128 0xb
 4790 00a8 3B       		.uleb128 0x3b
 4791 00a9 05       		.uleb128 0x5
 4792 00aa 27       		.uleb128 0x27
 4793 00ab 19       		.uleb128 0x19
 4794 00ac 20       		.uleb128 0x20
 4795 00ad 0B       		.uleb128 0xb
 4796 00ae 01       		.uleb128 0x1
 4797 00af 13       		.uleb128 0x13
 4798 00b0 00       		.byte	0
 4799 00b1 00       		.byte	0
 4800 00b2 0F       		.uleb128 0xf
 4801 00b3 05       		.uleb128 0x5
 4802 00b4 00       		.byte	0
 4803 00b5 03       		.uleb128 0x3
 4804 00b6 0E       		.uleb128 0xe
 4805 00b7 3A       		.uleb128 0x3a
 4806 00b8 0B       		.uleb128 0xb
 4807 00b9 3B       		.uleb128 0x3b
 4808 00ba 05       		.uleb128 0x5
 4809 00bb 49       		.uleb128 0x49
 4810 00bc 13       		.uleb128 0x13
 4811 00bd 00       		.byte	0
 4812 00be 00       		.byte	0
 4813 00bf 10       		.uleb128 0x10
 4814 00c0 2E       		.uleb128 0x2e
 4815 00c1 01       		.byte	0x1
 4816 00c2 3F       		.uleb128 0x3f
 4817 00c3 19       		.uleb128 0x19
 4818 00c4 03       		.uleb128 0x3
 4819 00c5 0E       		.uleb128 0xe
 4820 00c6 3A       		.uleb128 0x3a
 4821 00c7 0B       		.uleb128 0xb
 4822 00c8 3B       		.uleb128 0x3b
 4823 00c9 05       		.uleb128 0x5
 4824 00ca 27       		.uleb128 0x27
ARM GAS  C:\Users\austc\AppData\Local\Temp\ccREwTmP.s 			page 103


 4825 00cb 19       		.uleb128 0x19
 4826 00cc 11       		.uleb128 0x11
 4827 00cd 01       		.uleb128 0x1
 4828 00ce 12       		.uleb128 0x12
 4829 00cf 06       		.uleb128 0x6
 4830 00d0 40       		.uleb128 0x40
 4831 00d1 18       		.uleb128 0x18
 4832 00d2 9742     		.uleb128 0x2117
 4833 00d4 19       		.uleb128 0x19
 4834 00d5 01       		.uleb128 0x1
 4835 00d6 13       		.uleb128 0x13
 4836 00d7 00       		.byte	0
 4837 00d8 00       		.byte	0
 4838 00d9 11       		.uleb128 0x11
 4839 00da 1D       		.uleb128 0x1d
 4840 00db 01       		.byte	0x1
 4841 00dc 31       		.uleb128 0x31
 4842 00dd 13       		.uleb128 0x13
 4843 00de 11       		.uleb128 0x11
 4844 00df 01       		.uleb128 0x1
 4845 00e0 12       		.uleb128 0x12
 4846 00e1 06       		.uleb128 0x6
 4847 00e2 58       		.uleb128 0x58
 4848 00e3 0B       		.uleb128 0xb
 4849 00e4 59       		.uleb128 0x59
 4850 00e5 05       		.uleb128 0x5
 4851 00e6 01       		.uleb128 0x1
 4852 00e7 13       		.uleb128 0x13
 4853 00e8 00       		.byte	0
 4854 00e9 00       		.byte	0
 4855 00ea 12       		.uleb128 0x12
 4856 00eb 05       		.uleb128 0x5
 4857 00ec 00       		.byte	0
 4858 00ed 31       		.uleb128 0x31
 4859 00ee 13       		.uleb128 0x13
 4860 00ef 02       		.uleb128 0x2
 4861 00f0 17       		.uleb128 0x17
 4862 00f1 00       		.byte	0
 4863 00f2 00       		.byte	0
 4864 00f3 13       		.uleb128 0x13
 4865 00f4 898201   		.uleb128 0x4109
 4866 00f7 01       		.byte	0x1
 4867 00f8 11       		.uleb128 0x11
 4868 00f9 01       		.uleb128 0x1
 4869 00fa 31       		.uleb128 0x31
 4870 00fb 13       		.uleb128 0x13
 4871 00fc 01       		.uleb128 0x1
 4872 00fd 13       		.uleb128 0x13
 4873 00fe 00       		.byte	0
 4874 00ff 00       		.byte	0
 4875 0100 14       		.uleb128 0x14
 4876 0101 8A8201   		.uleb128 0x410a
 4877 0104 00       		.byte	0
 4878 0105 02       		.uleb128 0x2
 4879 0106 18       		.uleb128 0x18
 4880 0107 9142     		.uleb128 0x2111
 4881 0109 18       		.uleb128 0x18
ARM GAS  C:\Users\austc\AppData\Local\Temp\ccREwTmP.s 			page 104


 4882 010a 00       		.byte	0
 4883 010b 00       		.byte	0
 4884 010c 15       		.uleb128 0x15
 4885 010d 898201   		.uleb128 0x4109
 4886 0110 01       		.byte	0x1
 4887 0111 11       		.uleb128 0x11
 4888 0112 01       		.uleb128 0x1
 4889 0113 31       		.uleb128 0x31
 4890 0114 13       		.uleb128 0x13
 4891 0115 00       		.byte	0
 4892 0116 00       		.byte	0
 4893 0117 16       		.uleb128 0x16
 4894 0118 898201   		.uleb128 0x4109
 4895 011b 00       		.byte	0
 4896 011c 11       		.uleb128 0x11
 4897 011d 01       		.uleb128 0x1
 4898 011e 31       		.uleb128 0x31
 4899 011f 13       		.uleb128 0x13
 4900 0120 00       		.byte	0
 4901 0121 00       		.byte	0
 4902 0122 17       		.uleb128 0x17
 4903 0123 34       		.uleb128 0x34
 4904 0124 00       		.byte	0
 4905 0125 03       		.uleb128 0x3
 4906 0126 0E       		.uleb128 0xe
 4907 0127 3A       		.uleb128 0x3a
 4908 0128 0B       		.uleb128 0xb
 4909 0129 3B       		.uleb128 0x3b
 4910 012a 05       		.uleb128 0x5
 4911 012b 49       		.uleb128 0x49
 4912 012c 13       		.uleb128 0x13
 4913 012d 02       		.uleb128 0x2
 4914 012e 17       		.uleb128 0x17
 4915 012f 00       		.byte	0
 4916 0130 00       		.byte	0
 4917 0131 18       		.uleb128 0x18
 4918 0132 05       		.uleb128 0x5
 4919 0133 00       		.byte	0
 4920 0134 03       		.uleb128 0x3
 4921 0135 0E       		.uleb128 0xe
 4922 0136 3A       		.uleb128 0x3a
 4923 0137 0B       		.uleb128 0xb
 4924 0138 3B       		.uleb128 0x3b
 4925 0139 05       		.uleb128 0x5
 4926 013a 49       		.uleb128 0x49
 4927 013b 13       		.uleb128 0x13
 4928 013c 02       		.uleb128 0x2
 4929 013d 17       		.uleb128 0x17
 4930 013e 00       		.byte	0
 4931 013f 00       		.byte	0
 4932 0140 19       		.uleb128 0x19
 4933 0141 2E       		.uleb128 0x2e
 4934 0142 01       		.byte	0x1
 4935 0143 3F       		.uleb128 0x3f
 4936 0144 19       		.uleb128 0x19
 4937 0145 03       		.uleb128 0x3
 4938 0146 0E       		.uleb128 0xe
ARM GAS  C:\Users\austc\AppData\Local\Temp\ccREwTmP.s 			page 105


 4939 0147 3A       		.uleb128 0x3a
 4940 0148 0B       		.uleb128 0xb
 4941 0149 3B       		.uleb128 0x3b
 4942 014a 0B       		.uleb128 0xb
 4943 014b 27       		.uleb128 0x27
 4944 014c 19       		.uleb128 0x19
 4945 014d 11       		.uleb128 0x11
 4946 014e 01       		.uleb128 0x1
 4947 014f 12       		.uleb128 0x12
 4948 0150 06       		.uleb128 0x6
 4949 0151 40       		.uleb128 0x40
 4950 0152 18       		.uleb128 0x18
 4951 0153 9742     		.uleb128 0x2117
 4952 0155 19       		.uleb128 0x19
 4953 0156 01       		.uleb128 0x1
 4954 0157 13       		.uleb128 0x13
 4955 0158 00       		.byte	0
 4956 0159 00       		.byte	0
 4957 015a 1A       		.uleb128 0x1a
 4958 015b 34       		.uleb128 0x34
 4959 015c 00       		.byte	0
 4960 015d 03       		.uleb128 0x3
 4961 015e 0E       		.uleb128 0xe
 4962 015f 3A       		.uleb128 0x3a
 4963 0160 0B       		.uleb128 0xb
 4964 0161 3B       		.uleb128 0x3b
 4965 0162 0B       		.uleb128 0xb
 4966 0163 49       		.uleb128 0x49
 4967 0164 13       		.uleb128 0x13
 4968 0165 02       		.uleb128 0x2
 4969 0166 17       		.uleb128 0x17
 4970 0167 00       		.byte	0
 4971 0168 00       		.byte	0
 4972 0169 1B       		.uleb128 0x1b
 4973 016a 2E       		.uleb128 0x2e
 4974 016b 01       		.byte	0x1
 4975 016c 31       		.uleb128 0x31
 4976 016d 13       		.uleb128 0x13
 4977 016e 11       		.uleb128 0x11
 4978 016f 01       		.uleb128 0x1
 4979 0170 12       		.uleb128 0x12
 4980 0171 06       		.uleb128 0x6
 4981 0172 40       		.uleb128 0x40
 4982 0173 18       		.uleb128 0x18
 4983 0174 9742     		.uleb128 0x2117
 4984 0176 19       		.uleb128 0x19
 4985 0177 01       		.uleb128 0x1
 4986 0178 13       		.uleb128 0x13
 4987 0179 00       		.byte	0
 4988 017a 00       		.byte	0
 4989 017b 1C       		.uleb128 0x1c
 4990 017c 2E       		.uleb128 0x2e
 4991 017d 01       		.byte	0x1
 4992 017e 3F       		.uleb128 0x3f
 4993 017f 19       		.uleb128 0x19
 4994 0180 03       		.uleb128 0x3
 4995 0181 0E       		.uleb128 0xe
ARM GAS  C:\Users\austc\AppData\Local\Temp\ccREwTmP.s 			page 106


 4996 0182 3A       		.uleb128 0x3a
 4997 0183 0B       		.uleb128 0xb
 4998 0184 3B       		.uleb128 0x3b
 4999 0185 05       		.uleb128 0x5
 5000 0186 27       		.uleb128 0x27
 5001 0187 19       		.uleb128 0x19
 5002 0188 49       		.uleb128 0x49
 5003 0189 13       		.uleb128 0x13
 5004 018a 11       		.uleb128 0x11
 5005 018b 01       		.uleb128 0x1
 5006 018c 12       		.uleb128 0x12
 5007 018d 06       		.uleb128 0x6
 5008 018e 40       		.uleb128 0x40
 5009 018f 18       		.uleb128 0x18
 5010 0190 9642     		.uleb128 0x2116
 5011 0192 19       		.uleb128 0x19
 5012 0193 01       		.uleb128 0x1
 5013 0194 13       		.uleb128 0x13
 5014 0195 00       		.byte	0
 5015 0196 00       		.byte	0
 5016 0197 1D       		.uleb128 0x1d
 5017 0198 34       		.uleb128 0x34
 5018 0199 00       		.byte	0
 5019 019a 03       		.uleb128 0x3
 5020 019b 08       		.uleb128 0x8
 5021 019c 3A       		.uleb128 0x3a
 5022 019d 0B       		.uleb128 0xb
 5023 019e 3B       		.uleb128 0x3b
 5024 019f 05       		.uleb128 0x5
 5025 01a0 49       		.uleb128 0x49
 5026 01a1 13       		.uleb128 0x13
 5027 01a2 02       		.uleb128 0x2
 5028 01a3 17       		.uleb128 0x17
 5029 01a4 00       		.byte	0
 5030 01a5 00       		.byte	0
 5031 01a6 1E       		.uleb128 0x1e
 5032 01a7 2E       		.uleb128 0x2e
 5033 01a8 01       		.byte	0x1
 5034 01a9 3F       		.uleb128 0x3f
 5035 01aa 19       		.uleb128 0x19
 5036 01ab 03       		.uleb128 0x3
 5037 01ac 0E       		.uleb128 0xe
 5038 01ad 3A       		.uleb128 0x3a
 5039 01ae 0B       		.uleb128 0xb
 5040 01af 3B       		.uleb128 0x3b
 5041 01b0 0B       		.uleb128 0xb
 5042 01b1 27       		.uleb128 0x27
 5043 01b2 19       		.uleb128 0x19
 5044 01b3 49       		.uleb128 0x49
 5045 01b4 13       		.uleb128 0x13
 5046 01b5 8701     		.uleb128 0x87
 5047 01b7 19       		.uleb128 0x19
 5048 01b8 11       		.uleb128 0x11
 5049 01b9 01       		.uleb128 0x1
 5050 01ba 12       		.uleb128 0x12
 5051 01bb 06       		.uleb128 0x6
 5052 01bc 40       		.uleb128 0x40
ARM GAS  C:\Users\austc\AppData\Local\Temp\ccREwTmP.s 			page 107


 5053 01bd 18       		.uleb128 0x18
 5054 01be 9742     		.uleb128 0x2117
 5055 01c0 19       		.uleb128 0x19
 5056 01c1 01       		.uleb128 0x1
 5057 01c2 13       		.uleb128 0x13
 5058 01c3 00       		.byte	0
 5059 01c4 00       		.byte	0
 5060 01c5 1F       		.uleb128 0x1f
 5061 01c6 34       		.uleb128 0x34
 5062 01c7 00       		.byte	0
 5063 01c8 03       		.uleb128 0x3
 5064 01c9 08       		.uleb128 0x8
 5065 01ca 3A       		.uleb128 0x3a
 5066 01cb 0B       		.uleb128 0xb
 5067 01cc 3B       		.uleb128 0x3b
 5068 01cd 0B       		.uleb128 0xb
 5069 01ce 49       		.uleb128 0x49
 5070 01cf 13       		.uleb128 0x13
 5071 01d0 02       		.uleb128 0x2
 5072 01d1 17       		.uleb128 0x17
 5073 01d2 00       		.byte	0
 5074 01d3 00       		.byte	0
 5075 01d4 20       		.uleb128 0x20
 5076 01d5 34       		.uleb128 0x34
 5077 01d6 00       		.byte	0
 5078 01d7 03       		.uleb128 0x3
 5079 01d8 0E       		.uleb128 0xe
 5080 01d9 3A       		.uleb128 0x3a
 5081 01da 0B       		.uleb128 0xb
 5082 01db 3B       		.uleb128 0x3b
 5083 01dc 0B       		.uleb128 0xb
 5084 01dd 49       		.uleb128 0x49
 5085 01de 13       		.uleb128 0x13
 5086 01df 3F       		.uleb128 0x3f
 5087 01e0 19       		.uleb128 0x19
 5088 01e1 02       		.uleb128 0x2
 5089 01e2 18       		.uleb128 0x18
 5090 01e3 00       		.byte	0
 5091 01e4 00       		.byte	0
 5092 01e5 21       		.uleb128 0x21
 5093 01e6 34       		.uleb128 0x34
 5094 01e7 00       		.byte	0
 5095 01e8 03       		.uleb128 0x3
 5096 01e9 08       		.uleb128 0x8
 5097 01ea 3A       		.uleb128 0x3a
 5098 01eb 0B       		.uleb128 0xb
 5099 01ec 3B       		.uleb128 0x3b
 5100 01ed 0B       		.uleb128 0xb
 5101 01ee 49       		.uleb128 0x49
 5102 01ef 13       		.uleb128 0x13
 5103 01f0 3F       		.uleb128 0x3f
 5104 01f1 19       		.uleb128 0x19
 5105 01f2 02       		.uleb128 0x2
 5106 01f3 18       		.uleb128 0x18
 5107 01f4 00       		.byte	0
 5108 01f5 00       		.byte	0
 5109 01f6 22       		.uleb128 0x22
ARM GAS  C:\Users\austc\AppData\Local\Temp\ccREwTmP.s 			page 108


 5110 01f7 2E       		.uleb128 0x2e
 5111 01f8 00       		.byte	0
 5112 01f9 3F       		.uleb128 0x3f
 5113 01fa 19       		.uleb128 0x19
 5114 01fb 3C       		.uleb128 0x3c
 5115 01fc 19       		.uleb128 0x19
 5116 01fd 6E       		.uleb128 0x6e
 5117 01fe 0E       		.uleb128 0xe
 5118 01ff 03       		.uleb128 0x3
 5119 0200 0E       		.uleb128 0xe
 5120 0201 3A       		.uleb128 0x3a
 5121 0202 0B       		.uleb128 0xb
 5122 0203 3B       		.uleb128 0x3b
 5123 0204 05       		.uleb128 0x5
 5124 0205 00       		.byte	0
 5125 0206 00       		.byte	0
 5126 0207 23       		.uleb128 0x23
 5127 0208 2E       		.uleb128 0x2e
 5128 0209 00       		.byte	0
 5129 020a 3F       		.uleb128 0x3f
 5130 020b 19       		.uleb128 0x19
 5131 020c 3C       		.uleb128 0x3c
 5132 020d 19       		.uleb128 0x19
 5133 020e 6E       		.uleb128 0x6e
 5134 020f 0E       		.uleb128 0xe
 5135 0210 03       		.uleb128 0x3
 5136 0211 0E       		.uleb128 0xe
 5137 0212 3A       		.uleb128 0x3a
 5138 0213 0B       		.uleb128 0xb
 5139 0214 3B       		.uleb128 0x3b
 5140 0215 0B       		.uleb128 0xb
 5141 0216 00       		.byte	0
 5142 0217 00       		.byte	0
 5143 0218 24       		.uleb128 0x24
 5144 0219 2E       		.uleb128 0x2e
 5145 021a 00       		.byte	0
 5146 021b 3F       		.uleb128 0x3f
 5147 021c 19       		.uleb128 0x19
 5148 021d 3C       		.uleb128 0x3c
 5149 021e 19       		.uleb128 0x19
 5150 021f 6E       		.uleb128 0x6e
 5151 0220 0E       		.uleb128 0xe
 5152 0221 03       		.uleb128 0x3
 5153 0222 0E       		.uleb128 0xe
 5154 0223 00       		.byte	0
 5155 0224 00       		.byte	0
 5156 0225 00       		.byte	0
 5157              		.section	.debug_loc,"",%progbits
 5158              	.Ldebug_loc0:
 5159              	.LLST0:
 5160 0000 42000000 		.4byte	.LVL3
 5161 0004 44000000 		.4byte	.LVL4
 5162 0008 0100     		.2byte	0x1
 5163 000a 53       		.byte	0x53
 5164 000b 44000000 		.4byte	.LVL4
 5165 000f DE000000 		.4byte	.LVL5
 5166 0013 0500     		.2byte	0x5
ARM GAS  C:\Users\austc\AppData\Local\Temp\ccREwTmP.s 			page 109


 5167 0015 03       		.byte	0x3
 5168 0016 00000000 		.4byte	CAN_RX_MAILBOX_0
 5169 001a 00000000 		.4byte	0
 5170 001e 00000000 		.4byte	0
 5171              	.LLST1:
 5172 0022 1A010000 		.4byte	.LVL8
 5173 0026 1C010000 		.4byte	.LVL9
 5174 002a 0100     		.2byte	0x1
 5175 002c 53       		.byte	0x53
 5176 002d 1C010000 		.4byte	.LVL9
 5177 0031 B6010000 		.4byte	.LVL10
 5178 0035 0500     		.2byte	0x5
 5179 0037 03       		.byte	0x3
 5180 0038 00000000 		.4byte	CAN_RX_MAILBOX_1
 5181 003c 00000000 		.4byte	0
 5182 0040 00000000 		.4byte	0
 5183              	.LLST2:
 5184 0044 08000000 		.4byte	.LVL13
 5185 0048 0B000000 		.4byte	.LVL14-1
 5186 004c 0100     		.2byte	0x1
 5187 004e 50       		.byte	0x50
 5188 004f 0B000000 		.4byte	.LVL14-1
 5189 0053 50000000 		.4byte	.LVL25
 5190 0057 0100     		.2byte	0x1
 5191 0059 54       		.byte	0x54
 5192 005a 00000000 		.4byte	0
 5193 005e 00000000 		.4byte	0
 5194              	.LLST3:
 5195 0062 00000000 		.4byte	.LVL26
 5196 0066 02000000 		.4byte	.LVL27
 5197 006a 0100     		.2byte	0x1
 5198 006c 50       		.byte	0x50
 5199 006d 02000000 		.4byte	.LVL27
 5200 0071 1C000000 		.4byte	.LFE41
 5201 0075 0400     		.2byte	0x4
 5202 0077 F3       		.byte	0xf3
 5203 0078 01       		.uleb128 0x1
 5204 0079 50       		.byte	0x50
 5205 007a 9F       		.byte	0x9f
 5206 007b 00000000 		.4byte	0
 5207 007f 00000000 		.4byte	0
 5208              	.LLST4:
 5209 0083 0A000000 		.4byte	.LVL29
 5210 0087 48010000 		.4byte	.LVL49
 5211 008b 0100     		.2byte	0x1
 5212 008d 55       		.byte	0x55
 5213 008e 00000000 		.4byte	0
 5214 0092 00000000 		.4byte	0
 5215              	.LLST5:
 5216 0096 0A000000 		.4byte	.LVL29
 5217 009a 34000000 		.4byte	.LVL31
 5218 009e 0200     		.2byte	0x2
 5219 00a0 30       		.byte	0x30
 5220 00a1 9F       		.byte	0x9f
 5221 00a2 34000000 		.4byte	.LVL31
 5222 00a6 54000000 		.4byte	.LVL32
 5223 00aa 0200     		.2byte	0x2
ARM GAS  C:\Users\austc\AppData\Local\Temp\ccREwTmP.s 			page 110


 5224 00ac 31       		.byte	0x31
 5225 00ad 9F       		.byte	0x9f
 5226 00ae 54000000 		.4byte	.LVL32
 5227 00b2 5A000000 		.4byte	.LVL33
 5228 00b6 0200     		.2byte	0x2
 5229 00b8 30       		.byte	0x30
 5230 00b9 9F       		.byte	0x9f
 5231 00ba 5A000000 		.4byte	.LVL33
 5232 00be 68000000 		.4byte	.LVL34
 5233 00c2 0200     		.2byte	0x2
 5234 00c4 32       		.byte	0x32
 5235 00c5 9F       		.byte	0x9f
 5236 00c6 68000000 		.4byte	.LVL34
 5237 00ca 72000000 		.4byte	.LVL35
 5238 00ce 0200     		.2byte	0x2
 5239 00d0 30       		.byte	0x30
 5240 00d1 9F       		.byte	0x9f
 5241 00d2 72000000 		.4byte	.LVL35
 5242 00d6 80000000 		.4byte	.LVL36
 5243 00da 0200     		.2byte	0x2
 5244 00dc 33       		.byte	0x33
 5245 00dd 9F       		.byte	0x9f
 5246 00de 80000000 		.4byte	.LVL36
 5247 00e2 8A000000 		.4byte	.LVL37
 5248 00e6 0200     		.2byte	0x2
 5249 00e8 30       		.byte	0x30
 5250 00e9 9F       		.byte	0x9f
 5251 00ea 8A000000 		.4byte	.LVL37
 5252 00ee AE000000 		.4byte	.LVL38
 5253 00f2 0200     		.2byte	0x2
 5254 00f4 34       		.byte	0x34
 5255 00f5 9F       		.byte	0x9f
 5256 00f6 AE000000 		.4byte	.LVL38
 5257 00fa B8000000 		.4byte	.LVL39
 5258 00fe 0200     		.2byte	0x2
 5259 0100 30       		.byte	0x30
 5260 0101 9F       		.byte	0x9f
 5261 0102 B8000000 		.4byte	.LVL39
 5262 0106 D8000000 		.4byte	.LVL40
 5263 010a 0200     		.2byte	0x2
 5264 010c 35       		.byte	0x35
 5265 010d 9F       		.byte	0x9f
 5266 010e D8000000 		.4byte	.LVL40
 5267 0112 DE000000 		.4byte	.LVL41
 5268 0116 0200     		.2byte	0x2
 5269 0118 30       		.byte	0x30
 5270 0119 9F       		.byte	0x9f
 5271 011a DE000000 		.4byte	.LVL41
 5272 011e EC000000 		.4byte	.LVL42
 5273 0122 0200     		.2byte	0x2
 5274 0124 36       		.byte	0x36
 5275 0125 9F       		.byte	0x9f
 5276 0126 EC000000 		.4byte	.LVL42
 5277 012a EE000000 		.4byte	.LVL43
 5278 012e 0200     		.2byte	0x2
 5279 0130 30       		.byte	0x30
 5280 0131 9F       		.byte	0x9f
ARM GAS  C:\Users\austc\AppData\Local\Temp\ccREwTmP.s 			page 111


 5281 0132 EE000000 		.4byte	.LVL43
 5282 0136 48010000 		.4byte	.LVL50
 5283 013a 0100     		.2byte	0x1
 5284 013c 56       		.byte	0x56
 5285 013d 00000000 		.4byte	0
 5286 0141 00000000 		.4byte	0
 5287              	.LLST6:
 5288 0145 00000000 		.4byte	.LVL51
 5289 0149 18000000 		.4byte	.LVL52
 5290 014d 0100     		.2byte	0x1
 5291 014f 50       		.byte	0x50
 5292 0150 18000000 		.4byte	.LVL52
 5293 0154 1B000000 		.4byte	.LVL53-1
 5294 0158 0100     		.2byte	0x1
 5295 015a 52       		.byte	0x52
 5296 015b 1B000000 		.4byte	.LVL53-1
 5297 015f 7A000000 		.4byte	.LVL66
 5298 0163 0100     		.2byte	0x1
 5299 0165 54       		.byte	0x54
 5300 0166 7A000000 		.4byte	.LVL66
 5301 016a 90000000 		.4byte	.LFE42
 5302 016e 0400     		.2byte	0x4
 5303 0170 F3       		.byte	0xf3
 5304 0171 01       		.uleb128 0x1
 5305 0172 50       		.byte	0x50
 5306 0173 9F       		.byte	0x9f
 5307 0174 00000000 		.4byte	0
 5308 0178 00000000 		.4byte	0
 5309              	.LLST7:
 5310 017c 38000000 		.4byte	.LVL55
 5311 0180 4A000000 		.4byte	.LVL56
 5312 0184 0100     		.2byte	0x1
 5313 0186 50       		.byte	0x50
 5314 0187 56000000 		.4byte	.LVL59
 5315 018b 68000000 		.4byte	.LVL60
 5316 018f 0100     		.2byte	0x1
 5317 0191 50       		.byte	0x50
 5318 0192 74000000 		.4byte	.LVL63
 5319 0196 76000000 		.4byte	.LVL64
 5320 019a 0100     		.2byte	0x1
 5321 019c 50       		.byte	0x50
 5322 019d 00000000 		.4byte	0
 5323 01a1 00000000 		.4byte	0
 5324              	.LLST8:
 5325 01a5 06000000 		.4byte	.LVL67
 5326 01a9 14000000 		.4byte	.LVL68
 5327 01ad 0100     		.2byte	0x1
 5328 01af 50       		.byte	0x50
 5329 01b0 14000000 		.4byte	.LVL68
 5330 01b4 17000000 		.4byte	.LVL69-1
 5331 01b8 0100     		.2byte	0x1
 5332 01ba 52       		.byte	0x52
 5333 01bb 00000000 		.4byte	0
 5334 01bf 00000000 		.4byte	0
 5335              	.LLST9:
 5336 01c3 08000000 		.4byte	.LVL76
 5337 01c7 14000000 		.4byte	.LVL77
ARM GAS  C:\Users\austc\AppData\Local\Temp\ccREwTmP.s 			page 112


 5338 01cb 0100     		.2byte	0x1
 5339 01cd 50       		.byte	0x50
 5340 01ce 00000000 		.4byte	0
 5341 01d2 00000000 		.4byte	0
 5342              	.LLST10:
 5343 01d6 00000000 		.4byte	.LVL88
 5344 01da 16000000 		.4byte	.LVL89
 5345 01de 0100     		.2byte	0x1
 5346 01e0 50       		.byte	0x50
 5347 01e1 16000000 		.4byte	.LVL89
 5348 01e5 19000000 		.4byte	.LVL90-1
 5349 01e9 0200     		.2byte	0x2
 5350 01eb 73       		.byte	0x73
 5351 01ec 01       		.sleb128 1
 5352 01ed 19000000 		.4byte	.LVL90-1
 5353 01f1 54000000 		.4byte	.LFE46
 5354 01f5 0400     		.2byte	0x4
 5355 01f7 F3       		.byte	0xf3
 5356 01f8 01       		.uleb128 0x1
 5357 01f9 50       		.byte	0x50
 5358 01fa 9F       		.byte	0x9f
 5359 01fb 00000000 		.4byte	0
 5360 01ff 00000000 		.4byte	0
 5361              	.LLST11:
 5362 0203 00000000 		.4byte	.LVL88
 5363 0207 19000000 		.4byte	.LVL90-1
 5364 020b 0100     		.2byte	0x1
 5365 020d 51       		.byte	0x51
 5366 020e 19000000 		.4byte	.LVL90-1
 5367 0212 54000000 		.4byte	.LFE46
 5368 0216 0400     		.2byte	0x4
 5369 0218 F3       		.byte	0xf3
 5370 0219 01       		.uleb128 0x1
 5371 021a 51       		.byte	0x51
 5372 021b 9F       		.byte	0x9f
 5373 021c 00000000 		.4byte	0
 5374 0220 00000000 		.4byte	0
 5375              	.LLST12:
 5376 0224 00000000 		.4byte	.LVL93
 5377 0228 02000000 		.4byte	.LVL94
 5378 022c 0100     		.2byte	0x1
 5379 022e 50       		.byte	0x50
 5380 022f 02000000 		.4byte	.LVL94
 5381 0233 B8000000 		.4byte	.LFE48
 5382 0237 0400     		.2byte	0x4
 5383 0239 F3       		.byte	0xf3
 5384 023a 01       		.uleb128 0x1
 5385 023b 50       		.byte	0x50
 5386 023c 9F       		.byte	0x9f
 5387 023d 00000000 		.4byte	0
 5388 0241 00000000 		.4byte	0
 5389              	.LLST13:
 5390 0245 00000000 		.4byte	.LVL95
 5391 0249 07000000 		.4byte	.LVL96-1
 5392 024d 0100     		.2byte	0x1
 5393 024f 50       		.byte	0x50
 5394 0250 07000000 		.4byte	.LVL96-1
ARM GAS  C:\Users\austc\AppData\Local\Temp\ccREwTmP.s 			page 113


 5395 0254 48000000 		.4byte	.LFE50
 5396 0258 0400     		.2byte	0x4
 5397 025a F3       		.byte	0xf3
 5398 025b 01       		.uleb128 0x1
 5399 025c 50       		.byte	0x50
 5400 025d 9F       		.byte	0x9f
 5401 025e 00000000 		.4byte	0
 5402 0262 00000000 		.4byte	0
 5403              	.LLST14:
 5404 0266 18000000 		.4byte	.LVL99
 5405 026a 2A000000 		.4byte	.LVL100
 5406 026e 0100     		.2byte	0x1
 5407 0270 50       		.byte	0x50
 5408 0271 2A000000 		.4byte	.LVL100
 5409 0275 2D000000 		.4byte	.LVL101-1
 5410 0279 0100     		.2byte	0x1
 5411 027b 53       		.byte	0x53
 5412 027c 2D000000 		.4byte	.LVL101-1
 5413 0280 36000000 		.4byte	.LVL103
 5414 0284 0100     		.2byte	0x1
 5415 0286 54       		.byte	0x54
 5416 0287 36000000 		.4byte	.LVL103
 5417 028b 48000000 		.4byte	.LFE50
 5418 028f 0100     		.2byte	0x1
 5419 0291 50       		.byte	0x50
 5420 0292 00000000 		.4byte	0
 5421 0296 00000000 		.4byte	0
 5422              	.LLST15:
 5423 029a 00000000 		.4byte	.LVL104
 5424 029e 09000000 		.4byte	.LVL105-1
 5425 02a2 0100     		.2byte	0x1
 5426 02a4 50       		.byte	0x50
 5427 02a5 09000000 		.4byte	.LVL105-1
 5428 02a9 16000000 		.4byte	.LVL107
 5429 02ad 0100     		.2byte	0x1
 5430 02af 54       		.byte	0x54
 5431 02b0 16000000 		.4byte	.LVL107
 5432 02b4 BC000000 		.4byte	.LFE51
 5433 02b8 0400     		.2byte	0x4
 5434 02ba F3       		.byte	0xf3
 5435 02bb 01       		.uleb128 0x1
 5436 02bc 50       		.byte	0x50
 5437 02bd 9F       		.byte	0x9f
 5438 02be 00000000 		.4byte	0
 5439 02c2 00000000 		.4byte	0
 5440              	.LLST16:
 5441 02c6 14000000 		.4byte	.LVL106
 5442 02ca 58000000 		.4byte	.LVL109
 5443 02ce 0100     		.2byte	0x1
 5444 02d0 52       		.byte	0x52
 5445 02d1 58000000 		.4byte	.LVL109
 5446 02d5 5F000000 		.4byte	.LVL110-1
 5447 02d9 0200     		.2byte	0x2
 5448 02db 91       		.byte	0x91
 5449 02dc 6C       		.sleb128 -20
 5450 02dd 96000000 		.4byte	.LVL116
 5451 02e1 98000000 		.4byte	.LVL117
ARM GAS  C:\Users\austc\AppData\Local\Temp\ccREwTmP.s 			page 114


 5452 02e5 0100     		.2byte	0x1
 5453 02e7 52       		.byte	0x52
 5454 02e8 00000000 		.4byte	0
 5455 02ec 00000000 		.4byte	0
 5456              	.LLST17:
 5457 02f0 16000000 		.4byte	.LVL107
 5458 02f4 74000000 		.4byte	.LVL113
 5459 02f8 0100     		.2byte	0x1
 5460 02fa 54       		.byte	0x54
 5461 02fb 96000000 		.4byte	.LVL116
 5462 02ff 98000000 		.4byte	.LVL117
 5463 0303 0100     		.2byte	0x1
 5464 0305 54       		.byte	0x54
 5465 0306 00000000 		.4byte	0
 5466 030a 00000000 		.4byte	0
 5467              	.LLST18:
 5468 030e 42000000 		.4byte	.LVL108
 5469 0312 96000000 		.4byte	.LVL116
 5470 0316 0100     		.2byte	0x1
 5471 0318 55       		.byte	0x55
 5472 0319 00000000 		.4byte	0
 5473 031d 00000000 		.4byte	0
 5474              	.LLST19:
 5475 0321 00000000 		.4byte	.LVL118
 5476 0325 16000000 		.4byte	.LVL119
 5477 0329 0100     		.2byte	0x1
 5478 032b 50       		.byte	0x50
 5479 032c 16000000 		.4byte	.LVL119
 5480 0330 7C000000 		.4byte	.LFE49
 5481 0334 0400     		.2byte	0x4
 5482 0336 F3       		.byte	0xf3
 5483 0337 01       		.uleb128 0x1
 5484 0338 50       		.byte	0x50
 5485 0339 9F       		.byte	0x9f
 5486 033a 00000000 		.4byte	0
 5487 033e 00000000 		.4byte	0
 5488              	.LLST20:
 5489 0342 2C000000 		.4byte	.LVL124
 5490 0346 3C000000 		.4byte	.LVL125
 5491 034a 0100     		.2byte	0x1
 5492 034c 50       		.byte	0x50
 5493 034d 3C000000 		.4byte	.LVL125
 5494 0351 3F000000 		.4byte	.LVL126-1
 5495 0355 0100     		.2byte	0x1
 5496 0357 52       		.byte	0x52
 5497 0358 3F000000 		.4byte	.LVL126-1
 5498 035c 66000000 		.4byte	.LVL131
 5499 0360 0100     		.2byte	0x1
 5500 0362 54       		.byte	0x54
 5501 0363 00000000 		.4byte	0
 5502 0367 00000000 		.4byte	0
 5503              	.LLST21:
 5504 036b 82010000 		.4byte	.LVL152
 5505 036f 97010000 		.4byte	.LVL153-1
 5506 0373 0600     		.2byte	0x6
 5507 0375 73       		.byte	0x73
 5508 0376 00       		.sleb128 0
ARM GAS  C:\Users\austc\AppData\Local\Temp\ccREwTmP.s 			page 115


 5509 0377 72       		.byte	0x72
 5510 0378 00       		.sleb128 0
 5511 0379 21       		.byte	0x21
 5512 037a 9F       		.byte	0x9f
 5513 037b 00000000 		.4byte	0
 5514 037f 00000000 		.4byte	0
 5515              	.LLST22:
 5516 0383 4E000000 		.4byte	.LVL137
 5517 0387 64000000 		.4byte	.LVL140
 5518 038b 0200     		.2byte	0x2
 5519 038d 30       		.byte	0x30
 5520 038e 9F       		.byte	0x9f
 5521 038f 64000000 		.4byte	.LVL140
 5522 0393 2C020000 		.4byte	.LVL160
 5523 0397 0100     		.2byte	0x1
 5524 0399 54       		.byte	0x54
 5525 039a 2E020000 		.4byte	.LVL161
 5526 039e 7C020000 		.4byte	.LFE37
 5527 03a2 0100     		.2byte	0x1
 5528 03a4 54       		.byte	0x54
 5529 03a5 00000000 		.4byte	0
 5530 03a9 00000000 		.4byte	0
 5531              		.section	.debug_aranges,"",%progbits
 5532 0000 9C000000 		.4byte	0x9c
 5533 0004 0200     		.2byte	0x2
 5534 0006 00000000 		.4byte	.Ldebug_info0
 5535 000a 04       		.byte	0x4
 5536 000b 00       		.byte	0
 5537 000c 0000     		.2byte	0
 5538 000e 0000     		.2byte	0
 5539 0010 00000000 		.4byte	.LFB47
 5540 0014 F8010000 		.4byte	.LFE47-.LFB47
 5541 0018 00000000 		.4byte	.LFB38
 5542 001c 14000000 		.4byte	.LFE38-.LFB38
 5543 0020 00000000 		.4byte	.LFB39
 5544 0024 6C000000 		.4byte	.LFE39-.LFB39
 5545 0028 00000000 		.4byte	.LFB41
 5546 002c 1C000000 		.4byte	.LFE41-.LFB41
 5547 0030 00000000 		.4byte	.LFB40
 5548 0034 88010000 		.4byte	.LFE40-.LFB40
 5549 0038 00000000 		.4byte	.LFB42
 5550 003c 90000000 		.4byte	.LFE42-.LFB42
 5551 0040 00000000 		.4byte	.LFB35
 5552 0044 64000000 		.4byte	.LFE35-.LFB35
 5553 0048 00000000 		.4byte	.LFB36
 5554 004c 3C000000 		.4byte	.LFE36-.LFB36
 5555 0050 00000000 		.4byte	.LFB43
 5556 0054 68000000 		.4byte	.LFE43-.LFB43
 5557 0058 00000000 		.4byte	.LFB44
 5558 005c 4C000000 		.4byte	.LFE44-.LFB44
 5559 0060 00000000 		.4byte	.LFB45
 5560 0064 4C000000 		.4byte	.LFE45-.LFB45
 5561 0068 00000000 		.4byte	.LFB46
 5562 006c 54000000 		.4byte	.LFE46-.LFB46
 5563 0070 00000000 		.4byte	.LFB48
 5564 0074 B8000000 		.4byte	.LFE48-.LFB48
 5565 0078 00000000 		.4byte	.LFB50
ARM GAS  C:\Users\austc\AppData\Local\Temp\ccREwTmP.s 			page 116


 5566 007c 48000000 		.4byte	.LFE50-.LFB50
 5567 0080 00000000 		.4byte	.LFB51
 5568 0084 BC000000 		.4byte	.LFE51-.LFB51
 5569 0088 00000000 		.4byte	.LFB49
 5570 008c 7C000000 		.4byte	.LFE49-.LFB49
 5571 0090 00000000 		.4byte	.LFB37
 5572 0094 7C020000 		.4byte	.LFE37-.LFB37
 5573 0098 00000000 		.4byte	0
 5574 009c 00000000 		.4byte	0
 5575              		.section	.debug_ranges,"",%progbits
 5576              	.Ldebug_ranges0:
 5577 0000 00000000 		.4byte	.LFB47
 5578 0004 F8010000 		.4byte	.LFE47
 5579 0008 00000000 		.4byte	.LFB38
 5580 000c 14000000 		.4byte	.LFE38
 5581 0010 00000000 		.4byte	.LFB39
 5582 0014 6C000000 		.4byte	.LFE39
 5583 0018 00000000 		.4byte	.LFB41
 5584 001c 1C000000 		.4byte	.LFE41
 5585 0020 00000000 		.4byte	.LFB40
 5586 0024 88010000 		.4byte	.LFE40
 5587 0028 00000000 		.4byte	.LFB42
 5588 002c 90000000 		.4byte	.LFE42
 5589 0030 00000000 		.4byte	.LFB35
 5590 0034 64000000 		.4byte	.LFE35
 5591 0038 00000000 		.4byte	.LFB36
 5592 003c 3C000000 		.4byte	.LFE36
 5593 0040 00000000 		.4byte	.LFB43
 5594 0044 68000000 		.4byte	.LFE43
 5595 0048 00000000 		.4byte	.LFB44
 5596 004c 4C000000 		.4byte	.LFE44
 5597 0050 00000000 		.4byte	.LFB45
 5598 0054 4C000000 		.4byte	.LFE45
 5599 0058 00000000 		.4byte	.LFB46
 5600 005c 54000000 		.4byte	.LFE46
 5601 0060 00000000 		.4byte	.LFB48
 5602 0064 B8000000 		.4byte	.LFE48
 5603 0068 00000000 		.4byte	.LFB50
 5604 006c 48000000 		.4byte	.LFE50
 5605 0070 00000000 		.4byte	.LFB51
 5606 0074 BC000000 		.4byte	.LFE51
 5607 0078 00000000 		.4byte	.LFB49
 5608 007c 7C000000 		.4byte	.LFE49
 5609 0080 00000000 		.4byte	.LFB37
 5610 0084 7C020000 		.4byte	.LFE37
 5611 0088 00000000 		.4byte	0
 5612 008c 00000000 		.4byte	0
 5613              		.section	.debug_line,"",%progbits
 5614              	.Ldebug_line0:
 5615 0000 3A050000 		.section	.debug_str,"MS",%progbits,1
 5615      02009502 
 5615      00000201 
 5615      FB0E0D00 
 5615      01010101 
 5616              	.LASF124:
 5617 0000 43794465 		.ascii	"CyDelay\000"
 5617      6C617900 
ARM GAS  C:\Users\austc\AppData\Local\Temp\ccREwTmP.s 			page 117


 5618              	.LASF127:
 5619 0008 433A5C55 		.ascii	"C:\\Users\\austc\\OneDrive\\Documents\\GitHub\\Elec"
 5619      73657273 
 5619      5C617573 
 5619      74635C4F 
 5619      6E654472 
 5620 0035 74726F6E 		.ascii	"tronics2018-19\\Psoc Arm\\Motor Board Rev2.cydsn\000"
 5620      69637332 
 5620      3031382D 
 5620      31395C50 
 5620      736F6320 
 5621              	.LASF126:
 5622 0064 6D61696E 		.ascii	"main.c\000"
 5622      2E6300
 5623              	.LASF71:
 5624 006b 43414E5F 		.ascii	"CAN_RX_MAILBOX_1_SHIFT\000"
 5624      52585F4D 
 5624      41494C42 
 5624      4F585F31 
 5624      5F534849 
 5625              	.LASF45:
 5626 0082 7365745F 		.ascii	"set_CAN_ID\000"
 5626      43414E5F 
 5626      494400
 5627              	.LASF62:
 5628 008d 64656772 		.ascii	"degrees\000"
 5628      65657300 
 5629              	.LASF99:
 5630 0095 6D657373 		.ascii	"message\000"
 5630      61676500 
 5631              	.LASF112:
 5632 009d 6973725F 		.ascii	"isr_period_StartEx\000"
 5632      70657269 
 5632      6F645F53 
 5632      74617274 
 5632      457800
 5633              	.LASF59:
 5634 00b0 43414E5F 		.ascii	"CAN_Send_Telemetry\000"
 5634      53656E64 
 5634      5F54656C 
 5634      656D6574 
 5634      727900
 5635              	.LASF8:
 5636 00c3 756E7369 		.ascii	"unsigned int\000"
 5636      676E6564 
 5636      20696E74 
 5636      00
 5637              	.LASF37:
 5638 00d0 7278616D 		.ascii	"rxamr\000"
 5638      7200
 5639              	.LASF89:
 5640 00d6 64697361 		.ascii	"disable_limit\000"
 5640      626C655F 
 5640      6C696D69 
 5640      7400
 5641              	.LASF15:
 5642 00e4 696E7431 		.ascii	"int16\000"
ARM GAS  C:\Users\austc\AppData\Local\Temp\ccREwTmP.s 			page 118


 5642      3600
 5643              	.LASF20:
 5644 00ea 72656738 		.ascii	"reg8\000"
 5644      00
 5645              	.LASF63:
 5646 00ef 64656772 		.ascii	"degrees_to_tick\000"
 5646      6565735F 
 5646      746F5F74 
 5646      69636B00 
 5647              	.LASF68:
 5648 00ff 6572726F 		.ascii	"error\000"
 5648      7200
 5649              	.LASF86:
 5650 0105 6D6F6465 		.ascii	"mode\000"
 5650      00
 5651              	.LASF33:
 5652 010a 43414E5F 		.ascii	"CAN_TX_MSG\000"
 5652      54585F4D 
 5652      534700
 5653              	.LASF48:
 5654 0115 73657474 		.ascii	"setting\000"
 5654      696E6700 
 5655              	.LASF120:
 5656 011d 51756164 		.ascii	"QuadDec_SetCounter\000"
 5656      4465635F 
 5656      53657443 
 5656      6F756E74 
 5656      657200
 5657              	.LASF16:
 5658 0130 666C6F61 		.ascii	"float\000"
 5658      7400
 5659              	.LASF49:
 5660 0136 73686966 		.ascii	"shift\000"
 5660      7400
 5661              	.LASF7:
 5662 013c 6C6F6E67 		.ascii	"long long unsigned int\000"
 5662      206C6F6E 
 5662      6720756E 
 5662      7369676E 
 5662      65642069 
 5663              	.LASF116:
 5664 0153 53746174 		.ascii	"Status_Reg_Switches_Read\000"
 5664      75735F52 
 5664      65675F53 
 5664      77697463 
 5664      6865735F 
 5665              	.LASF25:
 5666 016c 43616E5F 		.ascii	"Can_data\000"
 5666      64617461 
 5666      00
 5667              	.LASF81:
 5668 0175 66696E61 		.ascii	"final_angle\000"
 5668      6C5F616E 
 5668      676C6500 
 5669              	.LASF9:
 5670 0181 5F5F7569 		.ascii	"__uint16_t\000"
 5670      6E743136 
ARM GAS  C:\Users\austc\AppData\Local\Temp\ccREwTmP.s 			page 119


 5670      5F7400
 5671              	.LASF90:
 5672 018c 43616E5F 		.ascii	"Can_rx_pwm\000"
 5672      72785F70 
 5672      776D00
 5673              	.LASF26:
 5674 0197 4572726F 		.ascii	"Error\000"
 5674      7200
 5675              	.LASF125:
 5676 019d 474E5520 		.ascii	"GNU C11 5.4.1 20160609 (release) [ARM/embedded-5-br"
 5676      43313120 
 5676      352E342E 
 5676      31203230 
 5676      31363036 
 5677 01d0 616E6368 		.ascii	"anch revision 237715] -mcpu=cortex-m0 -mthumb -g -O"
 5677      20726576 
 5677      6973696F 
 5677      6E203233 
 5677      37373135 
 5678 0203 67202D66 		.ascii	"g -ffunction-sections -ffat-lto-objects\000"
 5678      66756E63 
 5678      74696F6E 
 5678      2D736563 
 5678      74696F6E 
 5679              	.LASF79:
 5680 022b 696E7661 		.ascii	"invalidate\000"
 5680      6C696461 
 5680      746500
 5681              	.LASF65:
 5682 0236 74617267 		.ascii	"target\000"
 5682      657400
 5683              	.LASF44:
 5684 023d 696E6974 		.ascii	"initialize\000"
 5684      69616C69 
 5684      7A6500
 5685              	.LASF87:
 5686 0248 73656E64 		.ascii	"send_data\000"
 5686      5F646174 
 5686      6100
 5687              	.LASF41:
 5688 0252 43414E5F 		.ascii	"CAN_RX_STRUCT\000"
 5688      52585F53 
 5688      54525543 
 5688      5400
 5689              	.LASF97:
 5690 0260 74784461 		.ascii	"txData\000"
 5690      746100
 5691              	.LASF57:
 5692 0267 43414E5F 		.ascii	"CAN_Send_Encoder\000"
 5692      53656E64 
 5692      5F456E63 
 5692      6F646572 
 5692      00
 5693              	.LASF92:
 5694 0278 7374616C 		.ascii	"stall\000"
 5694      6C00
 5695              	.LASF100:
ARM GAS  C:\Users\austc\AppData\Local\Temp\ccREwTmP.s 			page 120


 5696 027e 64726976 		.ascii	"drive\000"
 5696      6500
 5697              	.LASF121:
 5698 0284 51756164 		.ascii	"QuadDec_GetCounter\000"
 5698      4465635F 
 5698      47657443 
 5698      6F756E74 
 5698      657200
 5699              	.LASF27:
 5700 0297 636F6465 		.ascii	"code\000"
 5700      00
 5701              	.LASF84:
 5702 029c 636F6D70 		.ascii	"complete\000"
 5702      6C657465 
 5702      00
 5703              	.LASF119:
 5704 02a5 54696D65 		.ascii	"Timer_1_ReadStatusRegister\000"
 5704      725F315F 
 5704      52656164 
 5704      53746174 
 5704      75735265 
 5705              	.LASF118:
 5706 02c0 50574D5F 		.ascii	"PWM_Motor_WriteCompare\000"
 5706      4D6F746F 
 5706      725F5772 
 5706      69746543 
 5706      6F6D7061 
 5707              	.LASF58:
 5708 02d7 7469636B 		.ascii	"ticks\000"
 5708      7300
 5709              	.LASF47:
 5710 02dd 63616E5F 		.ascii	"can_start\000"
 5710      73746172 
 5710      7400
 5711              	.LASF117:
 5712 02e7 50696E5F 		.ascii	"Pin_Direction_Write\000"
 5712      44697265 
 5712      6374696F 
 5712      6E5F5772 
 5712      69746500 
 5713              	.LASF54:
 5714 02fb 50657269 		.ascii	"Period_Reset_Handler\000"
 5714      6F645F52 
 5714      65736574 
 5714      5F48616E 
 5714      646C6572 
 5715              	.LASF19:
 5716 0310 63686172 		.ascii	"char\000"
 5716      00
 5717              	.LASF30:
 5718 0315 43414E5F 		.ascii	"CAN_DATA_BYTES_MSG\000"
 5718      44415441 
 5718      5F425954 
 5718      45535F4D 
 5718      534700
 5719              	.LASF38:
 5720 0328 72786163 		.ascii	"rxacr\000"
ARM GAS  C:\Users\austc\AppData\Local\Temp\ccREwTmP.s 			page 121


 5720      7200
 5721              	.LASF61:
 5722 032e 43414E5F 		.ascii	"CAN_Send_Error\000"
 5722      53656E64 
 5722      5F457272 
 5722      6F7200
 5723              	.LASF39:
 5724 033d 7278616D 		.ascii	"rxamrd\000"
 5724      726400
 5725              	.LASF76:
 5726 0344 75617274 		.ascii	"uart_debug\000"
 5726      5F646562 
 5726      756700
 5727              	.LASF12:
 5728 034f 75696E74 		.ascii	"uint16\000"
 5728      313600
 5729              	.LASF98:
 5730 0356 64617461 		.ascii	"data\000"
 5730      00
 5731              	.LASF14:
 5732 035b 696E7438 		.ascii	"int8\000"
 5732      00
 5733              	.LASF107:
 5734 0360 51756164 		.ascii	"QuadDec_Start\000"
 5734      4465635F 
 5734      53746172 
 5734      7400
 5735              	.LASF110:
 5736 036e 4379496E 		.ascii	"CyIntSetVector\000"
 5736      74536574 
 5736      56656374 
 5736      6F7200
 5737              	.LASF53:
 5738 037d 73746174 		.ascii	"status\000"
 5738      757300
 5739              	.LASF18:
 5740 0384 63686172 		.ascii	"char8\000"
 5740      3800
 5741              	.LASF69:
 5742 038a 74696D65 		.ascii	"time_LED\000"
 5742      5F4C4544 
 5742      00
 5743              	.LASF40:
 5744 0393 72786163 		.ascii	"rxacrd\000"
 5744      726400
 5745              	.LASF78:
 5746 039a 70776D5F 		.ascii	"pwm_compare\000"
 5746      636F6D70 
 5746      61726500 
 5747              	.LASF122:
 5748 03a6 43414E5F 		.ascii	"CAN_SendMsg\000"
 5748      53656E64 
 5748      4D736700 
 5749              	.LASF43:
 5750 03b2 656D6572 		.ascii	"emergency_halt\000"
 5750      67656E63 
 5750      795F6861 
ARM GAS  C:\Users\austc\AppData\Local\Temp\ccREwTmP.s 			page 122


 5750      6C7400
 5751              	.LASF6:
 5752 03c1 6C6F6E67 		.ascii	"long long int\000"
 5752      206C6F6E 
 5752      6720696E 
 5752      7400
 5753              	.LASF128:
 5754 03cf 7365745F 		.ascii	"set_data\000"
 5754      64617461 
 5754      00
 5755              	.LASF105:
 5756 03d8 53746174 		.ascii	"Status_Reg_Switches_InterruptEnable\000"
 5756      75735F52 
 5756      65675F53 
 5756      77697463 
 5756      6865735F 
 5757              	.LASF80:
 5758 03fc 666C6970 		.ascii	"flipEncoder\000"
 5758      456E636F 
 5758      64657200 
 5759              	.LASF36:
 5760 0408 72786461 		.ascii	"rxdata\000"
 5760      746100
 5761              	.LASF28:
 5762 040f 70617261 		.ascii	"param\000"
 5762      6D00
 5763              	.LASF75:
 5764 0415 43414E5F 		.ascii	"CAN_TIMEOUT\000"
 5764      54494D45 
 5764      4F555400 
 5765              	.LASF31:
 5766 0421 43414E5F 		.ascii	"CAN_DATA_BYTES\000"
 5766      44415441 
 5766      5F425954 
 5766      455300
 5767              	.LASF52:
 5768 0430 636F6D70 		.ascii	"compare\000"
 5768      61726500 
 5769              	.LASF13:
 5770 0438 75696E74 		.ascii	"uint32\000"
 5770      333200
 5771              	.LASF88:
 5772 043f 6D6F6465 		.ascii	"model_req\000"
 5772      6C5F7265 
 5772      7100
 5773              	.LASF24:
 5774 0449 646F6E65 		.ascii	"done\000"
 5774      00
 5775              	.LASF46:
 5776 044e 696E6974 		.ascii	"initialize_can_addr\000"
 5776      69616C69 
 5776      7A655F63 
 5776      616E5F61 
 5776      64647200 
 5777              	.LASF82:
 5778 0462 6C617374 		.ascii	"lastp\000"
 5778      7000
ARM GAS  C:\Users\austc\AppData\Local\Temp\ccREwTmP.s 			page 123


 5779              	.LASF22:
 5780 0468 6C6F6E67 		.ascii	"long double\000"
 5780      20646F75 
 5780      626C6500 
 5781              	.LASF50:
 5782 0474 7365745F 		.ascii	"set_PWM\000"
 5782      50574D00 
 5783              	.LASF114:
 5784 047c 73707269 		.ascii	"sprintf\000"
 5784      6E746600 
 5785              	.LASF10:
 5786 0484 75696E74 		.ascii	"uint16_t\000"
 5786      31365F74 
 5786      00
 5787              	.LASF21:
 5788 048d 72656733 		.ascii	"reg32\000"
 5788      3200
 5789              	.LASF56:
 5790 0493 50696E5F 		.ascii	"Pin_Limit_Handler\000"
 5790      4C696D69 
 5790      745F4861 
 5790      6E646C65 
 5790      7200
 5791              	.LASF64:
 5792 04a5 706F7369 		.ascii	"position_PID\000"
 5792      74696F6E 
 5792      5F504944 
 5792      00
 5793              	.LASF42:
 5794 04b2 4953525F 		.ascii	"ISR_CAN\000"
 5794      43414E00 
 5795              	.LASF72:
 5796 04ba 43414E5F 		.ascii	"CAN_RX_MAILBOX_0_SHIFT\000"
 5796      52585F4D 
 5796      41494C42 
 5796      4F585F30 
 5796      5F534849 
 5797              	.LASF94:
 5798 04d1 696E7661 		.ascii	"invalid_arg\000"
 5798      6C69645F 
 5798      61726700 
 5799              	.LASF74:
 5800 04dd 43414E5F 		.ascii	"CAN_RX_MAILBOX_0\000"
 5800      52585F4D 
 5800      41494C42 
 5800      4F585F30 
 5800      00
 5801              	.LASF73:
 5802 04ee 43414E5F 		.ascii	"CAN_RX_MAILBOX_1\000"
 5802      52585F4D 
 5802      41494C42 
 5802      4F585F31 
 5802      00
 5803              	.LASF2:
 5804 04ff 73686F72 		.ascii	"short int\000"
 5804      7420696E 
 5804      7400
ARM GAS  C:\Users\austc\AppData\Local\Temp\ccREwTmP.s 			page 124


 5805              	.LASF102:
 5806 0509 54657374 		.ascii	"Test_LED_Write\000"
 5806      5F4C4544 
 5806      5F577269 
 5806      746500
 5807              	.LASF83:
 5808 0518 72617469 		.ascii	"ratio\000"
 5808      6F00
 5809              	.LASF4:
 5810 051e 6C6F6E67 		.ascii	"long int\000"
 5810      20696E74 
 5810      00
 5811              	.LASF115:
 5812 0527 43616E5F 		.ascii	"Can_addr_Read\000"
 5812      61646472 
 5812      5F526561 
 5812      6400
 5813              	.LASF109:
 5814 0535 43414E5F 		.ascii	"CAN_GlobalIntEnable\000"
 5814      476C6F62 
 5814      616C496E 
 5814      74456E61 
 5814      626C6500 
 5815              	.LASF67:
 5816 0549 7365745F 		.ascii	"set_Position\000"
 5816      506F7369 
 5816      74696F6E 
 5816      00
 5817              	.LASF60:
 5818 0556 43414E5F 		.ascii	"CAN_Send_Model\000"
 5818      53656E64 
 5818      5F4D6F64 
 5818      656C00
 5819              	.LASF51:
 5820 0565 7072696F 		.ascii	"priority\000"
 5820      72697479 
 5820      00
 5821              	.LASF101:
 5822 056e 55415254 		.ascii	"UART_UartPutString\000"
 5822      5F556172 
 5822      74507574 
 5822      53747269 
 5822      6E6700
 5823              	.LASF96:
 5824 0581 656D6572 		.ascii	"emergency\000"
 5824      67656E63 
 5824      7900
 5825              	.LASF70:
 5826 058b 6D657373 		.ascii	"message_id\000"
 5826      6167655F 
 5826      696400
 5827              	.LASF91:
 5828 0596 43616E5F 		.ascii	"Can_rx_angle\000"
 5828      72785F61 
 5828      6E676C65 
 5828      00
 5829              	.LASF93:
ARM GAS  C:\Users\austc\AppData\Local\Temp\ccREwTmP.s 			page 125


 5830 05a3 636F6D6D 		.ascii	"command_failed\000"
 5830      616E645F 
 5830      6661696C 
 5830      656400
 5831              	.LASF113:
 5832 05b2 55415254 		.ascii	"UART_Start\000"
 5832      5F537461 
 5832      727400
 5833              	.LASF23:
 5834 05bd 73697A65 		.ascii	"sizetype\000"
 5834      74797065 
 5834      00
 5835              	.LASF5:
 5836 05c6 6C6F6E67 		.ascii	"long unsigned int\000"
 5836      20756E73 
 5836      69676E65 
 5836      6420696E 
 5836      7400
 5837              	.LASF32:
 5838 05d8 43414E5F 		.ascii	"CAN_REG_32\000"
 5838      5245475F 
 5838      333200
 5839              	.LASF108:
 5840 05e3 50574D5F 		.ascii	"PWM_Motor_Start\000"
 5840      4D6F746F 
 5840      725F5374 
 5840      61727400 
 5841              	.LASF123:
 5842 05f3 4572726F 		.ascii	"Error_Write\000"
 5842      725F5772 
 5842      69746500 
 5843              	.LASF29:
 5844 05ff 62797465 		.ascii	"byte\000"
 5844      00
 5845              	.LASF35:
 5846 0604 72786964 		.ascii	"rxid\000"
 5846      00
 5847              	.LASF1:
 5848 0609 756E7369 		.ascii	"unsigned char\000"
 5848      676E6564 
 5848      20636861 
 5848      7200
 5849              	.LASF103:
 5850 0617 50574D5F 		.ascii	"PWM_Motor_Stop\000"
 5850      4D6F746F 
 5850      725F5374 
 5850      6F7000
 5851              	.LASF77:
 5852 0626 47454152 		.ascii	"GEAR_RATIO\000"
 5852      5F524154 
 5852      494F00
 5853              	.LASF34:
 5854 0631 7278636D 		.ascii	"rxcmd\000"
 5854      6400
 5855              	.LASF129:
 5856 0637 61646472 		.ascii	"addr\000"
 5856      00
ARM GAS  C:\Users\austc\AppData\Local\Temp\ccREwTmP.s 			page 126


 5857              	.LASF85:
 5858 063c 6D617856 		.ascii	"maxV\000"
 5858      00
 5859              	.LASF106:
 5860 0641 54696D65 		.ascii	"Timer_1_Start\000"
 5860      725F315F 
 5860      53746172 
 5860      7400
 5861              	.LASF0:
 5862 064f 7369676E 		.ascii	"signed char\000"
 5862      65642063 
 5862      68617200 
 5863              	.LASF3:
 5864 065b 73686F72 		.ascii	"short unsigned int\000"
 5864      7420756E 
 5864      7369676E 
 5864      65642069 
 5864      6E7400
 5865              	.LASF131:
 5866 066e 6D656D63 		.ascii	"memcpy\000"
 5866      707900
 5867              	.LASF130:
 5868 0675 6D61696E 		.ascii	"main\000"
 5868      00
 5869              	.LASF66:
 5870 067a 63757272 		.ascii	"current\000"
 5870      656E7400 
 5871              	.LASF11:
 5872 0682 75696E74 		.ascii	"uint8\000"
 5872      3800
 5873              	.LASF17:
 5874 0688 646F7562 		.ascii	"double\000"
 5874      6C6500
 5875              	.LASF104:
 5876 068f 43414E5F 		.ascii	"CAN_Start\000"
 5876      53746172 
 5876      7400
 5877              	.LASF55:
 5878 0699 74696D65 		.ascii	"timer\000"
 5878      7200
 5879              	.LASF111:
 5880 069f 6973725F 		.ascii	"isr_Limit_1_StartEx\000"
 5880      4C696D69 
 5880      745F315F 
 5880      53746172 
 5880      74457800 
 5881              	.LASF95:
 5882 06b3 6D61696C 		.ascii	"mailbox\000"
 5882      626F7800 
 5883              		.ident	"GCC: (GNU Tools for ARM Embedded Processors) 5.4.1 20160609 (release) [ARM/embedded-5-bran
