ARM GAS  C:\Users\austc\AppData\Local\Temp\ccPDHU8c.s 			page 1


   1              		.syntax unified
   2              		.cpu cortex-m0
   3              		.fpu softvfp
   4              		.eabi_attribute 20, 1
   5              		.eabi_attribute 21, 1
   6              		.eabi_attribute 23, 3
   7              		.eabi_attribute 24, 1
   8              		.eabi_attribute 25, 1
   9              		.eabi_attribute 26, 1
  10              		.eabi_attribute 30, 1
  11              		.eabi_attribute 34, 0
  12              		.eabi_attribute 18, 4
  13              		.thumb
  14              		.syntax unified
  15              		.file	"main.c"
  16              		.text
  17              	.Ltext0:
  18              		.cfi_sections	.debug_frame
  19              		.section	.text.ISR_CAN,"ax",%progbits
  20              		.align	2
  21              		.global	ISR_CAN
  22              		.code	16
  23              		.thumb_func
  24              		.type	ISR_CAN, %function
  25              	ISR_CAN:
  26              	.LFB47:
  27              		.file 1 "main.c"
   1:main.c        **** /* ========================================
   2:main.c        ****  *
   3:main.c        ****  * Copyright YOUR COMPANY, THE YEAR
   4:main.c        ****  * All Rights Reserved
   5:main.c        ****  * UNPUBLISHED, LICENSED SOFTWARE.
   6:main.c        ****  *
   7:main.c        ****  * CONFIDENTIAL AND PROPRIETARY INFORMATION
   8:main.c        ****  * WHICH IS THE PROPERTY OF your company.
   9:main.c        ****  *
  10:main.c        ****  * ========================================
  11:main.c        **** */
  12:main.c        **** #include <project.h>
  13:main.c        **** #include "cyapicallbacks.h"
  14:main.c        **** #include <stdio.h>
  15:main.c        **** 
  16:main.c        **** //CAN variables
  17:main.c        **** uint32 message_id = 0;
  18:main.c        **** #define MESSAGE_IDE             (0u)    /* Standard message */
  19:main.c        **** #define MESSAGE_IRQ             (0u)    /* No transmit IRQ */
  20:main.c        **** #define MESSAGE_RTR             (0u)    /* No RTR */
  21:main.c        **** uint16 CAN_RX_MAILBOX_1_SHIFT  = 0b1;
  22:main.c        **** uint32 CAN_RX_MAILBOX_0_SHIFT  = 0b10000000;
  23:main.c        **** uint16 CAN_RX_MAILBOX_1 = 0u;
  24:main.c        **** uint16 CAN_RX_MAILBOX_0 = 7u;
  25:main.c        **** int CAN_TIMEOUT;
  26:main.c        **** 
  27:main.c        **** CY_ISR_PROTO(ISR_CAN);
  28:main.c        **** 
  29:main.c        **** //Uart variables
  30:main.c        **** volatile uint8 uart_debug = 2;
ARM GAS  C:\Users\austc\AppData\Local\Temp\ccPDHU8c.s 			page 2


  31:main.c        **** #define TX_DATA_SIZE            (100u)
  32:main.c        **** #define PWM_PERIOD = 255;
  33:main.c        **** 
  34:main.c        **** 
  35:main.c        **** //drive varaible
  36:main.c        **** int GEAR_RATIO;
  37:main.c        **** int pwm_compare;
  38:main.c        **** uint8 invalidate = 0;
  39:main.c        **** 
  40:main.c        **** //PID varaibles
  41:main.c        **** int i = 0;
  42:main.c        **** int lastp = 0;
  43:main.c        **** int kp = 1;
  44:main.c        **** int ki = 1;
  45:main.c        **** int kd = 0;
  46:main.c        **** double ratio;
  47:main.c        **** uint8 complete = 0;
  48:main.c        **** uint8 maxV = 0;
  49:main.c        **** 
  50:main.c        **** //drive mode
  51:main.c        **** uint8 mode = 2;
  52:main.c        **** 
  53:main.c        **** //flags
  54:main.c        **** uint8 send_data = 1;
  55:main.c        **** uint8 model_req = 0;
  56:main.c        **** uint8 disable_limit = 0;
  57:main.c        **** 
  58:main.c        **** //Status and Data Structs
  59:main.c        **** struct Can_data Can_rx_pwm, Can_rx_angle;
  60:main.c        **** struct Error stall;
  61:main.c        **** struct Error command_failed;
  62:main.c        **** struct Error invalid_arg;
  63:main.c        **** 
  64:main.c        **** 
  65:main.c        **** int mailbox = 0x000;
  66:main.c        **** uint8 emergency = 0;
  67:main.c        **** char8 txData[TX_DATA_SIZE];
  68:main.c        **** /* Global variables used to store configuration and data for BASIC CAN mailbox */
  69:main.c        **** CAN_DATA_BYTES_MSG data;
  70:main.c        **** CAN_TX_MSG message;
  71:main.c        **** 
  72:main.c        **** volatile uint8 drive = 0;
  73:main.c        **** 
  74:main.c        **** 
  75:main.c        **** CY_ISR(Period_Reset_Handler) {
  76:main.c        ****     int timer = Timer_1_ReadStatusRegister();
  77:main.c        ****     if(uart_debug) {
  78:main.c        ****         sprintf(txData,"Period interupt triggerd %x\r\n", timer);
  79:main.c        ****         //UART_UartPutString(txData);
  80:main.c        ****     }
  81:main.c        ****     send_data = 1;
  82:main.c        ****     invalidate++;
  83:main.c        ****     if(invalidate >= 20){
  84:main.c        ****         set_PWM(0);   
  85:main.c        ****     }
  86:main.c        **** }
  87:main.c        **** 
ARM GAS  C:\Users\austc\AppData\Local\Temp\ccPDHU8c.s 			page 3


  88:main.c        **** CY_ISR(Pin_Limit_Handler){
  89:main.c        ****     if(uart_debug) {
  90:main.c        ****         sprintf(txData,"Limit interupt triggerd\r\n");
  91:main.c        ****         UART_UartPutString(txData);
  92:main.c        ****     }
  93:main.c        ****     set_PWM(pwm_compare);
  94:main.c        **** }
  95:main.c        **** 
  96:main.c        **** int main(void)
  97:main.c        **** {
  98:main.c        ****     stall.code = 0x01;
  99:main.c        ****     stall.done = 1;
 100:main.c        ****     command_failed.code = 0x02;
 101:main.c        ****     command_failed.done = 1;
 102:main.c        ****     invalid_arg.code = 0x03;
 103:main.c        ****     invalid_arg.done = 1;
 104:main.c        ****     uint8 error;
 105:main.c        ****         /* BASIC CAN mailbox configuration */
 106:main.c        ****     message.dlc = 5u;
 107:main.c        ****     message.ide = MESSAGE_IDE;
 108:main.c        ****     message.irq = MESSAGE_IRQ;
 109:main.c        ****     message.msg = &data;
 110:main.c        ****     message.rtr = MESSAGE_RTR;
 111:main.c        ****     
 112:main.c        ****     Can_rx_pwm.done = 1;
 113:main.c        ****     Can_rx_angle.done = 1;
 114:main.c        **** 
 115:main.c        ****     initialize();
 116:main.c        ****     initialize_can_addr();
 117:main.c        ****     int up = 0;
 118:main.c        ****     pwm_compare = 0;
 119:main.c        ****     set_PWM(0);
 120:main.c        ****     for(;;)
 121:main.c        ****     {
 122:main.c        ****         if(!emergency) {
 123:main.c        **** 
 124:main.c        ****             //Tests if there are still drive packets that still need to be done
 125:main.c        ****             drive = !Can_rx_pwm.done | !Can_rx_angle.done;
 126:main.c        ****             
 127:main.c        ****             //Handles Can drive recieve packets
 128:main.c        ****             if (drive)
 129:main.c        ****             {           
 130:main.c        ****                 //Mode 0 packets
 131:main.c        ****                 if(!Can_rx_pwm.done) {
 132:main.c        ****                     if(mode == 0) {
 133:main.c        ****                         if(uart_debug) {
 134:main.c        ****                             sprintf(txData, "B1: %d, B2: %d done %x\r\n",Can_rx_pwm.b1, Can_rx_pwm.
 135:main.c        ****                             UART_UartPutString(txData);
 136:main.c        ****                         }
 137:main.c        ****                         Can_rx_pwm.done = 1;
 138:main.c        ****                         if(Can_rx_pwm.b2 & 0b01) {
 139:main.c        ****                             set_PWM((int)Can_rx_pwm.b1);
 140:main.c        ****                         }
 141:main.c        ****                         else {
 142:main.c        ****                             set_PWM(-(int)Can_rx_pwm.b1);
 143:main.c        ****                         }
 144:main.c        ****                     } else {
ARM GAS  C:\Users\austc\AppData\Local\Temp\ccPDHU8c.s 			page 4


 145:main.c        ****                         command_failed.done = 0;
 146:main.c        ****                         command_failed.param = 0x02;
 147:main.c        ****                         if(uart_debug) {
 148:main.c        ****                             sprintf(txData, "Mode is not set to 0, mode is %d\r\n",mode);
 149:main.c        ****                             UART_UartPutString(txData);
 150:main.c        ****                         }
 151:main.c        ****                     }
 152:main.c        ****                 }
 153:main.c        ****                 
 154:main.c        ****                 // Mode 1 packets
 155:main.c        ****                 if(!Can_rx_angle.done){
 156:main.c        ****                     if(mode == 1){
 157:main.c        ****                         if(uart_debug) {
 158:main.c        ****                             sprintf(txData, "B1: %d, B3: %d done %x\r\n",Can_rx_angle.b1, Can_rx_an
 159:main.c        ****                             UART_UartPutString(txData);
 160:main.c        ****                         }
 161:main.c        ****                         Can_rx_angle.done = 1;
 162:main.c        ****                         complete = 0;
 163:main.c        ****                         maxV = Can_rx_angle.b3;
 164:main.c        ****                         i = 0;
 165:main.c        ****                         set_Position(Can_rx_angle.b1);
 166:main.c        ****                     }
 167:main.c        ****                     else {
 168:main.c        ****                         command_failed.done = 0;
 169:main.c        ****                         command_failed.param = 0x04;
 170:main.c        ****                         if(uart_debug) {
 171:main.c        ****                             sprintf(txData, "Mode is not set to 1, mode is %d\r\n", mode);
 172:main.c        ****                             UART_UartPutString(txData);
 173:main.c        ****                         }
 174:main.c        ****                     }
 175:main.c        ****                 }
 176:main.c        ****                 
 177:main.c        ****                 if(mode != 1 || mode != 0) {
 178:main.c        ****                     Can_rx_angle.done = 1;
 179:main.c        ****                     Can_rx_pwm.done = 1;
 180:main.c        ****                 }
 181:main.c        ****             }
 182:main.c        ****             
 183:main.c        ****             //Tests if there are any errors
 184:main.c        ****             error = !stall.done | !invalid_arg.done | !command_failed.done; 
 185:main.c        ****             
 186:main.c        ****             //sends errors over CAN
 187:main.c        ****             if(error){
 188:main.c        ****                 if(!stall.done) {
 189:main.c        ****                     CAN_Send_Error(stall.code, stall.param);
 190:main.c        ****                     stall.done = 1;
 191:main.c        ****                 }
 192:main.c        ****                 if(!invalid_arg.done) {
 193:main.c        ****                     CAN_Send_Error(invalid_arg.code, invalid_arg.param);
 194:main.c        ****                     invalid_arg.done = 1;
 195:main.c        ****                 }
 196:main.c        ****                 if(!command_failed.done) {
 197:main.c        ****                     CAN_Send_Error(command_failed.code, command_failed.param);
 198:main.c        ****                     command_failed.done = 1;
 199:main.c        ****                 }
 200:main.c        ****             }
 201:main.c        ****             
ARM GAS  C:\Users\austc\AppData\Local\Temp\ccPDHU8c.s 			page 5


 202:main.c        ****             //Sends periodic data
 203:main.c        ****             if(send_data) {
 204:main.c        ****                 if(uart_debug) {
 205:main.c        ****                     sprintf(txData,"\nSending Data... \r\n");
 206:main.c        ****                    // UART_UartPutString(txData);
 207:main.c        ****                 }
 208:main.c        ****                 CAN_Send_Encoder(); 
 209:main.c        ****                 send_data = 0;
 210:main.c        ****             }
 211:main.c        ****             
 212:main.c        ****             //Sends model
 213:main.c        ****             if(model_req) {
 214:main.c        ****                 CAN_Send_Model();
 215:main.c        ****                 model_req = 0;
 216:main.c        ****             }
 217:main.c        ****             //PWM test code
 218:main.c        ****            /* CyDelay(100);
 219:main.c        ****             if(up){
 220:main.c        ****                 pwm_compare += 10;
 221:main.c        ****             } else {
 222:main.c        ****                 pwm_compare -= 10;   
 223:main.c        ****             }
 224:main.c        ****             if(pwm_compare > 255) {
 225:main.c        ****                 up = 0;   
 226:main.c        ****             } else if (pwm_compare < -255) {
 227:main.c        ****                 up = 1;
 228:main.c        ****             }
 229:main.c        ****             set_PWM(pwm_compare);
 230:main.c        ****             */
 231:main.c        **** 
 232:main.c        ****         }
 233:main.c        ****     }
 234:main.c        **** }
 235:main.c        **** 
 236:main.c        **** void emergency_halt(void) {
 237:main.c        ****     PWM_Motor_Stop();
 238:main.c        ****     emergency = 1;
 239:main.c        ****     // stops all motors;
 240:main.c        ****     // waits for restart CAN signal.
 241:main.c        **** }
 242:main.c        **** 
 243:main.c        **** void initialize(void) {
 244:main.c        ****     int can_start = CAN_Start();
 245:main.c        ****     Status_Reg_Switches_InterruptEnable();
 246:main.c        ****     Timer_1_Start();
 247:main.c        ****    // ADC_SAR_Seq_1_Start();
 248:main.c        ****     //ADC_SAR_Seq_1_StartConvert();
 249:main.c        ****     QuadDec_Start();
 250:main.c        ****     PWM_Motor_Start();  
 251:main.c        ****     
 252:main.c        ****     CAN_GlobalIntEnable();
 253:main.c        ****     CyIntSetVector(CAN_ISR_NUMBER, ISR_CAN);
 254:main.c        ****     CyGlobalIntEnable; /* Enable global interrupts. */
 255:main.c        ****     isr_Limit_1_StartEx(Pin_Limit_Handler);
 256:main.c        ****     isr_period_StartEx(Period_Reset_Handler);
 257:main.c        ****     
 258:main.c        ****     if(uart_debug) {
ARM GAS  C:\Users\austc\AppData\Local\Temp\ccPDHU8c.s 			page 6


 259:main.c        ****         UART_Start();
 260:main.c        ****         sprintf(txData, "CAN_Start():  %u\r\n",can_start);
 261:main.c        ****         UART_UartPutString(txData); 
 262:main.c        ****     }
 263:main.c        **** }
 264:main.c        **** 
 265:main.c        **** //Recieve:
 266:main.c        **** //1 00010 10000 0x450 BBB to base rotation
 267:main.c        **** //1 00010 10001 0x451 
 268:main.c        **** //1 00010 10010 0x452
 269:main.c        **** //1 00010 10011 0x453
 270:main.c        **** //1 00010 10100 0x454
 271:main.c        **** //1 00010 10101 0x455
 272:main.c        **** //1 00010 10110 0x456
 273:main.c        **** //Send:
 274:main.c        **** //1 10000 00010 0x602 base rotation to BBB 
 275:main.c        **** //1 10001 00010 0x622 shoulder to BBB
 276:main.c        **** //1 10010 00010 0x642 elbow ""
 277:main.c        **** //1 10011 00010 0x662 forearm rotation ""
 278:main.c        **** //1 10100 00010 0x682 diff wrist 1 ""
 279:main.c        **** //1 10101 00010 0x6A2 diff wrist 2 ""
 280:main.c        **** //1 10110 00010 0x6C2 hand ""
 281:main.c        **** void initialize_can_addr(void) {
 282:main.c        ****     uint8 setting = Can_addr_Read();
 283:main.c        ****     uint8 shift = 0;
 284:main.c        ****     switch(Can_addr_Read()) {
 285:main.c        ****         case 0b000: //Base rotation
 286:main.c        ****             message_id = 0b10000;
 287:main.c        ****             shift = 0;
 288:main.c        ****             break;
 289:main.c        ****         case 0b001: // shoulder
 290:main.c        ****             message_id = 0b10001;
 291:main.c        ****             shift = 1;
 292:main.c        ****             break;
 293:main.c        ****         case 0b010: // elbow
 294:main.c        ****             message_id = 0b10010;
 295:main.c        ****             shift = 2;
 296:main.c        ****             ratio = 2.8;
 297:main.c        ****             break;
 298:main.c        ****         case 0b011: // forearm rotation
 299:main.c        ****             message_id = 0b10011;
 300:main.c        ****             disable_limit = 1;
 301:main.c        ****             shift = 3;
 302:main.c        ****             break;
 303:main.c        ****         case 0b100: // diff wrist 1
 304:main.c        ****             message_id = 0b10100;
 305:main.c        ****             disable_limit = 1;
 306:main.c        ****             shift = 4;
 307:main.c        ****             break;
 308:main.c        ****         case 0b101: // diff wrist 2
 309:main.c        ****             message_id = 0b10101;
 310:main.c        ****             disable_limit = 1;
 311:main.c        ****             shift = 5;
 312:main.c        ****             break;
 313:main.c        ****         case 0b110: // hand
 314:main.c        ****             message_id = 0b10110;
 315:main.c        ****             shift = 6;
ARM GAS  C:\Users\austc\AppData\Local\Temp\ccPDHU8c.s 			page 7


 316:main.c        ****             break;
 317:main.c        ****     }
 318:main.c        ****     
 319:main.c        ****     CAN_RX_MAILBOX_0_SHIFT = CAN_RX_MAILBOX_0_SHIFT << shift;
 320:main.c        ****     CAN_RX_MAILBOX_1_SHIFT = CAN_RX_MAILBOX_1_SHIFT << shift;
 321:main.c        ****     CAN_RX_MAILBOX_0 += shift;
 322:main.c        ****     CAN_RX_MAILBOX_1 += shift;
 323:main.c        ****     set_CAN_ID(0b1);
 324:main.c        ****     
 325:main.c        ****     if(uart_debug) {
 326:main.c        ****         sprintf(txData, "CAN dip setting:  %x Message ID: %ld\r\n",setting, message_id);
 327:main.c        ****         UART_UartPutString(txData); 
 328:main.c        ****         sprintf(txData, "Can shift: %d   P0Mailbox: %d P1Mailbox %d\r\n",shift, CAN_RX_MAILBOX_0, C
 329:main.c        ****         UART_UartPutString(txData); 
 330:main.c        ****     }
 331:main.c        **** }
 332:main.c        **** 
 333:main.c        **** void set_CAN_ID(uint32 priority) {
 334:main.c        ****     message.id = (priority << 10) | (message_id << 5) | 0b00010;
 335:main.c        **** }
 336:main.c        **** 
 337:main.c        ****     // takes between -255 and 255
 338:main.c        **** void set_PWM(int compare) {
 339:main.c        ****     invalidate = 0;
 340:main.c        ****     if (compare < -255 || compare > 255) { return; }
 341:main.c        ****     uint8 status = Status_Reg_Switches_Read();
 342:main.c        ****     if (compare < 0 ) {
 343:main.c        ****         if(!(status & 0b01) || disable_limit){
 344:main.c        ****             Pin_Direction_Write(0);
 345:main.c        ****             PWM_Motor_WriteCompare(-compare);
 346:main.c        ****         }
 347:main.c        ****     } else if (compare > 0 ){
 348:main.c        ****         if(!(status & 0b10) || disable_limit) {
 349:main.c        ****             Pin_Direction_Write(1);
 350:main.c        ****             PWM_Motor_WriteCompare(compare);
 351:main.c        ****         }
 352:main.c        ****     } else {
 353:main.c        ****         PWM_Motor_WriteCompare(0);   
 354:main.c        ****     }
 355:main.c        **** }
 356:main.c        **** 
 357:main.c        **** void CAN_Send_Encoder(void){
 358:main.c        ****     int16 ticks = QuadDec_GetCounter();
 359:main.c        ****     data.byte[0u] = 0x14u;
 360:main.c        ****     data.byte[1u] = LO8(ticks);
 361:main.c        ****     data.byte[2u] = HI8(ticks);
 362:main.c        ****     data.byte[3u] = 0;
 363:main.c        ****     data.byte[4u] = 0;
 364:main.c        ****     CAN_SendMsg(&message);
 365:main.c        ****     if(uart_debug == 2) {
 366:main.c        ****         sprintf(txData, "CAN_Send_Encoder: byte[0u] %x byte[1u] %x byte[2u] %x\n QuadDec Count %d\r
 367:main.c        ****             data.byte[0u],data.byte[1u],data.byte[2u],
 368:main.c        ****             QuadDec_GetCounter());
 369:main.c        ****         UART_UartPutString(txData);    
 370:main.c        ****     }
 371:main.c        **** }
 372:main.c        **** 
ARM GAS  C:\Users\austc\AppData\Local\Temp\ccPDHU8c.s 			page 8


 373:main.c        **** void CAN_Send_Telemetry(void) {
 374:main.c        ****     data.byte[0u] = 0x18u;
 375:main.c        ****     data.byte[1u] = 0;
 376:main.c        ****     data.byte[2u] = 0;
 377:main.c        ****     data.byte[3u] = 0;
 378:main.c        ****     data.byte[4u] = 0;
 379:main.c        ****     CAN_SendMsg(&message);
 380:main.c        ****     if(uart_debug == 2) {
 381:main.c        ****         sprintf(txData, "Telemerty: byte[0u] %x byte[1u] %x\r\n",(uint8)data.byte[0u],(uint8)data.b
 382:main.c        ****         UART_UartPutString(txData); 
 383:main.c        ****     }
 384:main.c        **** }
 385:main.c        **** 
 386:main.c        **** void CAN_Send_Model(void) {
 387:main.c        ****     data.byte[0u] = 0x12u;
 388:main.c        ****     data.byte[1u] = 0x00u;
 389:main.c        ****     data.byte[2u] = 0;
 390:main.c        ****     data.byte[3u] = 0;
 391:main.c        ****     data.byte[4u] = 0;
 392:main.c        ****     CAN_SendMsg(&message);
 393:main.c        ****     if(uart_debug == 2) {
 394:main.c        ****         sprintf(txData, "Model: byte[0u] %x byte[1u] %x\r\n",data.byte[0u],data.byte[1u]);
 395:main.c        ****         UART_UartPutString(txData); 
 396:main.c        ****     }
 397:main.c        **** }
 398:main.c        **** 
 399:main.c        **** void CAN_Send_Error(uint8 code, uint8 param) {
 400:main.c        ****     data.byte[0u] = 0xffu;
 401:main.c        ****     data.byte[1u] = code;
 402:main.c        ****     data.byte[2u] = param;
 403:main.c        ****     data.byte[3u] = 0;
 404:main.c        ****     data.byte[4u] = 0;
 405:main.c        ****     CAN_SendMsg(&message);
 406:main.c        ****     if(uart_debug == 2) {
 407:main.c        ****         sprintf(txData, "Error: byte[0u] %x byte[1u] %x byte[2u] %x\r\n",data.byte[0u],data.byte[1u
 408:main.c        ****         UART_UartPutString(txData); 
 409:main.c        ****     }
 410:main.c        **** }
 411:main.c        **** 
 412:main.c        **** CY_ISR(ISR_CAN)
 413:main.c        **** {
  28              		.loc 1 413 0
  29              		.cfi_startproc
  30              		@ args = 0, pretend = 0, frame = 0
  31              		@ frame_needed = 0, uses_anonymous_args = 0
  32 0000 10B5     		push	{r4, lr}
  33              		.cfi_def_cfa_offset 8
  34              		.cfi_offset 4, -8
  35              		.cfi_offset 14, -4
 414:main.c        ****     /* Clear Receive Message flag */
 415:main.c        ****     CAN_INT_SR_REG = CAN_RX_MESSAGE_MASK;
  36              		.loc 1 415 0
  37 0002 8022     		movs	r2, #128
  38 0004 5201     		lsls	r2, r2, #5
  39 0006 694B     		ldr	r3, .L19
  40 0008 1A60     		str	r2, [r3]
 416:main.c        ****     if(uart_debug) {
ARM GAS  C:\Users\austc\AppData\Local\Temp\ccPDHU8c.s 			page 9


  41              		.loc 1 416 0
  42 000a 694B     		ldr	r3, .L19+4
  43 000c 1B78     		ldrb	r3, [r3]
  44 000e 002B     		cmp	r3, #0
  45 0010 02D0     		beq	.L2
 417:main.c        ****         UART_UartPutString("\n Can rx triggered\n");   
  46              		.loc 1 417 0
  47 0012 6848     		ldr	r0, .L19+8
  48 0014 FFF7FEFF 		bl	UART_UartPutString
  49              	.LVL0:
  50              	.L2:
 418:main.c        ****     }
 419:main.c        ****     /* Switch status message received */
 420:main.c        ****     if ((CAN_BUF_SR_REG & CAN_RX_MAILBOX_0_SHIFT) != 0u)
  51              		.loc 1 420 0
  52 0018 674B     		ldr	r3, .L19+12
  53 001a 1B68     		ldr	r3, [r3]
  54 001c 644A     		ldr	r2, .L19+4
  55 001e 5268     		ldr	r2, [r2, #4]
  56 0020 1A42     		tst	r2, r3
  57 0022 5DD0     		beq	.L3
 421:main.c        ****     {   
 422:main.c        ****         if(uart_debug){
  58              		.loc 1 422 0
  59 0024 624B     		ldr	r3, .L19+4
  60 0026 1B78     		ldrb	r3, [r3]
  61 0028 002B     		cmp	r3, #0
  62 002a 02D0     		beq	.L4
 423:main.c        ****             UART_UartPutString("P0 recieved\n");    
  63              		.loc 1 423 0
  64 002c 6348     		ldr	r0, .L19+16
  65 002e FFF7FEFF 		bl	UART_UartPutString
  66              	.LVL1:
  67              	.L4:
 424:main.c        ****         }
 425:main.c        ****         set_data(CAN_RX_MAILBOX_0);
  68              		.loc 1 425 0
  69 0032 5F4B     		ldr	r3, .L19+4
  70 0034 1B89     		ldrh	r3, [r3, #8]
  71              	.LVL2:
  72              	.LBB6:
  73              	.LBB7:
 426:main.c        **** 
 427:main.c        ****         /* Acknowledges receipt of new message */
 428:main.c        ****         CAN_RX_ACK_MESSAGE(CAN_RX_MAILBOX_0);
 429:main.c        ****     }
 430:main.c        **** 
 431:main.c        ****     if ((CAN_BUF_SR_REG & CAN_RX_MAILBOX_1_SHIFT) != 0u)
 432:main.c        ****     {
 433:main.c        ****         if(uart_debug){
 434:main.c        ****             UART_UartPutString("P1 recieved\n\n");    
 435:main.c        ****         }
 436:main.c        ****         set_data(CAN_RX_MAILBOX_1);
 437:main.c        ****         
 438:main.c        ****         /* Acknowledges receipt of new message */
 439:main.c        ****         CAN_RX_ACK_MESSAGE(CAN_RX_MAILBOX_1);
 440:main.c        ****     }
ARM GAS  C:\Users\austc\AppData\Local\Temp\ccPDHU8c.s 			page 10


 441:main.c        ****     
 442:main.c        **** }
 443:main.c        **** 
 444:main.c        **** inline void set_data(uint16 addr){
 445:main.c        ****         //set mode
 446:main.c        ****         if(CAN_RX_DATA_BYTE1(addr) == 0x00) {
  74              		.loc 1 446 0
  75 0036 5B01     		lsls	r3, r3, #5
  76              	.LVL3:
  77 0038 614A     		ldr	r2, .L19+20
  78 003a 9446     		mov	ip, r2
  79 003c 6344     		add	r3, r3, ip
  80 003e 9A68     		ldr	r2, [r3, #8]
  81 0040 120E     		lsrs	r2, r2, #24
  82 0042 13D1     		bne	.L5
 447:main.c        ****             if(CAN_RX_DATA_BYTE2(addr) == 1 || CAN_RX_DATA_BYTE2(addr) == 0) {
  83              		.loc 1 447 0
  84 0044 9A68     		ldr	r2, [r3, #8]
  85 0046 120C     		lsrs	r2, r2, #16
  86 0048 FF21     		movs	r1, #255
  87 004a 0A40     		ands	r2, r1
  88 004c 012A     		cmp	r2, #1
  89 004e 03D0     		beq	.L6
  90 0050 9A68     		ldr	r2, [r3, #8]
  91 0052 120C     		lsrs	r2, r2, #16
  92 0054 1142     		tst	r1, r2
  93 0056 04D1     		bne	.L7
  94              	.L6:
 448:main.c        ****                 mode = CAN_RX_DATA_BYTE2(addr);
  95              		.loc 1 448 0
  96 0058 9B68     		ldr	r3, [r3, #8]
  97 005a 1B0C     		lsrs	r3, r3, #16
  98 005c 544A     		ldr	r2, .L19+4
  99 005e 9372     		strb	r3, [r2, #10]
 100 0060 34E0     		b	.L8
 101              	.L7:
 449:main.c        ****             }
 450:main.c        ****             else {
 451:main.c        ****                 invalid_arg.param = 0x00;
 102              		.loc 1 451 0
 103 0062 584B     		ldr	r3, .L19+24
 104 0064 0022     		movs	r2, #0
 105 0066 5A70     		strb	r2, [r3, #1]
 452:main.c        ****                 invalid_arg.done = 0;
 106              		.loc 1 452 0
 107 0068 9A70     		strb	r2, [r3, #2]
 108 006a 2FE0     		b	.L8
 109              	.L5:
 453:main.c        ****             }
 454:main.c        ****         } 
 455:main.c        ****         //pwm
 456:main.c        ****         else if(CAN_RX_DATA_BYTE1(addr) == 0x02) {
 110              		.loc 1 456 0
 111 006c 9A68     		ldr	r2, [r3, #8]
 112 006e 120E     		lsrs	r2, r2, #24
 113 0070 022A     		cmp	r2, #2
 114 0072 0ED1     		bne	.L9
ARM GAS  C:\Users\austc\AppData\Local\Temp\ccPDHU8c.s 			page 11


 457:main.c        ****             Can_rx_pwm.b1 = CAN_RX_DATA_BYTE2(addr);
 115              		.loc 1 457 0
 116 0074 9968     		ldr	r1, [r3, #8]
 117 0076 090C     		lsrs	r1, r1, #16
 118 0078 534A     		ldr	r2, .L19+28
 119 007a 5170     		strb	r1, [r2, #1]
 458:main.c        ****             Can_rx_pwm.b2 = CAN_RX_DATA_BYTE3(addr);
 120              		.loc 1 458 0
 121 007c 9968     		ldr	r1, [r3, #8]
 122 007e 090A     		lsrs	r1, r1, #8
 123 0080 9170     		strb	r1, [r2, #2]
 459:main.c        ****             Can_rx_pwm.b3 = CAN_RX_DATA_BYTE4(addr);
 124              		.loc 1 459 0
 125 0082 9968     		ldr	r1, [r3, #8]
 126 0084 D170     		strb	r1, [r2, #3]
 460:main.c        ****             Can_rx_pwm.b4 = CAN_RX_DATA_BYTE5(addr);
 127              		.loc 1 460 0
 128 0086 DB68     		ldr	r3, [r3, #12]
 129 0088 1B0E     		lsrs	r3, r3, #24
 130 008a 1371     		strb	r3, [r2, #4]
 461:main.c        ****             Can_rx_pwm.done = 0;
 131              		.loc 1 461 0
 132 008c 0023     		movs	r3, #0
 133 008e 5371     		strb	r3, [r2, #5]
 134 0090 1CE0     		b	.L8
 135              	.L9:
 462:main.c        ****         } 
 463:main.c        ****         //angle
 464:main.c        ****         else if(CAN_RX_DATA_BYTE1(addr) == 0x04) {
 136              		.loc 1 464 0
 137 0092 9A68     		ldr	r2, [r3, #8]
 138 0094 120E     		lsrs	r2, r2, #24
 139 0096 042A     		cmp	r2, #4
 140 0098 11D1     		bne	.L10
 465:main.c        ****             Can_rx_angle.b1 = CAN_RX_DATA_BYTE2(addr);
 141              		.loc 1 465 0
 142 009a 9968     		ldr	r1, [r3, #8]
 143 009c 090C     		lsrs	r1, r1, #16
 144 009e 4B4A     		ldr	r2, .L19+32
 145 00a0 5170     		strb	r1, [r2, #1]
 466:main.c        ****             Can_rx_angle.b2 = CAN_RX_DATA_BYTE3(addr);
 146              		.loc 1 466 0
 147 00a2 9968     		ldr	r1, [r3, #8]
 148 00a4 090A     		lsrs	r1, r1, #8
 149 00a6 9170     		strb	r1, [r2, #2]
 467:main.c        ****             Can_rx_angle.b3 = CAN_RX_DATA_BYTE4(addr);
 150              		.loc 1 467 0
 151 00a8 9968     		ldr	r1, [r3, #8]
 152 00aa D170     		strb	r1, [r2, #3]
 468:main.c        ****             Can_rx_angle.b4 = CAN_RX_DATA_BYTE5(addr);
 153              		.loc 1 468 0
 154 00ac DB68     		ldr	r3, [r3, #12]
 155 00ae 1B0E     		lsrs	r3, r3, #24
 156 00b0 1371     		strb	r3, [r2, #4]
 469:main.c        ****             Can_rx_angle.done = 0;
 157              		.loc 1 469 0
 158 00b2 0023     		movs	r3, #0
ARM GAS  C:\Users\austc\AppData\Local\Temp\ccPDHU8c.s 			page 12


 159 00b4 5371     		strb	r3, [r2, #5]
 470:main.c        ****             complete = 1;
 160              		.loc 1 470 0
 161 00b6 0122     		movs	r2, #1
 162 00b8 454B     		ldr	r3, .L19+36
 163 00ba 1A70     		strb	r2, [r3]
 164 00bc 06E0     		b	.L8
 165              	.L10:
 471:main.c        ****         } 
 472:main.c        ****         //model requst
 473:main.c        ****         else if (CAN_RX_DATA_BYTE1(addr) == 0x10){
 166              		.loc 1 473 0
 167 00be 9B68     		ldr	r3, [r3, #8]
 168 00c0 1B0E     		lsrs	r3, r3, #24
 169 00c2 102B     		cmp	r3, #16
 170 00c4 02D1     		bne	.L8
 474:main.c        ****             model_req = 1;
 171              		.loc 1 474 0
 172 00c6 0122     		movs	r2, #1
 173 00c8 414B     		ldr	r3, .L19+36
 174 00ca 5A70     		strb	r2, [r3, #1]
 175              	.L8:
 176              	.LVL4:
 177              	.LBE7:
 178              	.LBE6:
 428:main.c        ****     }
 179              		.loc 1 428 0
 180 00cc 384B     		ldr	r3, .L19+4
 181 00ce 1B89     		ldrh	r3, [r3, #8]
 182 00d0 5B01     		lsls	r3, r3, #5
 183 00d2 3B4A     		ldr	r2, .L19+20
 184 00d4 9446     		mov	ip, r2
 185 00d6 6344     		add	r3, r3, ip
 186 00d8 1968     		ldr	r1, [r3]
 187 00da 0122     		movs	r2, #1
 188 00dc 0A43     		orrs	r2, r1
 189 00de 1A60     		str	r2, [r3]
 190              	.L3:
 431:main.c        ****     {
 191              		.loc 1 431 0
 192 00e0 354B     		ldr	r3, .L19+12
 193 00e2 1A68     		ldr	r2, [r3]
 194 00e4 324B     		ldr	r3, .L19+4
 195 00e6 9B89     		ldrh	r3, [r3, #12]
 196 00e8 1A42     		tst	r2, r3
 197 00ea 5DD0     		beq	.L1
 433:main.c        ****             UART_UartPutString("P1 recieved\n\n");    
 198              		.loc 1 433 0
 199 00ec 304B     		ldr	r3, .L19+4
 200 00ee 1B78     		ldrb	r3, [r3]
 201 00f0 002B     		cmp	r3, #0
 202 00f2 02D0     		beq	.L12
 434:main.c        ****         }
 203              		.loc 1 434 0
 204 00f4 3748     		ldr	r0, .L19+40
 205 00f6 FFF7FEFF 		bl	UART_UartPutString
 206              	.LVL5:
ARM GAS  C:\Users\austc\AppData\Local\Temp\ccPDHU8c.s 			page 13


 207              	.L12:
 436:main.c        ****         
 208              		.loc 1 436 0
 209 00fa 354B     		ldr	r3, .L19+36
 210 00fc 5B88     		ldrh	r3, [r3, #2]
 211              	.LVL6:
 212              	.LBB8:
 213              	.LBB9:
 446:main.c        ****             if(CAN_RX_DATA_BYTE2(addr) == 1 || CAN_RX_DATA_BYTE2(addr) == 0) {
 214              		.loc 1 446 0
 215 00fe 5B01     		lsls	r3, r3, #5
 216              	.LVL7:
 217 0100 2F4A     		ldr	r2, .L19+20
 218 0102 9446     		mov	ip, r2
 219 0104 6344     		add	r3, r3, ip
 220 0106 9A68     		ldr	r2, [r3, #8]
 221 0108 120E     		lsrs	r2, r2, #24
 222 010a 13D1     		bne	.L13
 447:main.c        ****                 mode = CAN_RX_DATA_BYTE2(addr);
 223              		.loc 1 447 0
 224 010c 9A68     		ldr	r2, [r3, #8]
 225 010e 120C     		lsrs	r2, r2, #16
 226 0110 FF21     		movs	r1, #255
 227 0112 0A40     		ands	r2, r1
 228 0114 012A     		cmp	r2, #1
 229 0116 03D0     		beq	.L14
 230 0118 9A68     		ldr	r2, [r3, #8]
 231 011a 120C     		lsrs	r2, r2, #16
 232 011c 1142     		tst	r1, r2
 233 011e 04D1     		bne	.L15
 234              	.L14:
 448:main.c        ****             }
 235              		.loc 1 448 0
 236 0120 9B68     		ldr	r3, [r3, #8]
 237 0122 1B0C     		lsrs	r3, r3, #16
 238 0124 224A     		ldr	r2, .L19+4
 239 0126 9372     		strb	r3, [r2, #10]
 240 0128 34E0     		b	.L16
 241              	.L15:
 451:main.c        ****                 invalid_arg.done = 0;
 242              		.loc 1 451 0
 243 012a 264B     		ldr	r3, .L19+24
 244 012c 0022     		movs	r2, #0
 245 012e 5A70     		strb	r2, [r3, #1]
 452:main.c        ****             }
 246              		.loc 1 452 0
 247 0130 9A70     		strb	r2, [r3, #2]
 248 0132 2FE0     		b	.L16
 249              	.L13:
 456:main.c        ****             Can_rx_pwm.b1 = CAN_RX_DATA_BYTE2(addr);
 250              		.loc 1 456 0
 251 0134 9A68     		ldr	r2, [r3, #8]
 252 0136 120E     		lsrs	r2, r2, #24
 253 0138 022A     		cmp	r2, #2
 254 013a 0ED1     		bne	.L17
 457:main.c        ****             Can_rx_pwm.b2 = CAN_RX_DATA_BYTE3(addr);
 255              		.loc 1 457 0
ARM GAS  C:\Users\austc\AppData\Local\Temp\ccPDHU8c.s 			page 14


 256 013c 9968     		ldr	r1, [r3, #8]
 257 013e 090C     		lsrs	r1, r1, #16
 258 0140 214A     		ldr	r2, .L19+28
 259 0142 5170     		strb	r1, [r2, #1]
 458:main.c        ****             Can_rx_pwm.b3 = CAN_RX_DATA_BYTE4(addr);
 260              		.loc 1 458 0
 261 0144 9968     		ldr	r1, [r3, #8]
 262 0146 090A     		lsrs	r1, r1, #8
 263 0148 9170     		strb	r1, [r2, #2]
 459:main.c        ****             Can_rx_pwm.b4 = CAN_RX_DATA_BYTE5(addr);
 264              		.loc 1 459 0
 265 014a 9968     		ldr	r1, [r3, #8]
 266 014c D170     		strb	r1, [r2, #3]
 460:main.c        ****             Can_rx_pwm.done = 0;
 267              		.loc 1 460 0
 268 014e DB68     		ldr	r3, [r3, #12]
 269 0150 1B0E     		lsrs	r3, r3, #24
 270 0152 1371     		strb	r3, [r2, #4]
 461:main.c        ****         } 
 271              		.loc 1 461 0
 272 0154 0023     		movs	r3, #0
 273 0156 5371     		strb	r3, [r2, #5]
 274 0158 1CE0     		b	.L16
 275              	.L17:
 464:main.c        ****             Can_rx_angle.b1 = CAN_RX_DATA_BYTE2(addr);
 276              		.loc 1 464 0
 277 015a 9A68     		ldr	r2, [r3, #8]
 278 015c 120E     		lsrs	r2, r2, #24
 279 015e 042A     		cmp	r2, #4
 280 0160 11D1     		bne	.L18
 465:main.c        ****             Can_rx_angle.b2 = CAN_RX_DATA_BYTE3(addr);
 281              		.loc 1 465 0
 282 0162 9968     		ldr	r1, [r3, #8]
 283 0164 090C     		lsrs	r1, r1, #16
 284 0166 194A     		ldr	r2, .L19+32
 285 0168 5170     		strb	r1, [r2, #1]
 466:main.c        ****             Can_rx_angle.b3 = CAN_RX_DATA_BYTE4(addr);
 286              		.loc 1 466 0
 287 016a 9968     		ldr	r1, [r3, #8]
 288 016c 090A     		lsrs	r1, r1, #8
 289 016e 9170     		strb	r1, [r2, #2]
 467:main.c        ****             Can_rx_angle.b4 = CAN_RX_DATA_BYTE5(addr);
 290              		.loc 1 467 0
 291 0170 9968     		ldr	r1, [r3, #8]
 292 0172 D170     		strb	r1, [r2, #3]
 468:main.c        ****             Can_rx_angle.done = 0;
 293              		.loc 1 468 0
 294 0174 DB68     		ldr	r3, [r3, #12]
 295 0176 1B0E     		lsrs	r3, r3, #24
 296 0178 1371     		strb	r3, [r2, #4]
 469:main.c        ****             complete = 1;
 297              		.loc 1 469 0
 298 017a 0023     		movs	r3, #0
 299 017c 5371     		strb	r3, [r2, #5]
 470:main.c        ****         } 
 300              		.loc 1 470 0
 301 017e 0122     		movs	r2, #1
ARM GAS  C:\Users\austc\AppData\Local\Temp\ccPDHU8c.s 			page 15


 302 0180 134B     		ldr	r3, .L19+36
 303 0182 1A70     		strb	r2, [r3]
 304 0184 06E0     		b	.L16
 305              	.L18:
 473:main.c        ****             model_req = 1;
 306              		.loc 1 473 0
 307 0186 9B68     		ldr	r3, [r3, #8]
 308 0188 1B0E     		lsrs	r3, r3, #24
 309 018a 102B     		cmp	r3, #16
 310 018c 02D1     		bne	.L16
 311              		.loc 1 474 0
 312 018e 0122     		movs	r2, #1
 313 0190 0F4B     		ldr	r3, .L19+36
 314 0192 5A70     		strb	r2, [r3, #1]
 315              	.L16:
 316              	.LVL8:
 317              	.LBE9:
 318              	.LBE8:
 439:main.c        ****     }
 319              		.loc 1 439 0
 320 0194 0E4B     		ldr	r3, .L19+36
 321 0196 5B88     		ldrh	r3, [r3, #2]
 322 0198 5B01     		lsls	r3, r3, #5
 323 019a 094A     		ldr	r2, .L19+20
 324 019c 9446     		mov	ip, r2
 325 019e 6344     		add	r3, r3, ip
 326 01a0 1968     		ldr	r1, [r3]
 327 01a2 0122     		movs	r2, #1
 328 01a4 0A43     		orrs	r2, r1
 329 01a6 1A60     		str	r2, [r3]
 330              	.L1:
 442:main.c        **** 
 331              		.loc 1 442 0
 332              		@ sp needed
 333 01a8 10BD     		pop	{r4, pc}
 334              	.L20:
 335 01aa C046     		.align	2
 336              	.L19:
 337 01ac 00002F40 		.word	1076822016
 338 01b0 00000000 		.word	.LANCHOR0
 339 01b4 00000000 		.word	.LC1
 340 01b8 08002F40 		.word	1076822024
 341 01bc 14000000 		.word	.LC3
 342 01c0 A0002F40 		.word	1076822176
 343 01c4 00000000 		.word	invalid_arg
 344 01c8 00000000 		.word	Can_rx_pwm
 345 01cc 00000000 		.word	Can_rx_angle
 346 01d0 00000000 		.word	.LANCHOR1
 347 01d4 24000000 		.word	.LC9
 348              		.cfi_endproc
 349              	.LFE47:
 350              		.size	ISR_CAN, .-ISR_CAN
 351              		.section	.text.emergency_halt,"ax",%progbits
 352              		.align	2
 353              		.global	emergency_halt
 354              		.code	16
 355              		.thumb_func
ARM GAS  C:\Users\austc\AppData\Local\Temp\ccPDHU8c.s 			page 16


 356              		.type	emergency_halt, %function
 357              	emergency_halt:
 358              	.LFB38:
 236:main.c        ****     PWM_Motor_Stop();
 359              		.loc 1 236 0
 360              		.cfi_startproc
 361              		@ args = 0, pretend = 0, frame = 0
 362              		@ frame_needed = 0, uses_anonymous_args = 0
 363 0000 10B5     		push	{r4, lr}
 364              		.cfi_def_cfa_offset 8
 365              		.cfi_offset 4, -8
 366              		.cfi_offset 14, -4
 237:main.c        ****     emergency = 1;
 367              		.loc 1 237 0
 368 0002 FFF7FEFF 		bl	PWM_Motor_Stop
 369              	.LVL9:
 238:main.c        ****     // stops all motors;
 370              		.loc 1 238 0
 371 0006 0122     		movs	r2, #1
 372 0008 014B     		ldr	r3, .L22
 373 000a 1A71     		strb	r2, [r3, #4]
 241:main.c        **** 
 374              		.loc 1 241 0
 375              		@ sp needed
 376 000c 10BD     		pop	{r4, pc}
 377              	.L23:
 378 000e C046     		.align	2
 379              	.L22:
 380 0010 00000000 		.word	.LANCHOR1
 381              		.cfi_endproc
 382              	.LFE38:
 383              		.size	emergency_halt, .-emergency_halt
 384              		.section	.text.initialize,"ax",%progbits
 385              		.align	2
 386              		.global	initialize
 387              		.code	16
 388              		.thumb_func
 389              		.type	initialize, %function
 390              	initialize:
 391              	.LFB39:
 243:main.c        ****     int can_start = CAN_Start();
 392              		.loc 1 243 0
 393              		.cfi_startproc
 394              		@ args = 0, pretend = 0, frame = 0
 395              		@ frame_needed = 0, uses_anonymous_args = 0
 396 0000 70B5     		push	{r4, r5, r6, lr}
 397              		.cfi_def_cfa_offset 16
 398              		.cfi_offset 4, -16
 399              		.cfi_offset 5, -12
 400              		.cfi_offset 6, -8
 401              		.cfi_offset 14, -4
 244:main.c        ****     Status_Reg_Switches_InterruptEnable();
 402              		.loc 1 244 0
 403 0002 FFF7FEFF 		bl	CAN_Start
 404              	.LVL10:
 405 0006 0400     		movs	r4, r0
 406              	.LVL11:
ARM GAS  C:\Users\austc\AppData\Local\Temp\ccPDHU8c.s 			page 17


 245:main.c        ****     Timer_1_Start();
 407              		.loc 1 245 0
 408 0008 FFF7FEFF 		bl	Status_Reg_Switches_InterruptEnable
 409              	.LVL12:
 246:main.c        ****    // ADC_SAR_Seq_1_Start();
 410              		.loc 1 246 0
 411 000c FFF7FEFF 		bl	Timer_1_Start
 412              	.LVL13:
 249:main.c        ****     PWM_Motor_Start();  
 413              		.loc 1 249 0
 414 0010 FFF7FEFF 		bl	QuadDec_Start
 415              	.LVL14:
 250:main.c        ****     
 416              		.loc 1 250 0
 417 0014 FFF7FEFF 		bl	PWM_Motor_Start
 418              	.LVL15:
 252:main.c        ****     CyIntSetVector(CAN_ISR_NUMBER, ISR_CAN);
 419              		.loc 1 252 0
 420 0018 FFF7FEFF 		bl	CAN_GlobalIntEnable
 421              	.LVL16:
 253:main.c        ****     CyGlobalIntEnable; /* Enable global interrupts. */
 422              		.loc 1 253 0
 423 001c 0D49     		ldr	r1, .L26
 424 001e 1D20     		movs	r0, #29
 425 0020 FFF7FEFF 		bl	CyIntSetVector
 426              	.LVL17:
 254:main.c        ****     isr_Limit_1_StartEx(Pin_Limit_Handler);
 427              		.loc 1 254 0
 428              		.syntax divided
 429              	@ 254 "main.c" 1
 430 0024 62B6     		CPSIE   i
 431              	@ 0 "" 2
 255:main.c        ****     isr_period_StartEx(Period_Reset_Handler);
 432              		.loc 1 255 0
 433              		.thumb
 434              		.syntax unified
 435 0026 0C48     		ldr	r0, .L26+4
 436 0028 FFF7FEFF 		bl	isr_Limit_1_StartEx
 437              	.LVL18:
 256:main.c        ****     
 438              		.loc 1 256 0
 439 002c 0B48     		ldr	r0, .L26+8
 440 002e FFF7FEFF 		bl	isr_period_StartEx
 441              	.LVL19:
 258:main.c        ****         UART_Start();
 442              		.loc 1 258 0
 443 0032 0B4B     		ldr	r3, .L26+12
 444 0034 1B78     		ldrb	r3, [r3]
 445 0036 002B     		cmp	r3, #0
 446 0038 0AD0     		beq	.L24
 259:main.c        ****         sprintf(txData, "CAN_Start():  %u\r\n",can_start);
 447              		.loc 1 259 0
 448 003a FFF7FEFF 		bl	UART_Start
 449              	.LVL20:
 260:main.c        ****         UART_UartPutString(txData); 
 450              		.loc 1 260 0
 451 003e 094D     		ldr	r5, .L26+16
ARM GAS  C:\Users\austc\AppData\Local\Temp\ccPDHU8c.s 			page 18


 452 0040 2200     		movs	r2, r4
 453 0042 0949     		ldr	r1, .L26+20
 454 0044 2800     		movs	r0, r5
 455 0046 FFF7FEFF 		bl	sprintf
 456              	.LVL21:
 261:main.c        ****     }
 457              		.loc 1 261 0
 458 004a 2800     		movs	r0, r5
 459 004c FFF7FEFF 		bl	UART_UartPutString
 460              	.LVL22:
 461              	.L24:
 263:main.c        **** 
 462              		.loc 1 263 0
 463              		@ sp needed
 464              	.LVL23:
 465 0050 70BD     		pop	{r4, r5, r6, pc}
 466              	.L27:
 467 0052 C046     		.align	2
 468              	.L26:
 469 0054 00000000 		.word	ISR_CAN
 470 0058 00000000 		.word	Pin_Limit_Handler
 471 005c 00000000 		.word	Period_Reset_Handler
 472 0060 00000000 		.word	.LANCHOR0
 473 0064 00000000 		.word	txData
 474 0068 34000000 		.word	.LC16
 475              		.cfi_endproc
 476              	.LFE39:
 477              		.size	initialize, .-initialize
 478              		.section	.text.set_CAN_ID,"ax",%progbits
 479              		.align	2
 480              		.global	set_CAN_ID
 481              		.code	16
 482              		.thumb_func
 483              		.type	set_CAN_ID, %function
 484              	set_CAN_ID:
 485              	.LFB41:
 333:main.c        ****     message.id = (priority << 10) | (message_id << 5) | 0b00010;
 486              		.loc 1 333 0
 487              		.cfi_startproc
 488              		@ args = 0, pretend = 0, frame = 0
 489              		@ frame_needed = 0, uses_anonymous_args = 0
 490              		@ link register save eliminated.
 491              	.LVL24:
 334:main.c        **** }
 492              		.loc 1 334 0
 493 0000 8002     		lsls	r0, r0, #10
 494              	.LVL25:
 495 0002 044B     		ldr	r3, .L29
 496 0004 9B68     		ldr	r3, [r3, #8]
 497 0006 5B01     		lsls	r3, r3, #5
 498 0008 1843     		orrs	r0, r3
 499 000a 0223     		movs	r3, #2
 500 000c 1843     		orrs	r0, r3
 501 000e 024B     		ldr	r3, .L29+4
 502 0010 1860     		str	r0, [r3]
 335:main.c        **** 
 503              		.loc 1 335 0
ARM GAS  C:\Users\austc\AppData\Local\Temp\ccPDHU8c.s 			page 19


 504              		@ sp needed
 505 0012 7047     		bx	lr
 506              	.L30:
 507              		.align	2
 508              	.L29:
 509 0014 00000000 		.word	.LANCHOR1
 510 0018 00000000 		.word	message
 511              		.cfi_endproc
 512              	.LFE41:
 513              		.size	set_CAN_ID, .-set_CAN_ID
 514              		.section	.text.initialize_can_addr,"ax",%progbits
 515              		.align	2
 516              		.global	initialize_can_addr
 517              		.code	16
 518              		.thumb_func
 519              		.type	initialize_can_addr, %function
 520              	initialize_can_addr:
 521              	.LFB40:
 281:main.c        ****     uint8 setting = Can_addr_Read();
 522              		.loc 1 281 0
 523              		.cfi_startproc
 524              		@ args = 0, pretend = 0, frame = 0
 525              		@ frame_needed = 0, uses_anonymous_args = 0
 526 0000 F0B5     		push	{r4, r5, r6, r7, lr}
 527              		.cfi_def_cfa_offset 20
 528              		.cfi_offset 4, -20
 529              		.cfi_offset 5, -16
 530              		.cfi_offset 6, -12
 531              		.cfi_offset 7, -8
 532              		.cfi_offset 14, -4
 533 0002 83B0     		sub	sp, sp, #12
 534              		.cfi_def_cfa_offset 32
 282:main.c        ****     uint8 shift = 0;
 535              		.loc 1 282 0
 536 0004 FFF7FEFF 		bl	Can_addr_Read
 537              	.LVL26:
 538 0008 0500     		movs	r5, r0
 539              	.LVL27:
 284:main.c        ****         case 0b000: //Base rotation
 540              		.loc 1 284 0
 541 000a FFF7FEFF 		bl	Can_addr_Read
 542              	.LVL28:
 543 000e 0628     		cmp	r0, #6
 544 0010 31D8     		bhi	.L42
 545 0012 8000     		lsls	r0, r0, #2
 546 0014 2F4B     		ldr	r3, .L43
 547 0016 1B58     		ldr	r3, [r3, r0]
 548 0018 9F46     		mov	pc, r3
 549              		.section	.rodata
 550              		.align	2
 551              	.L34:
 552 0000 1A000000 		.word	.L33
 553 0004 24000000 		.word	.L35
 554 0008 2E000000 		.word	.L36
 555 000c 42000000 		.word	.L37
 556 0010 50000000 		.word	.L38
 557 0014 5E000000 		.word	.L39
ARM GAS  C:\Users\austc\AppData\Local\Temp\ccPDHU8c.s 			page 20


 558 0018 6C000000 		.word	.L40
 559              		.section	.text.initialize_can_addr
 560              	.L33:
 286:main.c        ****             shift = 0;
 561              		.loc 1 286 0
 562 001a 1022     		movs	r2, #16
 563 001c 2E4B     		ldr	r3, .L43+4
 564 001e 9A60     		str	r2, [r3, #8]
 287:main.c        ****             break;
 565              		.loc 1 287 0
 566 0020 0026     		movs	r6, #0
 288:main.c        ****         case 0b001: // shoulder
 567              		.loc 1 288 0
 568 0022 29E0     		b	.L32
 569              	.L35:
 290:main.c        ****             shift = 1;
 570              		.loc 1 290 0
 571 0024 1122     		movs	r2, #17
 572 0026 2C4B     		ldr	r3, .L43+4
 573 0028 9A60     		str	r2, [r3, #8]
 574              	.LVL29:
 291:main.c        ****             break;
 575              		.loc 1 291 0
 576 002a 0126     		movs	r6, #1
 292:main.c        ****         case 0b010: // elbow
 577              		.loc 1 292 0
 578 002c 24E0     		b	.L32
 579              	.LVL30:
 580              	.L36:
 294:main.c        ****             shift = 2;
 581              		.loc 1 294 0
 582 002e 1222     		movs	r2, #18
 583 0030 294B     		ldr	r3, .L43+4
 584 0032 9A60     		str	r2, [r3, #8]
 585              	.LVL31:
 296:main.c        ****             break;
 586              		.loc 1 296 0
 587 0034 2948     		ldr	r0, .L43+8
 588 0036 2A49     		ldr	r1, .L43+12
 589 0038 2A4B     		ldr	r3, .L43+16
 590 003a 1860     		str	r0, [r3]
 591 003c 5960     		str	r1, [r3, #4]
 295:main.c        ****             ratio = 2.8;
 592              		.loc 1 295 0
 593 003e 0226     		movs	r6, #2
 297:main.c        ****         case 0b011: // forearm rotation
 594              		.loc 1 297 0
 595 0040 1AE0     		b	.L32
 596              	.LVL32:
 597              	.L37:
 299:main.c        ****             disable_limit = 1;
 598              		.loc 1 299 0
 599 0042 254B     		ldr	r3, .L43+4
 600 0044 1322     		movs	r2, #19
 601 0046 9A60     		str	r2, [r3, #8]
 300:main.c        ****             shift = 3;
 602              		.loc 1 300 0
ARM GAS  C:\Users\austc\AppData\Local\Temp\ccPDHU8c.s 			page 21


 603 0048 123A     		subs	r2, r2, #18
 604 004a 1A73     		strb	r2, [r3, #12]
 605              	.LVL33:
 301:main.c        ****             break;
 606              		.loc 1 301 0
 607 004c 0326     		movs	r6, #3
 302:main.c        ****         case 0b100: // diff wrist 1
 608              		.loc 1 302 0
 609 004e 13E0     		b	.L32
 610              	.LVL34:
 611              	.L38:
 304:main.c        ****             disable_limit = 1;
 612              		.loc 1 304 0
 613 0050 214B     		ldr	r3, .L43+4
 614 0052 1422     		movs	r2, #20
 615 0054 9A60     		str	r2, [r3, #8]
 305:main.c        ****             shift = 4;
 616              		.loc 1 305 0
 617 0056 133A     		subs	r2, r2, #19
 618 0058 1A73     		strb	r2, [r3, #12]
 619              	.LVL35:
 306:main.c        ****             break;
 620              		.loc 1 306 0
 621 005a 0426     		movs	r6, #4
 307:main.c        ****         case 0b101: // diff wrist 2
 622              		.loc 1 307 0
 623 005c 0CE0     		b	.L32
 624              	.LVL36:
 625              	.L39:
 309:main.c        ****             disable_limit = 1;
 626              		.loc 1 309 0
 627 005e 1E4B     		ldr	r3, .L43+4
 628 0060 1522     		movs	r2, #21
 629 0062 9A60     		str	r2, [r3, #8]
 310:main.c        ****             shift = 5;
 630              		.loc 1 310 0
 631 0064 143A     		subs	r2, r2, #20
 632 0066 1A73     		strb	r2, [r3, #12]
 633              	.LVL37:
 311:main.c        ****             break;
 634              		.loc 1 311 0
 635 0068 0526     		movs	r6, #5
 312:main.c        ****         case 0b110: // hand
 636              		.loc 1 312 0
 637 006a 05E0     		b	.L32
 638              	.LVL38:
 639              	.L40:
 314:main.c        ****             shift = 6;
 640              		.loc 1 314 0
 641 006c 1622     		movs	r2, #22
 642 006e 1A4B     		ldr	r3, .L43+4
 643 0070 9A60     		str	r2, [r3, #8]
 644              	.LVL39:
 315:main.c        ****             break;
 645              		.loc 1 315 0
 646 0072 0626     		movs	r6, #6
 316:main.c        ****     }
ARM GAS  C:\Users\austc\AppData\Local\Temp\ccPDHU8c.s 			page 22


 647              		.loc 1 316 0
 648 0074 00E0     		b	.L32
 649              	.LVL40:
 650              	.L42:
 283:main.c        ****     switch(Can_addr_Read()) {
 651              		.loc 1 283 0
 652 0076 0026     		movs	r6, #0
 653              	.LVL41:
 654              	.L32:
 319:main.c        ****     CAN_RX_MAILBOX_1_SHIFT = CAN_RX_MAILBOX_1_SHIFT << shift;
 655              		.loc 1 319 0
 656 0078 1B4C     		ldr	r4, .L43+20
 657 007a 6368     		ldr	r3, [r4, #4]
 658 007c B340     		lsls	r3, r3, r6
 659 007e 6360     		str	r3, [r4, #4]
 320:main.c        ****     CAN_RX_MAILBOX_0 += shift;
 660              		.loc 1 320 0
 661 0080 A389     		ldrh	r3, [r4, #12]
 662 0082 B340     		lsls	r3, r3, r6
 663 0084 A381     		strh	r3, [r4, #12]
 321:main.c        ****     CAN_RX_MAILBOX_1 += shift;
 664              		.loc 1 321 0
 665 0086 B3B2     		uxth	r3, r6
 666 0088 2289     		ldrh	r2, [r4, #8]
 667 008a 9A18     		adds	r2, r3, r2
 668 008c 2281     		strh	r2, [r4, #8]
 322:main.c        ****     set_CAN_ID(0b1);
 669              		.loc 1 322 0
 670 008e 1249     		ldr	r1, .L43+4
 671 0090 4A88     		ldrh	r2, [r1, #2]
 672 0092 9B18     		adds	r3, r3, r2
 673 0094 4B80     		strh	r3, [r1, #2]
 323:main.c        ****     
 674              		.loc 1 323 0
 675 0096 0120     		movs	r0, #1
 676 0098 FFF7FEFF 		bl	set_CAN_ID
 677              	.LVL42:
 325:main.c        ****         sprintf(txData, "CAN dip setting:  %x Message ID: %ld\r\n",setting, message_id);
 678              		.loc 1 325 0
 679 009c 2378     		ldrb	r3, [r4]
 680 009e 002B     		cmp	r3, #0
 681 00a0 16D0     		beq	.L31
 326:main.c        ****         UART_UartPutString(txData); 
 682              		.loc 1 326 0
 683 00a2 0D4F     		ldr	r7, .L43+4
 684 00a4 114C     		ldr	r4, .L43+24
 685 00a6 BB68     		ldr	r3, [r7, #8]
 686 00a8 2A00     		movs	r2, r5
 687 00aa 1149     		ldr	r1, .L43+28
 688 00ac 2000     		movs	r0, r4
 689 00ae FFF7FEFF 		bl	sprintf
 690              	.LVL43:
 327:main.c        ****         sprintf(txData, "Can shift: %d   P0Mailbox: %d P1Mailbox %d\r\n",shift, CAN_RX_MAILBOX_0, C
 691              		.loc 1 327 0
 692 00b2 2000     		movs	r0, r4
 693 00b4 FFF7FEFF 		bl	UART_UartPutString
 694              	.LVL44:
ARM GAS  C:\Users\austc\AppData\Local\Temp\ccPDHU8c.s 			page 23


 328:main.c        ****         UART_UartPutString(txData); 
 695              		.loc 1 328 0
 696 00b8 0B4B     		ldr	r3, .L43+20
 697 00ba 1B89     		ldrh	r3, [r3, #8]
 698 00bc 7A88     		ldrh	r2, [r7, #2]
 699 00be 0092     		str	r2, [sp]
 700 00c0 3200     		movs	r2, r6
 701 00c2 0C49     		ldr	r1, .L43+32
 702 00c4 2000     		movs	r0, r4
 703 00c6 FFF7FEFF 		bl	sprintf
 704              	.LVL45:
 329:main.c        ****     }
 705              		.loc 1 329 0
 706 00ca 2000     		movs	r0, r4
 707 00cc FFF7FEFF 		bl	UART_UartPutString
 708              	.LVL46:
 709              	.L31:
 331:main.c        **** 
 710              		.loc 1 331 0
 711 00d0 03B0     		add	sp, sp, #12
 712              		@ sp needed
 713              	.LVL47:
 714              	.LVL48:
 715 00d2 F0BD     		pop	{r4, r5, r6, r7, pc}
 716              	.L44:
 717              		.align	2
 718              	.L43:
 719 00d4 00000000 		.word	.L34
 720 00d8 00000000 		.word	.LANCHOR1
 721 00dc 66666666 		.word	1717986918
 722 00e0 66660640 		.word	1074161254
 723 00e4 00000000 		.word	ratio
 724 00e8 00000000 		.word	.LANCHOR0
 725 00ec 00000000 		.word	txData
 726 00f0 48000000 		.word	.LC25
 727 00f4 70000000 		.word	.LC28
 728              		.cfi_endproc
 729              	.LFE40:
 730              		.size	initialize_can_addr, .-initialize_can_addr
 731              		.section	.text.set_PWM,"ax",%progbits
 732              		.align	2
 733              		.global	set_PWM
 734              		.code	16
 735              		.thumb_func
 736              		.type	set_PWM, %function
 737              	set_PWM:
 738              	.LFB42:
 338:main.c        ****     invalidate = 0;
 739              		.loc 1 338 0
 740              		.cfi_startproc
 741              		@ args = 0, pretend = 0, frame = 0
 742              		@ frame_needed = 0, uses_anonymous_args = 0
 743              	.LVL49:
 744 0000 10B5     		push	{r4, lr}
 745              		.cfi_def_cfa_offset 8
 746              		.cfi_offset 4, -8
 747              		.cfi_offset 14, -4
ARM GAS  C:\Users\austc\AppData\Local\Temp\ccPDHU8c.s 			page 24


 748 0002 0400     		movs	r4, r0
 339:main.c        ****     if (compare < -255 || compare > 255) { return; }
 749              		.loc 1 339 0
 750 0004 0022     		movs	r2, #0
 751 0006 164B     		ldr	r3, .L51
 752 0008 5A73     		strb	r2, [r3, #13]
 340:main.c        ****     uint8 status = Status_Reg_Switches_Read();
 753              		.loc 1 340 0
 754 000a 0200     		movs	r2, r0
 755 000c FF32     		adds	r2, r2, #255
 756 000e FF23     		movs	r3, #255
 757 0010 5B00     		lsls	r3, r3, #1
 758 0012 9A42     		cmp	r2, r3
 759 0014 22D8     		bhi	.L45
 341:main.c        ****     if (compare < 0 ) {
 760              		.loc 1 341 0
 761 0016 FFF7FEFF 		bl	Status_Reg_Switches_Read
 762              	.LVL50:
 342:main.c        ****         if(!(status & 0b01) || disable_limit){
 763              		.loc 1 342 0
 764 001a 002C     		cmp	r4, #0
 765 001c 0CDA     		bge	.L47
 343:main.c        ****             Pin_Direction_Write(0);
 766              		.loc 1 343 0
 767 001e C307     		lsls	r3, r0, #31
 768 0020 03D5     		bpl	.L48
 343:main.c        ****             Pin_Direction_Write(0);
 769              		.loc 1 343 0 is_stmt 0 discriminator 1
 770 0022 0F4B     		ldr	r3, .L51
 771 0024 1B7B     		ldrb	r3, [r3, #12]
 772 0026 002B     		cmp	r3, #0
 773 0028 18D0     		beq	.L45
 774              	.L48:
 344:main.c        ****             PWM_Motor_WriteCompare(-compare);
 775              		.loc 1 344 0 is_stmt 1
 776 002a 0020     		movs	r0, #0
 777              	.LVL51:
 778 002c FFF7FEFF 		bl	Pin_Direction_Write
 779              	.LVL52:
 345:main.c        ****         }
 780              		.loc 1 345 0
 781 0030 6042     		rsbs	r0, r4, #0
 782 0032 FFF7FEFF 		bl	PWM_Motor_WriteCompare
 783              	.LVL53:
 784 0036 11E0     		b	.L45
 785              	.LVL54:
 786              	.L47:
 347:main.c        ****         if(!(status & 0b10) || disable_limit) {
 787              		.loc 1 347 0
 788 0038 002C     		cmp	r4, #0
 789 003a 0CDD     		ble	.L49
 348:main.c        ****             Pin_Direction_Write(1);
 790              		.loc 1 348 0
 791 003c 8307     		lsls	r3, r0, #30
 792 003e 03D5     		bpl	.L50
 348:main.c        ****             Pin_Direction_Write(1);
 793              		.loc 1 348 0 is_stmt 0 discriminator 1
ARM GAS  C:\Users\austc\AppData\Local\Temp\ccPDHU8c.s 			page 25


 794 0040 074B     		ldr	r3, .L51
 795 0042 1B7B     		ldrb	r3, [r3, #12]
 796 0044 002B     		cmp	r3, #0
 797 0046 09D0     		beq	.L45
 798              	.L50:
 349:main.c        ****             PWM_Motor_WriteCompare(compare);
 799              		.loc 1 349 0 is_stmt 1
 800 0048 0120     		movs	r0, #1
 801              	.LVL55:
 802 004a FFF7FEFF 		bl	Pin_Direction_Write
 803              	.LVL56:
 350:main.c        ****         }
 804              		.loc 1 350 0
 805 004e 2000     		movs	r0, r4
 806 0050 FFF7FEFF 		bl	PWM_Motor_WriteCompare
 807              	.LVL57:
 808 0054 02E0     		b	.L45
 809              	.LVL58:
 810              	.L49:
 353:main.c        ****     }
 811              		.loc 1 353 0
 812 0056 0020     		movs	r0, #0
 813              	.LVL59:
 814 0058 FFF7FEFF 		bl	PWM_Motor_WriteCompare
 815              	.LVL60:
 816              	.L45:
 355:main.c        **** 
 817              		.loc 1 355 0
 818              		@ sp needed
 819              	.LVL61:
 820 005c 10BD     		pop	{r4, pc}
 821              	.L52:
 822 005e C046     		.align	2
 823              	.L51:
 824 0060 00000000 		.word	.LANCHOR1
 825              		.cfi_endproc
 826              	.LFE42:
 827              		.size	set_PWM, .-set_PWM
 828              		.section	.text.Period_Reset_Handler,"ax",%progbits
 829              		.align	2
 830              		.global	Period_Reset_Handler
 831              		.code	16
 832              		.thumb_func
 833              		.type	Period_Reset_Handler, %function
 834              	Period_Reset_Handler:
 835              	.LFB35:
  75:main.c        ****     int timer = Timer_1_ReadStatusRegister();
 836              		.loc 1 75 0
 837              		.cfi_startproc
 838              		@ args = 0, pretend = 0, frame = 0
 839              		@ frame_needed = 0, uses_anonymous_args = 0
 840 0000 10B5     		push	{r4, lr}
 841              		.cfi_def_cfa_offset 8
 842              		.cfi_offset 4, -8
 843              		.cfi_offset 14, -4
  76:main.c        ****     if(uart_debug) {
 844              		.loc 1 76 0
ARM GAS  C:\Users\austc\AppData\Local\Temp\ccPDHU8c.s 			page 26


 845 0002 FFF7FEFF 		bl	Timer_1_ReadStatusRegister
 846              	.LVL62:
  77:main.c        ****         sprintf(txData,"Period interupt triggerd %x\r\n", timer);
 847              		.loc 1 77 0
 848 0006 0B4B     		ldr	r3, .L56
 849 0008 1B78     		ldrb	r3, [r3]
 850 000a 002B     		cmp	r3, #0
 851 000c 04D0     		beq	.L54
  78:main.c        ****         //UART_UartPutString(txData);
 852              		.loc 1 78 0
 853 000e 0200     		movs	r2, r0
 854 0010 0949     		ldr	r1, .L56+4
 855 0012 0A48     		ldr	r0, .L56+8
 856              	.LVL63:
 857 0014 FFF7FEFF 		bl	sprintf
 858              	.LVL64:
 859              	.L54:
  81:main.c        ****     invalidate++;
 860              		.loc 1 81 0
 861 0018 0122     		movs	r2, #1
 862 001a 064B     		ldr	r3, .L56
 863 001c 9A73     		strb	r2, [r3, #14]
  82:main.c        ****     if(invalidate >= 20){
 864              		.loc 1 82 0
 865 001e 084A     		ldr	r2, .L56+12
 866 0020 537B     		ldrb	r3, [r2, #13]
 867 0022 0133     		adds	r3, r3, #1
 868 0024 DBB2     		uxtb	r3, r3
 869 0026 5373     		strb	r3, [r2, #13]
  83:main.c        ****         set_PWM(0);   
 870              		.loc 1 83 0
 871 0028 132B     		cmp	r3, #19
 872 002a 02D9     		bls	.L53
  84:main.c        ****     }
 873              		.loc 1 84 0
 874 002c 0020     		movs	r0, #0
 875 002e FFF7FEFF 		bl	set_PWM
 876              	.LVL65:
 877              	.L53:
  86:main.c        **** 
 878              		.loc 1 86 0
 879              		@ sp needed
 880 0032 10BD     		pop	{r4, pc}
 881              	.L57:
 882              		.align	2
 883              	.L56:
 884 0034 00000000 		.word	.LANCHOR0
 885 0038 A0000000 		.word	.LC32
 886 003c 00000000 		.word	txData
 887 0040 00000000 		.word	.LANCHOR1
 888              		.cfi_endproc
 889              	.LFE35:
 890              		.size	Period_Reset_Handler, .-Period_Reset_Handler
 891              		.section	.text.Pin_Limit_Handler,"ax",%progbits
 892              		.align	2
 893              		.global	Pin_Limit_Handler
 894              		.code	16
ARM GAS  C:\Users\austc\AppData\Local\Temp\ccPDHU8c.s 			page 27


 895              		.thumb_func
 896              		.type	Pin_Limit_Handler, %function
 897              	Pin_Limit_Handler:
 898              	.LFB36:
  88:main.c        ****     if(uart_debug) {
 899              		.loc 1 88 0
 900              		.cfi_startproc
 901              		@ args = 0, pretend = 0, frame = 0
 902              		@ frame_needed = 0, uses_anonymous_args = 0
 903 0000 10B5     		push	{r4, lr}
 904              		.cfi_def_cfa_offset 8
 905              		.cfi_offset 4, -8
 906              		.cfi_offset 14, -4
  89:main.c        ****         sprintf(txData,"Limit interupt triggerd\r\n");
 907              		.loc 1 89 0
 908 0002 094B     		ldr	r3, .L60
 909 0004 1B78     		ldrb	r3, [r3]
 910 0006 002B     		cmp	r3, #0
 911 0008 08D0     		beq	.L59
  90:main.c        ****         UART_UartPutString(txData);
 912              		.loc 1 90 0
 913 000a 084C     		ldr	r4, .L60+4
 914 000c 1A22     		movs	r2, #26
 915 000e 0849     		ldr	r1, .L60+8
 916 0010 2000     		movs	r0, r4
 917 0012 FFF7FEFF 		bl	memcpy
 918              	.LVL66:
  91:main.c        ****     }
 919              		.loc 1 91 0
 920 0016 2000     		movs	r0, r4
 921 0018 FFF7FEFF 		bl	UART_UartPutString
 922              	.LVL67:
 923              	.L59:
  93:main.c        **** }
 924              		.loc 1 93 0
 925 001c 054B     		ldr	r3, .L60+12
 926 001e 1868     		ldr	r0, [r3]
 927 0020 FFF7FEFF 		bl	set_PWM
 928              	.LVL68:
  94:main.c        **** 
 929              		.loc 1 94 0
 930              		@ sp needed
 931 0024 10BD     		pop	{r4, pc}
 932              	.L61:
 933 0026 C046     		.align	2
 934              	.L60:
 935 0028 00000000 		.word	.LANCHOR0
 936 002c 00000000 		.word	txData
 937 0030 C0000000 		.word	.LC38
 938 0034 00000000 		.word	pwm_compare
 939              		.cfi_endproc
 940              	.LFE36:
 941              		.size	Pin_Limit_Handler, .-Pin_Limit_Handler
 942              		.section	.text.CAN_Send_Encoder,"ax",%progbits
 943              		.align	2
 944              		.global	CAN_Send_Encoder
 945              		.code	16
ARM GAS  C:\Users\austc\AppData\Local\Temp\ccPDHU8c.s 			page 28


 946              		.thumb_func
 947              		.type	CAN_Send_Encoder, %function
 948              	CAN_Send_Encoder:
 949              	.LFB43:
 357:main.c        ****     int16 ticks = QuadDec_GetCounter();
 950              		.loc 1 357 0
 951              		.cfi_startproc
 952              		@ args = 0, pretend = 0, frame = 0
 953              		@ frame_needed = 0, uses_anonymous_args = 0
 954 0000 F0B5     		push	{r4, r5, r6, r7, lr}
 955              		.cfi_def_cfa_offset 20
 956              		.cfi_offset 4, -20
 957              		.cfi_offset 5, -16
 958              		.cfi_offset 6, -12
 959              		.cfi_offset 7, -8
 960              		.cfi_offset 14, -4
 961 0002 83B0     		sub	sp, sp, #12
 962              		.cfi_def_cfa_offset 32
 358:main.c        ****     data.byte[0u] = 0x14u;
 963              		.loc 1 358 0
 964 0004 FFF7FEFF 		bl	QuadDec_GetCounter
 965              	.LVL69:
 359:main.c        ****     data.byte[1u] = LO8(ticks);
 966              		.loc 1 359 0
 967 0008 124B     		ldr	r3, .L64
 968 000a 1422     		movs	r2, #20
 969 000c 1A70     		strb	r2, [r3]
 360:main.c        ****     data.byte[2u] = HI8(ticks);
 970              		.loc 1 360 0
 971 000e 5870     		strb	r0, [r3, #1]
 361:main.c        ****     data.byte[3u] = 0;
 972              		.loc 1 361 0
 973 0010 80B2     		uxth	r0, r0
 974 0012 000A     		lsrs	r0, r0, #8
 975              	.LVL70:
 976 0014 9870     		strb	r0, [r3, #2]
 362:main.c        ****     data.byte[4u] = 0;
 977              		.loc 1 362 0
 978 0016 0022     		movs	r2, #0
 979 0018 DA70     		strb	r2, [r3, #3]
 363:main.c        ****     CAN_SendMsg(&message);
 980              		.loc 1 363 0
 981 001a 1A71     		strb	r2, [r3, #4]
 364:main.c        ****     if(uart_debug == 2) {
 982              		.loc 1 364 0
 983 001c 0E48     		ldr	r0, .L64+4
 984 001e FFF7FEFF 		bl	CAN_SendMsg
 985              	.LVL71:
 365:main.c        ****         sprintf(txData, "CAN_Send_Encoder: byte[0u] %x byte[1u] %x byte[2u] %x\n QuadDec Count %d\r
 986              		.loc 1 365 0
 987 0022 0E4B     		ldr	r3, .L64+8
 988 0024 1B78     		ldrb	r3, [r3]
 989 0026 022B     		cmp	r3, #2
 990 0028 11D1     		bne	.L62
 367:main.c        ****             QuadDec_GetCounter());
 991              		.loc 1 367 0
 992 002a 0A4B     		ldr	r3, .L64
ARM GAS  C:\Users\austc\AppData\Local\Temp\ccPDHU8c.s 			page 29


 993 002c 1D78     		ldrb	r5, [r3]
 994 002e 5E78     		ldrb	r6, [r3, #1]
 995 0030 9F78     		ldrb	r7, [r3, #2]
 368:main.c        ****         UART_UartPutString(txData);    
 996              		.loc 1 368 0
 997 0032 FFF7FEFF 		bl	QuadDec_GetCounter
 998              	.LVL72:
 366:main.c        ****             data.byte[0u],data.byte[1u],data.byte[2u],
 999              		.loc 1 366 0
 1000 0036 0A4C     		ldr	r4, .L64+12
 1001 0038 0190     		str	r0, [sp, #4]
 1002 003a 0097     		str	r7, [sp]
 1003 003c 3300     		movs	r3, r6
 1004 003e 2A00     		movs	r2, r5
 1005 0040 0849     		ldr	r1, .L64+16
 1006 0042 2000     		movs	r0, r4
 1007 0044 FFF7FEFF 		bl	sprintf
 1008              	.LVL73:
 369:main.c        ****     }
 1009              		.loc 1 369 0
 1010 0048 2000     		movs	r0, r4
 1011 004a FFF7FEFF 		bl	UART_UartPutString
 1012              	.LVL74:
 1013              	.L62:
 371:main.c        **** 
 1014              		.loc 1 371 0
 1015 004e 03B0     		add	sp, sp, #12
 1016              		@ sp needed
 1017 0050 F0BD     		pop	{r4, r5, r6, r7, pc}
 1018              	.L65:
 1019 0052 C046     		.align	2
 1020              	.L64:
 1021 0054 00000000 		.word	data
 1022 0058 00000000 		.word	message
 1023 005c 00000000 		.word	.LANCHOR0
 1024 0060 00000000 		.word	txData
 1025 0064 DC000000 		.word	.LC44
 1026              		.cfi_endproc
 1027              	.LFE43:
 1028              		.size	CAN_Send_Encoder, .-CAN_Send_Encoder
 1029              		.section	.text.CAN_Send_Telemetry,"ax",%progbits
 1030              		.align	2
 1031              		.global	CAN_Send_Telemetry
 1032              		.code	16
 1033              		.thumb_func
 1034              		.type	CAN_Send_Telemetry, %function
 1035              	CAN_Send_Telemetry:
 1036              	.LFB44:
 373:main.c        ****     data.byte[0u] = 0x18u;
 1037              		.loc 1 373 0
 1038              		.cfi_startproc
 1039              		@ args = 0, pretend = 0, frame = 0
 1040              		@ frame_needed = 0, uses_anonymous_args = 0
 1041 0000 10B5     		push	{r4, lr}
 1042              		.cfi_def_cfa_offset 8
 1043              		.cfi_offset 4, -8
 1044              		.cfi_offset 14, -4
ARM GAS  C:\Users\austc\AppData\Local\Temp\ccPDHU8c.s 			page 30


 374:main.c        ****     data.byte[1u] = 0;
 1045              		.loc 1 374 0
 1046 0002 0D4B     		ldr	r3, .L68
 1047 0004 1822     		movs	r2, #24
 1048 0006 1A70     		strb	r2, [r3]
 375:main.c        ****     data.byte[2u] = 0;
 1049              		.loc 1 375 0
 1050 0008 0022     		movs	r2, #0
 1051 000a 5A70     		strb	r2, [r3, #1]
 376:main.c        ****     data.byte[3u] = 0;
 1052              		.loc 1 376 0
 1053 000c 9A70     		strb	r2, [r3, #2]
 377:main.c        ****     data.byte[4u] = 0;
 1054              		.loc 1 377 0
 1055 000e DA70     		strb	r2, [r3, #3]
 378:main.c        ****     CAN_SendMsg(&message);
 1056              		.loc 1 378 0
 1057 0010 1A71     		strb	r2, [r3, #4]
 379:main.c        ****     if(uart_debug == 2) {
 1058              		.loc 1 379 0
 1059 0012 0A48     		ldr	r0, .L68+4
 1060 0014 FFF7FEFF 		bl	CAN_SendMsg
 1061              	.LVL75:
 380:main.c        ****         sprintf(txData, "Telemerty: byte[0u] %x byte[1u] %x\r\n",(uint8)data.byte[0u],(uint8)data.b
 1062              		.loc 1 380 0
 1063 0018 094B     		ldr	r3, .L68+8
 1064 001a 1B78     		ldrb	r3, [r3]
 1065 001c 022B     		cmp	r3, #2
 1066 001e 0AD1     		bne	.L66
 381:main.c        ****         UART_UartPutString(txData); 
 1067              		.loc 1 381 0
 1068 0020 054B     		ldr	r3, .L68
 1069 0022 1A78     		ldrb	r2, [r3]
 1070 0024 5B78     		ldrb	r3, [r3, #1]
 1071 0026 074C     		ldr	r4, .L68+12
 1072 0028 0749     		ldr	r1, .L68+16
 1073 002a 2000     		movs	r0, r4
 1074 002c FFF7FEFF 		bl	sprintf
 1075              	.LVL76:
 382:main.c        ****     }
 1076              		.loc 1 382 0
 1077 0030 2000     		movs	r0, r4
 1078 0032 FFF7FEFF 		bl	UART_UartPutString
 1079              	.LVL77:
 1080              	.L66:
 384:main.c        **** 
 1081              		.loc 1 384 0
 1082              		@ sp needed
 1083 0036 10BD     		pop	{r4, pc}
 1084              	.L69:
 1085              		.align	2
 1086              	.L68:
 1087 0038 00000000 		.word	data
 1088 003c 00000000 		.word	message
 1089 0040 00000000 		.word	.LANCHOR0
 1090 0044 00000000 		.word	txData
 1091 0048 28010000 		.word	.LC50
ARM GAS  C:\Users\austc\AppData\Local\Temp\ccPDHU8c.s 			page 31


 1092              		.cfi_endproc
 1093              	.LFE44:
 1094              		.size	CAN_Send_Telemetry, .-CAN_Send_Telemetry
 1095              		.section	.text.CAN_Send_Model,"ax",%progbits
 1096              		.align	2
 1097              		.global	CAN_Send_Model
 1098              		.code	16
 1099              		.thumb_func
 1100              		.type	CAN_Send_Model, %function
 1101              	CAN_Send_Model:
 1102              	.LFB45:
 386:main.c        ****     data.byte[0u] = 0x12u;
 1103              		.loc 1 386 0
 1104              		.cfi_startproc
 1105              		@ args = 0, pretend = 0, frame = 0
 1106              		@ frame_needed = 0, uses_anonymous_args = 0
 1107 0000 10B5     		push	{r4, lr}
 1108              		.cfi_def_cfa_offset 8
 1109              		.cfi_offset 4, -8
 1110              		.cfi_offset 14, -4
 387:main.c        ****     data.byte[1u] = 0x00u;
 1111              		.loc 1 387 0
 1112 0002 0D4B     		ldr	r3, .L72
 1113 0004 1222     		movs	r2, #18
 1114 0006 1A70     		strb	r2, [r3]
 388:main.c        ****     data.byte[2u] = 0;
 1115              		.loc 1 388 0
 1116 0008 0022     		movs	r2, #0
 1117 000a 5A70     		strb	r2, [r3, #1]
 389:main.c        ****     data.byte[3u] = 0;
 1118              		.loc 1 389 0
 1119 000c 9A70     		strb	r2, [r3, #2]
 390:main.c        ****     data.byte[4u] = 0;
 1120              		.loc 1 390 0
 1121 000e DA70     		strb	r2, [r3, #3]
 391:main.c        ****     CAN_SendMsg(&message);
 1122              		.loc 1 391 0
 1123 0010 1A71     		strb	r2, [r3, #4]
 392:main.c        ****     if(uart_debug == 2) {
 1124              		.loc 1 392 0
 1125 0012 0A48     		ldr	r0, .L72+4
 1126 0014 FFF7FEFF 		bl	CAN_SendMsg
 1127              	.LVL78:
 393:main.c        ****         sprintf(txData, "Model: byte[0u] %x byte[1u] %x\r\n",data.byte[0u],data.byte[1u]);
 1128              		.loc 1 393 0
 1129 0018 094B     		ldr	r3, .L72+8
 1130 001a 1B78     		ldrb	r3, [r3]
 1131 001c 022B     		cmp	r3, #2
 1132 001e 0AD1     		bne	.L70
 394:main.c        ****         UART_UartPutString(txData); 
 1133              		.loc 1 394 0
 1134 0020 054B     		ldr	r3, .L72
 1135 0022 1A78     		ldrb	r2, [r3]
 1136 0024 5B78     		ldrb	r3, [r3, #1]
 1137 0026 074C     		ldr	r4, .L72+12
 1138 0028 0749     		ldr	r1, .L72+16
 1139 002a 2000     		movs	r0, r4
ARM GAS  C:\Users\austc\AppData\Local\Temp\ccPDHU8c.s 			page 32


 1140 002c FFF7FEFF 		bl	sprintf
 1141              	.LVL79:
 395:main.c        ****     }
 1142              		.loc 1 395 0
 1143 0030 2000     		movs	r0, r4
 1144 0032 FFF7FEFF 		bl	UART_UartPutString
 1145              	.LVL80:
 1146              	.L70:
 397:main.c        **** 
 1147              		.loc 1 397 0
 1148              		@ sp needed
 1149 0036 10BD     		pop	{r4, pc}
 1150              	.L73:
 1151              		.align	2
 1152              	.L72:
 1153 0038 00000000 		.word	data
 1154 003c 00000000 		.word	message
 1155 0040 00000000 		.word	.LANCHOR0
 1156 0044 00000000 		.word	txData
 1157 0048 50010000 		.word	.LC56
 1158              		.cfi_endproc
 1159              	.LFE45:
 1160              		.size	CAN_Send_Model, .-CAN_Send_Model
 1161              		.section	.text.CAN_Send_Error,"ax",%progbits
 1162              		.align	2
 1163              		.global	CAN_Send_Error
 1164              		.code	16
 1165              		.thumb_func
 1166              		.type	CAN_Send_Error, %function
 1167              	CAN_Send_Error:
 1168              	.LFB46:
 399:main.c        ****     data.byte[0u] = 0xffu;
 1169              		.loc 1 399 0
 1170              		.cfi_startproc
 1171              		@ args = 0, pretend = 0, frame = 0
 1172              		@ frame_needed = 0, uses_anonymous_args = 0
 1173              	.LVL81:
 1174 0000 10B5     		push	{r4, lr}
 1175              		.cfi_def_cfa_offset 8
 1176              		.cfi_offset 4, -8
 1177              		.cfi_offset 14, -4
 1178 0002 82B0     		sub	sp, sp, #8
 1179              		.cfi_def_cfa_offset 16
 400:main.c        ****     data.byte[1u] = code;
 1180              		.loc 1 400 0
 1181 0004 0E4B     		ldr	r3, .L76
 1182 0006 FF22     		movs	r2, #255
 1183 0008 1A70     		strb	r2, [r3]
 401:main.c        ****     data.byte[2u] = param;
 1184              		.loc 1 401 0
 1185 000a 5870     		strb	r0, [r3, #1]
 402:main.c        ****     data.byte[3u] = 0;
 1186              		.loc 1 402 0
 1187 000c 9970     		strb	r1, [r3, #2]
 403:main.c        ****     data.byte[4u] = 0;
 1188              		.loc 1 403 0
 1189 000e 0022     		movs	r2, #0
ARM GAS  C:\Users\austc\AppData\Local\Temp\ccPDHU8c.s 			page 33


 1190 0010 DA70     		strb	r2, [r3, #3]
 404:main.c        ****     CAN_SendMsg(&message);
 1191              		.loc 1 404 0
 1192 0012 1A71     		strb	r2, [r3, #4]
 405:main.c        ****     if(uart_debug == 2) {
 1193              		.loc 1 405 0
 1194 0014 0B48     		ldr	r0, .L76+4
 1195              	.LVL82:
 1196 0016 FFF7FEFF 		bl	CAN_SendMsg
 1197              	.LVL83:
 406:main.c        ****         sprintf(txData, "Error: byte[0u] %x byte[1u] %x byte[2u] %x\r\n",data.byte[0u],data.byte[1u
 1198              		.loc 1 406 0
 1199 001a 0B4B     		ldr	r3, .L76+8
 1200 001c 1B78     		ldrb	r3, [r3]
 1201 001e 022B     		cmp	r3, #2
 1202 0020 0CD1     		bne	.L74
 407:main.c        ****         UART_UartPutString(txData); 
 1203              		.loc 1 407 0
 1204 0022 0749     		ldr	r1, .L76
 1205 0024 0A78     		ldrb	r2, [r1]
 1206 0026 4B78     		ldrb	r3, [r1, #1]
 1207 0028 8978     		ldrb	r1, [r1, #2]
 1208 002a 084C     		ldr	r4, .L76+12
 1209 002c 0091     		str	r1, [sp]
 1210 002e 0849     		ldr	r1, .L76+16
 1211 0030 2000     		movs	r0, r4
 1212 0032 FFF7FEFF 		bl	sprintf
 1213              	.LVL84:
 408:main.c        ****     }
 1214              		.loc 1 408 0
 1215 0036 2000     		movs	r0, r4
 1216 0038 FFF7FEFF 		bl	UART_UartPutString
 1217              	.LVL85:
 1218              	.L74:
 410:main.c        **** 
 1219              		.loc 1 410 0
 1220 003c 02B0     		add	sp, sp, #8
 1221              		@ sp needed
 1222 003e 10BD     		pop	{r4, pc}
 1223              	.L77:
 1224              		.align	2
 1225              	.L76:
 1226 0040 00000000 		.word	data
 1227 0044 00000000 		.word	message
 1228 0048 00000000 		.word	.LANCHOR0
 1229 004c 00000000 		.word	txData
 1230 0050 74010000 		.word	.LC62
 1231              		.cfi_endproc
 1232              	.LFE46:
 1233              		.size	CAN_Send_Error, .-CAN_Send_Error
 1234              		.section	.text.set_data,"ax",%progbits
 1235              		.align	2
 1236              		.global	set_data
 1237              		.code	16
 1238              		.thumb_func
 1239              		.type	set_data, %function
 1240              	set_data:
ARM GAS  C:\Users\austc\AppData\Local\Temp\ccPDHU8c.s 			page 34


 1241              	.LFB48:
 444:main.c        ****         //set mode
 1242              		.loc 1 444 0
 1243              		.cfi_startproc
 1244              		@ args = 0, pretend = 0, frame = 0
 1245              		@ frame_needed = 0, uses_anonymous_args = 0
 1246              		@ link register save eliminated.
 1247              	.LVL86:
 446:main.c        ****             if(CAN_RX_DATA_BYTE2(addr) == 1 || CAN_RX_DATA_BYTE2(addr) == 0) {
 1248              		.loc 1 446 0
 1249 0000 4001     		lsls	r0, r0, #5
 1250              	.LVL87:
 1251 0002 254B     		ldr	r3, .L85
 1252 0004 9C46     		mov	ip, r3
 1253 0006 6044     		add	r0, r0, ip
 1254 0008 8368     		ldr	r3, [r0, #8]
 1255 000a 1B0E     		lsrs	r3, r3, #24
 1256 000c 13D1     		bne	.L79
 447:main.c        ****                 mode = CAN_RX_DATA_BYTE2(addr);
 1257              		.loc 1 447 0
 1258 000e 8368     		ldr	r3, [r0, #8]
 1259 0010 1B0C     		lsrs	r3, r3, #16
 1260 0012 FF22     		movs	r2, #255
 1261 0014 1340     		ands	r3, r2
 1262 0016 012B     		cmp	r3, #1
 1263 0018 03D0     		beq	.L80
 447:main.c        ****                 mode = CAN_RX_DATA_BYTE2(addr);
 1264              		.loc 1 447 0 is_stmt 0 discriminator 1
 1265 001a 8368     		ldr	r3, [r0, #8]
 1266 001c 1B0C     		lsrs	r3, r3, #16
 1267 001e 1A42     		tst	r2, r3
 1268 0020 04D1     		bne	.L81
 1269              	.L80:
 448:main.c        ****             }
 1270              		.loc 1 448 0 is_stmt 1
 1271 0022 8368     		ldr	r3, [r0, #8]
 1272 0024 1B0C     		lsrs	r3, r3, #16
 1273 0026 1D4A     		ldr	r2, .L85+4
 1274 0028 9372     		strb	r3, [r2, #10]
 1275 002a 34E0     		b	.L78
 1276              	.L81:
 451:main.c        ****                 invalid_arg.done = 0;
 1277              		.loc 1 451 0
 1278 002c 1C4B     		ldr	r3, .L85+8
 1279 002e 0022     		movs	r2, #0
 1280 0030 5A70     		strb	r2, [r3, #1]
 452:main.c        ****             }
 1281              		.loc 1 452 0
 1282 0032 9A70     		strb	r2, [r3, #2]
 1283 0034 2FE0     		b	.L78
 1284              	.L79:
 456:main.c        ****             Can_rx_pwm.b1 = CAN_RX_DATA_BYTE2(addr);
 1285              		.loc 1 456 0
 1286 0036 8368     		ldr	r3, [r0, #8]
 1287 0038 1B0E     		lsrs	r3, r3, #24
 1288 003a 022B     		cmp	r3, #2
 1289 003c 0ED1     		bne	.L83
ARM GAS  C:\Users\austc\AppData\Local\Temp\ccPDHU8c.s 			page 35


 457:main.c        ****             Can_rx_pwm.b2 = CAN_RX_DATA_BYTE3(addr);
 1290              		.loc 1 457 0
 1291 003e 8268     		ldr	r2, [r0, #8]
 1292 0040 120C     		lsrs	r2, r2, #16
 1293 0042 184B     		ldr	r3, .L85+12
 1294 0044 5A70     		strb	r2, [r3, #1]
 458:main.c        ****             Can_rx_pwm.b3 = CAN_RX_DATA_BYTE4(addr);
 1295              		.loc 1 458 0
 1296 0046 8268     		ldr	r2, [r0, #8]
 1297 0048 120A     		lsrs	r2, r2, #8
 1298 004a 9A70     		strb	r2, [r3, #2]
 459:main.c        ****             Can_rx_pwm.b4 = CAN_RX_DATA_BYTE5(addr);
 1299              		.loc 1 459 0
 1300 004c 8268     		ldr	r2, [r0, #8]
 1301 004e DA70     		strb	r2, [r3, #3]
 460:main.c        ****             Can_rx_pwm.done = 0;
 1302              		.loc 1 460 0
 1303 0050 C268     		ldr	r2, [r0, #12]
 1304 0052 120E     		lsrs	r2, r2, #24
 1305 0054 1A71     		strb	r2, [r3, #4]
 461:main.c        ****         } 
 1306              		.loc 1 461 0
 1307 0056 0022     		movs	r2, #0
 1308 0058 5A71     		strb	r2, [r3, #5]
 1309 005a 1CE0     		b	.L78
 1310              	.L83:
 464:main.c        ****             Can_rx_angle.b1 = CAN_RX_DATA_BYTE2(addr);
 1311              		.loc 1 464 0
 1312 005c 8368     		ldr	r3, [r0, #8]
 1313 005e 1B0E     		lsrs	r3, r3, #24
 1314 0060 042B     		cmp	r3, #4
 1315 0062 11D1     		bne	.L84
 465:main.c        ****             Can_rx_angle.b2 = CAN_RX_DATA_BYTE3(addr);
 1316              		.loc 1 465 0
 1317 0064 8268     		ldr	r2, [r0, #8]
 1318 0066 120C     		lsrs	r2, r2, #16
 1319 0068 0F4B     		ldr	r3, .L85+16
 1320 006a 5A70     		strb	r2, [r3, #1]
 466:main.c        ****             Can_rx_angle.b3 = CAN_RX_DATA_BYTE4(addr);
 1321              		.loc 1 466 0
 1322 006c 8268     		ldr	r2, [r0, #8]
 1323 006e 120A     		lsrs	r2, r2, #8
 1324 0070 9A70     		strb	r2, [r3, #2]
 467:main.c        ****             Can_rx_angle.b4 = CAN_RX_DATA_BYTE5(addr);
 1325              		.loc 1 467 0
 1326 0072 8268     		ldr	r2, [r0, #8]
 1327 0074 DA70     		strb	r2, [r3, #3]
 468:main.c        ****             Can_rx_angle.done = 0;
 1328              		.loc 1 468 0
 1329 0076 C268     		ldr	r2, [r0, #12]
 1330 0078 120E     		lsrs	r2, r2, #24
 1331 007a 1A71     		strb	r2, [r3, #4]
 469:main.c        ****             complete = 1;
 1332              		.loc 1 469 0
 1333 007c 0022     		movs	r2, #0
 1334 007e 5A71     		strb	r2, [r3, #5]
 470:main.c        ****         } 
ARM GAS  C:\Users\austc\AppData\Local\Temp\ccPDHU8c.s 			page 36


 1335              		.loc 1 470 0
 1336 0080 0132     		adds	r2, r2, #1
 1337 0082 0A4B     		ldr	r3, .L85+20
 1338 0084 1A70     		strb	r2, [r3]
 1339 0086 06E0     		b	.L78
 1340              	.L84:
 473:main.c        ****             model_req = 1;
 1341              		.loc 1 473 0
 1342 0088 8368     		ldr	r3, [r0, #8]
 1343 008a 1B0E     		lsrs	r3, r3, #24
 1344 008c 102B     		cmp	r3, #16
 1345 008e 02D1     		bne	.L78
 1346              		.loc 1 474 0
 1347 0090 0122     		movs	r2, #1
 1348 0092 064B     		ldr	r3, .L85+20
 1349 0094 5A70     		strb	r2, [r3, #1]
 1350              	.L78:
 475:main.c        ****         }
 476:main.c        **** }
 1351              		.loc 1 476 0
 1352              		@ sp needed
 1353 0096 7047     		bx	lr
 1354              	.L86:
 1355              		.align	2
 1356              	.L85:
 1357 0098 A0002F40 		.word	1076822176
 1358 009c 00000000 		.word	.LANCHOR0
 1359 00a0 00000000 		.word	invalid_arg
 1360 00a4 00000000 		.word	Can_rx_pwm
 1361 00a8 00000000 		.word	Can_rx_angle
 1362 00ac 00000000 		.word	.LANCHOR1
 1363              		.cfi_endproc
 1364              	.LFE48:
 1365              		.size	set_data, .-set_data
 1366              		.global	__aeabi_i2d
 1367              		.global	__aeabi_dmul
 1368              		.global	__aeabi_d2iz
 1369              		.section	.text.degrees_to_tick,"ax",%progbits
 1370              		.align	2
 1371              		.global	degrees_to_tick
 1372              		.code	16
 1373              		.thumb_func
 1374              		.type	degrees_to_tick, %function
 1375              	degrees_to_tick:
 1376              	.LFB50:
 477:main.c        **** 
 478:main.c        **** void set_Position(int degrees) {
 479:main.c        ****     if(uart_debug) {
 480:main.c        ****         sprintf(txData, "complete: %d\r\n",complete);
 481:main.c        ****         UART_UartPutString(txData);
 482:main.c        ****     }
 483:main.c        ****     while(!complete) {
 484:main.c        ****         int PWM = position_PID(degrees_to_tick(degrees));
 485:main.c        ****         if(uart_debug) {
 486:main.c        ****             sprintf(txData, "PWM: %d\r\n",PWM);
 487:main.c        ****             UART_UartPutString(txData);
 488:main.c        ****         }
ARM GAS  C:\Users\austc\AppData\Local\Temp\ccPDHU8c.s 			page 37


 489:main.c        ****         if(PWM > maxV){
 490:main.c        ****             set_PWM(maxV);   
 491:main.c        ****         } else if(PWM < -maxV) {
 492:main.c        ****             set_PWM(-maxV);
 493:main.c        ****         } else {
 494:main.c        ****             set_PWM(PWM);   
 495:main.c        ****         }
 496:main.c        ****     }
 497:main.c        **** }
 498:main.c        **** 
 499:main.c        **** int degrees_to_tick(int degrees){
 1377              		.loc 1 499 0
 1378              		.cfi_startproc
 1379              		@ args = 0, pretend = 0, frame = 0
 1380              		@ frame_needed = 0, uses_anonymous_args = 0
 1381              	.LVL88:
 1382 0000 70B5     		push	{r4, r5, r6, lr}
 1383              		.cfi_def_cfa_offset 16
 1384              		.cfi_offset 4, -16
 1385              		.cfi_offset 5, -12
 1386              		.cfi_offset 6, -8
 1387              		.cfi_offset 14, -4
 1388 0002 0500     		movs	r5, r0
 500:main.c        ****     int ticks = (int)((double)degrees * ratio);
 1389              		.loc 1 500 0
 1390 0004 FFF7FEFF 		bl	__aeabi_i2d
 1391              	.LVL89:
 1392 0008 0B4B     		ldr	r3, .L89
 1393 000a 1A68     		ldr	r2, [r3]
 1394 000c 5B68     		ldr	r3, [r3, #4]
 1395 000e FFF7FEFF 		bl	__aeabi_dmul
 1396              	.LVL90:
 1397 0012 FFF7FEFF 		bl	__aeabi_d2iz
 1398              	.LVL91:
 1399 0016 0400     		movs	r4, r0
 1400              	.LVL92:
 501:main.c        ****     if(uart_debug) {
 1401              		.loc 1 501 0
 1402 0018 084B     		ldr	r3, .L89+4
 1403 001a 1B78     		ldrb	r3, [r3]
 1404 001c 002B     		cmp	r3, #0
 1405 001e 09D0     		beq	.L88
 502:main.c        ****         sprintf(txData, "degree: %d ticks: %d\r\n", degrees, ticks);
 1406              		.loc 1 502 0
 1407 0020 074E     		ldr	r6, .L89+8
 1408 0022 0300     		movs	r3, r0
 1409 0024 2A00     		movs	r2, r5
 1410 0026 0749     		ldr	r1, .L89+12
 1411 0028 3000     		movs	r0, r6
 1412              	.LVL93:
 1413 002a FFF7FEFF 		bl	sprintf
 1414              	.LVL94:
 503:main.c        ****         UART_UartPutString(txData);
 1415              		.loc 1 503 0
 1416 002e 3000     		movs	r0, r6
 1417 0030 FFF7FEFF 		bl	UART_UartPutString
 1418              	.LVL95:
ARM GAS  C:\Users\austc\AppData\Local\Temp\ccPDHU8c.s 			page 38


 1419              	.L88:
 504:main.c        ****     }
 505:main.c        ****     return(ticks);
 506:main.c        **** }
 1420              		.loc 1 506 0
 1421 0034 2000     		movs	r0, r4
 1422              		@ sp needed
 1423              	.LVL96:
 1424              	.LVL97:
 1425 0036 70BD     		pop	{r4, r5, r6, pc}
 1426              	.L90:
 1427              		.align	2
 1428              	.L89:
 1429 0038 00000000 		.word	ratio
 1430 003c 00000000 		.word	.LANCHOR0
 1431 0040 00000000 		.word	txData
 1432 0044 A4010000 		.word	.LC72
 1433              		.cfi_endproc
 1434              	.LFE50:
 1435              		.size	degrees_to_tick, .-degrees_to_tick
 1436              		.section	.text.position_PID,"ax",%progbits
 1437              		.align	2
 1438              		.global	position_PID
 1439              		.code	16
 1440              		.thumb_func
 1441              		.type	position_PID, %function
 1442              	position_PID:
 1443              	.LFB51:
 507:main.c        **** 
 508:main.c        **** int position_PID(int target){
 1444              		.loc 1 508 0
 1445              		.cfi_startproc
 1446              		@ args = 0, pretend = 0, frame = 0
 1447              		@ frame_needed = 0, uses_anonymous_args = 0
 1448              	.LVL98:
 1449 0000 70B5     		push	{r4, r5, r6, lr}
 1450              		.cfi_def_cfa_offset 16
 1451              		.cfi_offset 4, -16
 1452              		.cfi_offset 5, -12
 1453              		.cfi_offset 6, -8
 1454              		.cfi_offset 14, -4
 1455 0002 82B0     		sub	sp, sp, #8
 1456              		.cfi_def_cfa_offset 24
 1457 0004 0400     		movs	r4, r0
 509:main.c        ****     int16 current =  QuadDec_GetCounter();
 1458              		.loc 1 509 0
 1459 0006 FFF7FEFF 		bl	QuadDec_GetCounter
 1460              	.LVL99:
 510:main.c        ****     int p = target - current;
 1461              		.loc 1 510 0
 1462 000a 241A     		subs	r4, r4, r0
 1463              	.LVL100:
 511:main.c        ****    /* if(p) {
 512:main.c        ****       complete =  1;
 513:main.c        ****     }*/
 514:main.c        ****     i = i + p;
 1464              		.loc 1 514 0
ARM GAS  C:\Users\austc\AppData\Local\Temp\ccPDHU8c.s 			page 39


 1465 000c 114A     		ldr	r2, .L93
 1466 000e 1369     		ldr	r3, [r2, #16]
 1467 0010 E318     		adds	r3, r4, r3
 1468 0012 1361     		str	r3, [r2, #16]
 515:main.c        ****     int d = p - lastp;
 1469              		.loc 1 515 0
 1470 0014 5169     		ldr	r1, [r2, #20]
 1471 0016 651A     		subs	r5, r4, r1
 1472              	.LVL101:
 516:main.c        ****     lastp = current;
 1473              		.loc 1 516 0
 1474 0018 5061     		str	r0, [r2, #20]
 517:main.c        ****     if(uart_debug) {
 1475              		.loc 1 517 0
 1476 001a 0F4A     		ldr	r2, .L93+4
 1477 001c 1278     		ldrb	r2, [r2]
 1478 001e 002A     		cmp	r2, #0
 1479 0020 0AD0     		beq	.L92
 518:main.c        ****         sprintf(txData, "p: %d, i: %d d %d current %d\r\n",p, i, d, current);
 1480              		.loc 1 518 0
 1481 0022 0E4E     		ldr	r6, .L93+8
 1482 0024 0190     		str	r0, [sp, #4]
 1483 0026 0095     		str	r5, [sp]
 1484 0028 2200     		movs	r2, r4
 1485 002a 0D49     		ldr	r1, .L93+12
 1486 002c 3000     		movs	r0, r6
 1487              	.LVL102:
 1488 002e FFF7FEFF 		bl	sprintf
 1489              	.LVL103:
 519:main.c        ****         UART_UartPutString(txData);
 1490              		.loc 1 519 0
 1491 0032 3000     		movs	r0, r6
 1492 0034 FFF7FEFF 		bl	UART_UartPutString
 1493              	.LVL104:
 1494              	.L92:
 520:main.c        ****     }
 521:main.c        ****     return (p*kp + i*ki + d*kd);
 1495              		.loc 1 521 0
 1496 0038 074A     		ldr	r2, .L93+4
 1497 003a 1369     		ldr	r3, [r2, #16]
 1498 003c 5C43     		muls	r4, r3
 1499              	.LVL105:
 1500 003e 054B     		ldr	r3, .L93
 1501 0040 5069     		ldr	r0, [r2, #20]
 1502 0042 1A69     		ldr	r2, [r3, #16]
 1503 0044 5043     		muls	r0, r2
 1504 0046 2018     		adds	r0, r4, r0
 1505 0048 9B69     		ldr	r3, [r3, #24]
 1506 004a 6B43     		muls	r3, r5
 1507 004c C018     		adds	r0, r0, r3
 522:main.c        **** }
 1508              		.loc 1 522 0
 1509 004e 02B0     		add	sp, sp, #8
 1510              		@ sp needed
 1511              	.LVL106:
 1512 0050 70BD     		pop	{r4, r5, r6, pc}
 1513              	.L94:
ARM GAS  C:\Users\austc\AppData\Local\Temp\ccPDHU8c.s 			page 40


 1514 0052 C046     		.align	2
 1515              	.L93:
 1516 0054 00000000 		.word	.LANCHOR1
 1517 0058 00000000 		.word	.LANCHOR0
 1518 005c 00000000 		.word	txData
 1519 0060 BC010000 		.word	.LC77
 1520              		.cfi_endproc
 1521              	.LFE51:
 1522              		.size	position_PID, .-position_PID
 1523              		.section	.text.set_Position,"ax",%progbits
 1524              		.align	2
 1525              		.global	set_Position
 1526              		.code	16
 1527              		.thumb_func
 1528              		.type	set_Position, %function
 1529              	set_Position:
 1530              	.LFB49:
 478:main.c        ****     if(uart_debug) {
 1531              		.loc 1 478 0
 1532              		.cfi_startproc
 1533              		@ args = 0, pretend = 0, frame = 0
 1534              		@ frame_needed = 0, uses_anonymous_args = 0
 1535              	.LVL107:
 1536 0000 70B5     		push	{r4, r5, r6, lr}
 1537              		.cfi_def_cfa_offset 16
 1538              		.cfi_offset 4, -16
 1539              		.cfi_offset 5, -12
 1540              		.cfi_offset 6, -8
 1541              		.cfi_offset 14, -4
 1542 0002 0500     		movs	r5, r0
 479:main.c        ****         sprintf(txData, "complete: %d\r\n",complete);
 1543              		.loc 1 479 0
 1544 0004 1B4B     		ldr	r3, .L103
 1545 0006 1B78     		ldrb	r3, [r3]
 1546 0008 002B     		cmp	r3, #0
 1547 000a 2DD0     		beq	.L97
 480:main.c        ****         UART_UartPutString(txData);
 1548              		.loc 1 480 0
 1549 000c 1A4B     		ldr	r3, .L103+4
 1550 000e 1A78     		ldrb	r2, [r3]
 1551 0010 1A4C     		ldr	r4, .L103+8
 1552 0012 1B49     		ldr	r1, .L103+12
 1553 0014 2000     		movs	r0, r4
 1554              	.LVL108:
 1555 0016 FFF7FEFF 		bl	sprintf
 1556              	.LVL109:
 481:main.c        ****     }
 1557              		.loc 1 481 0
 1558 001a 2000     		movs	r0, r4
 1559 001c FFF7FEFF 		bl	UART_UartPutString
 1560              	.LVL110:
 1561 0020 22E0     		b	.L97
 1562              	.L102:
 1563              	.LBB10:
 484:main.c        ****         if(uart_debug) {
 1564              		.loc 1 484 0
 1565 0022 2800     		movs	r0, r5
ARM GAS  C:\Users\austc\AppData\Local\Temp\ccPDHU8c.s 			page 41


 1566 0024 FFF7FEFF 		bl	degrees_to_tick
 1567              	.LVL111:
 1568 0028 FFF7FEFF 		bl	position_PID
 1569              	.LVL112:
 1570 002c 0400     		movs	r4, r0
 1571              	.LVL113:
 485:main.c        ****             sprintf(txData, "PWM: %d\r\n",PWM);
 1572              		.loc 1 485 0
 1573 002e 114B     		ldr	r3, .L103
 1574 0030 1B78     		ldrb	r3, [r3]
 1575 0032 002B     		cmp	r3, #0
 1576 0034 08D0     		beq	.L98
 486:main.c        ****             UART_UartPutString(txData);
 1577              		.loc 1 486 0
 1578 0036 114E     		ldr	r6, .L103+8
 1579 0038 0200     		movs	r2, r0
 1580 003a 1249     		ldr	r1, .L103+16
 1581 003c 3000     		movs	r0, r6
 1582              	.LVL114:
 1583 003e FFF7FEFF 		bl	sprintf
 1584              	.LVL115:
 487:main.c        ****         }
 1585              		.loc 1 487 0
 1586 0042 3000     		movs	r0, r6
 1587 0044 FFF7FEFF 		bl	UART_UartPutString
 1588              	.LVL116:
 1589              	.L98:
 489:main.c        ****             set_PWM(maxV);   
 1590              		.loc 1 489 0
 1591 0048 0B4B     		ldr	r3, .L103+4
 1592 004a 187F     		ldrb	r0, [r3, #28]
 1593 004c 8442     		cmp	r4, r0
 1594 004e 02DD     		ble	.L99
 490:main.c        ****         } else if(PWM < -maxV) {
 1595              		.loc 1 490 0
 1596 0050 FFF7FEFF 		bl	set_PWM
 1597              	.LVL117:
 1598 0054 08E0     		b	.L97
 1599              	.L99:
 491:main.c        ****             set_PWM(-maxV);
 1600              		.loc 1 491 0
 1601 0056 4042     		rsbs	r0, r0, #0
 1602 0058 8442     		cmp	r4, r0
 1603 005a 02DA     		bge	.L101
 492:main.c        ****         } else {
 1604              		.loc 1 492 0
 1605 005c FFF7FEFF 		bl	set_PWM
 1606              	.LVL118:
 1607 0060 02E0     		b	.L97
 1608              	.L101:
 494:main.c        ****         }
 1609              		.loc 1 494 0
 1610 0062 2000     		movs	r0, r4
 1611 0064 FFF7FEFF 		bl	set_PWM
 1612              	.LVL119:
 1613              	.L97:
 1614              	.LBE10:
ARM GAS  C:\Users\austc\AppData\Local\Temp\ccPDHU8c.s 			page 42


 483:main.c        ****         int PWM = position_PID(degrees_to_tick(degrees));
 1615              		.loc 1 483 0
 1616 0068 034B     		ldr	r3, .L103+4
 1617 006a 1B78     		ldrb	r3, [r3]
 1618 006c 002B     		cmp	r3, #0
 1619 006e D8D0     		beq	.L102
 497:main.c        **** 
 1620              		.loc 1 497 0
 1621              		@ sp needed
 1622              	.LVL120:
 1623 0070 70BD     		pop	{r4, r5, r6, pc}
 1624              	.L104:
 1625 0072 C046     		.align	2
 1626              	.L103:
 1627 0074 00000000 		.word	.LANCHOR0
 1628 0078 00000000 		.word	.LANCHOR1
 1629 007c 00000000 		.word	txData
 1630 0080 DC010000 		.word	.LC82
 1631 0084 EC010000 		.word	.LC85
 1632              		.cfi_endproc
 1633              	.LFE49:
 1634              		.size	set_Position, .-set_Position
 1635              		.section	.text.main,"ax",%progbits
 1636              		.align	2
 1637              		.global	main
 1638              		.code	16
 1639              		.thumb_func
 1640              		.type	main, %function
 1641              	main:
 1642              	.LFB37:
  97:main.c        ****     stall.code = 0x01;
 1643              		.loc 1 97 0
 1644              		.cfi_startproc
 1645              		@ args = 0, pretend = 0, frame = 0
 1646              		@ frame_needed = 0, uses_anonymous_args = 0
 1647 0000 10B5     		push	{r4, lr}
 1648              		.cfi_def_cfa_offset 8
 1649              		.cfi_offset 4, -8
 1650              		.cfi_offset 14, -4
 1651 0002 82B0     		sub	sp, sp, #8
 1652              		.cfi_def_cfa_offset 16
  98:main.c        ****     stall.done = 1;
 1653              		.loc 1 98 0
 1654 0004 7A4A     		ldr	r2, .L124
 1655 0006 0123     		movs	r3, #1
 1656 0008 1370     		strb	r3, [r2]
  99:main.c        ****     command_failed.code = 0x02;
 1657              		.loc 1 99 0
 1658 000a 9370     		strb	r3, [r2, #2]
 100:main.c        ****     command_failed.done = 1;
 1659              		.loc 1 100 0
 1660 000c 794A     		ldr	r2, .L124+4
 1661 000e 0221     		movs	r1, #2
 1662 0010 1170     		strb	r1, [r2]
 101:main.c        ****     invalid_arg.code = 0x03;
 1663              		.loc 1 101 0
 1664 0012 9370     		strb	r3, [r2, #2]
ARM GAS  C:\Users\austc\AppData\Local\Temp\ccPDHU8c.s 			page 43


 102:main.c        ****     invalid_arg.done = 1;
 1665              		.loc 1 102 0
 1666 0014 784A     		ldr	r2, .L124+8
 1667 0016 0131     		adds	r1, r1, #1
 1668 0018 1170     		strb	r1, [r2]
 103:main.c        ****     uint8 error;
 1669              		.loc 1 103 0
 1670 001a 9370     		strb	r3, [r2, #2]
 106:main.c        ****     message.ide = MESSAGE_IDE;
 1671              		.loc 1 106 0
 1672 001c 774A     		ldr	r2, .L124+12
 1673 001e 0231     		adds	r1, r1, #2
 1674 0020 9171     		strb	r1, [r2, #6]
 107:main.c        ****     message.irq = MESSAGE_IRQ;
 1675              		.loc 1 107 0
 1676 0022 0024     		movs	r4, #0
 1677 0024 5471     		strb	r4, [r2, #5]
 108:main.c        ****     message.msg = &data;
 1678              		.loc 1 108 0
 1679 0026 D471     		strb	r4, [r2, #7]
 109:main.c        ****     message.rtr = MESSAGE_RTR;
 1680              		.loc 1 109 0
 1681 0028 7549     		ldr	r1, .L124+16
 1682 002a D160     		str	r1, [r2, #12]
 110:main.c        ****     
 1683              		.loc 1 110 0
 1684 002c 1471     		strb	r4, [r2, #4]
 112:main.c        ****     Can_rx_angle.done = 1;
 1685              		.loc 1 112 0
 1686 002e 754A     		ldr	r2, .L124+20
 1687 0030 5371     		strb	r3, [r2, #5]
 113:main.c        **** 
 1688              		.loc 1 113 0
 1689 0032 754A     		ldr	r2, .L124+24
 1690 0034 5371     		strb	r3, [r2, #5]
 115:main.c        ****     initialize_can_addr();
 1691              		.loc 1 115 0
 1692 0036 FFF7FEFF 		bl	initialize
 1693              	.LVL121:
 116:main.c        ****     int up = 0;
 1694              		.loc 1 116 0
 1695 003a FFF7FEFF 		bl	initialize_can_addr
 1696              	.LVL122:
 118:main.c        ****     set_PWM(0);
 1697              		.loc 1 118 0
 1698 003e 734B     		ldr	r3, .L124+28
 1699 0040 1C60     		str	r4, [r3]
 119:main.c        ****     for(;;)
 1700              		.loc 1 119 0
 1701 0042 0020     		movs	r0, #0
 1702 0044 FFF7FEFF 		bl	set_PWM
 1703              	.LVL123:
 1704              	.L106:
 122:main.c        **** 
 1705              		.loc 1 122 0
 1706 0048 714B     		ldr	r3, .L124+32
 1707 004a 1B79     		ldrb	r3, [r3, #4]
ARM GAS  C:\Users\austc\AppData\Local\Temp\ccPDHU8c.s 			page 44


 1708 004c 002B     		cmp	r3, #0
 1709 004e FBD1     		bne	.L106
 125:main.c        ****             
 1710              		.loc 1 125 0
 1711 0050 6C4B     		ldr	r3, .L124+20
 1712 0052 5979     		ldrb	r1, [r3, #5]
 1713 0054 6C4B     		ldr	r3, .L124+24
 1714 0056 5A79     		ldrb	r2, [r3, #5]
 1715 0058 4B42     		rsbs	r3, r1, #0
 1716 005a 4B41     		adcs	r3, r3, r1
 1717 005c 5042     		rsbs	r0, r2, #0
 1718 005e 4241     		adcs	r2, r2, r0
 1719 0060 1343     		orrs	r3, r2
 1720 0062 6B4A     		ldr	r2, .L124+32
 1721 0064 5377     		strb	r3, [r2, #29]
 128:main.c        ****             {           
 1722              		.loc 1 128 0
 1723 0066 537F     		ldrb	r3, [r2, #29]
 1724 0068 002B     		cmp	r3, #0
 1725 006a 72D0     		beq	.L107
 131:main.c        ****                     if(mode == 0) {
 1726              		.loc 1 131 0
 1727 006c 0029     		cmp	r1, #0
 1728 006e 34D1     		bne	.L108
 132:main.c        ****                         if(uart_debug) {
 1729              		.loc 1 132 0
 1730 0070 684B     		ldr	r3, .L124+36
 1731 0072 9A7A     		ldrb	r2, [r3, #10]
 1732 0074 002A     		cmp	r2, #0
 1733 0076 1FD1     		bne	.L109
 133:main.c        ****                             sprintf(txData, "B1: %d, B2: %d done %x\r\n",Can_rx_pwm.b1, Can_rx_pwm.
 1734              		.loc 1 133 0
 1735 0078 1B78     		ldrb	r3, [r3]
 1736 007a 002B     		cmp	r3, #0
 1737 007c 0BD0     		beq	.L110
 134:main.c        ****                             UART_UartPutString(txData);
 1738              		.loc 1 134 0
 1739 007e 614B     		ldr	r3, .L124+20
 1740 0080 5A78     		ldrb	r2, [r3, #1]
 1741 0082 9B78     		ldrb	r3, [r3, #2]
 1742 0084 644C     		ldr	r4, .L124+40
 1743 0086 0091     		str	r1, [sp]
 1744 0088 6449     		ldr	r1, .L124+44
 1745 008a 2000     		movs	r0, r4
 1746 008c FFF7FEFF 		bl	sprintf
 1747              	.LVL124:
 135:main.c        ****                         }
 1748              		.loc 1 135 0
 1749 0090 2000     		movs	r0, r4
 1750 0092 FFF7FEFF 		bl	UART_UartPutString
 1751              	.LVL125:
 1752              	.L110:
 137:main.c        ****                         if(Can_rx_pwm.b2 & 0b01) {
 1753              		.loc 1 137 0
 1754 0096 5B4B     		ldr	r3, .L124+20
 1755 0098 0122     		movs	r2, #1
 1756 009a 5A71     		strb	r2, [r3, #5]
ARM GAS  C:\Users\austc\AppData\Local\Temp\ccPDHU8c.s 			page 45


 138:main.c        ****                             set_PWM((int)Can_rx_pwm.b1);
 1757              		.loc 1 138 0
 1758 009c 9B78     		ldrb	r3, [r3, #2]
 1759 009e DB07     		lsls	r3, r3, #31
 1760 00a0 04D5     		bpl	.L111
 139:main.c        ****                         }
 1761              		.loc 1 139 0
 1762 00a2 584B     		ldr	r3, .L124+20
 1763 00a4 5878     		ldrb	r0, [r3, #1]
 1764 00a6 FFF7FEFF 		bl	set_PWM
 1765              	.LVL126:
 1766 00aa 16E0     		b	.L108
 1767              	.L111:
 142:main.c        ****                         }
 1768              		.loc 1 142 0
 1769 00ac 554B     		ldr	r3, .L124+20
 1770 00ae 5878     		ldrb	r0, [r3, #1]
 1771 00b0 4042     		rsbs	r0, r0, #0
 1772 00b2 FFF7FEFF 		bl	set_PWM
 1773              	.LVL127:
 1774 00b6 10E0     		b	.L108
 1775              	.L109:
 145:main.c        ****                         command_failed.param = 0x02;
 1776              		.loc 1 145 0
 1777 00b8 4E4B     		ldr	r3, .L124+4
 1778 00ba 0021     		movs	r1, #0
 1779 00bc 9970     		strb	r1, [r3, #2]
 146:main.c        ****                         if(uart_debug) {
 1780              		.loc 1 146 0
 1781 00be 0231     		adds	r1, r1, #2
 1782 00c0 5970     		strb	r1, [r3, #1]
 147:main.c        ****                             sprintf(txData, "Mode is not set to 0, mode is %d\r\n",mode);
 1783              		.loc 1 147 0
 1784 00c2 544B     		ldr	r3, .L124+36
 1785 00c4 1B78     		ldrb	r3, [r3]
 1786 00c6 002B     		cmp	r3, #0
 1787 00c8 07D0     		beq	.L108
 148:main.c        ****                             UART_UartPutString(txData);
 1788              		.loc 1 148 0
 1789 00ca 534C     		ldr	r4, .L124+40
 1790 00cc 5449     		ldr	r1, .L124+48
 1791 00ce 2000     		movs	r0, r4
 1792 00d0 FFF7FEFF 		bl	sprintf
 1793              	.LVL128:
 149:main.c        ****                         }
 1794              		.loc 1 149 0
 1795 00d4 2000     		movs	r0, r4
 1796 00d6 FFF7FEFF 		bl	UART_UartPutString
 1797              	.LVL129:
 1798              	.L108:
 155:main.c        ****                     if(mode == 1){
 1799              		.loc 1 155 0
 1800 00da 4B4B     		ldr	r3, .L124+24
 1801 00dc 5B79     		ldrb	r3, [r3, #5]
 1802 00de 002B     		cmp	r3, #0
 1803 00e0 32D1     		bne	.L112
 156:main.c        ****                         if(uart_debug) {
ARM GAS  C:\Users\austc\AppData\Local\Temp\ccPDHU8c.s 			page 46


 1804              		.loc 1 156 0
 1805 00e2 4C4B     		ldr	r3, .L124+36
 1806 00e4 9A7A     		ldrb	r2, [r3, #10]
 1807 00e6 012A     		cmp	r2, #1
 1808 00e8 1DD1     		bne	.L113
 157:main.c        ****                             sprintf(txData, "B1: %d, B3: %d done %x\r\n",Can_rx_angle.b1, Can_rx_an
 1809              		.loc 1 157 0
 1810 00ea 1B78     		ldrb	r3, [r3]
 1811 00ec 002B     		cmp	r3, #0
 1812 00ee 0DD0     		beq	.L114
 158:main.c        ****                             UART_UartPutString(txData);
 1813              		.loc 1 158 0
 1814 00f0 454B     		ldr	r3, .L124+24
 1815 00f2 5A78     		ldrb	r2, [r3, #1]
 1816 00f4 DB78     		ldrb	r3, [r3, #3]
 1817 00f6 4349     		ldr	r1, .L124+20
 1818 00f8 4979     		ldrb	r1, [r1, #5]
 1819 00fa 474C     		ldr	r4, .L124+40
 1820 00fc 0091     		str	r1, [sp]
 1821 00fe 4949     		ldr	r1, .L124+52
 1822 0100 2000     		movs	r0, r4
 1823 0102 FFF7FEFF 		bl	sprintf
 1824              	.LVL130:
 159:main.c        ****                         }
 1825              		.loc 1 159 0
 1826 0106 2000     		movs	r0, r4
 1827 0108 FFF7FEFF 		bl	UART_UartPutString
 1828              	.LVL131:
 1829              	.L114:
 161:main.c        ****                         complete = 0;
 1830              		.loc 1 161 0
 1831 010c 3E4B     		ldr	r3, .L124+24
 1832 010e 0122     		movs	r2, #1
 1833 0110 5A71     		strb	r2, [r3, #5]
 162:main.c        ****                         maxV = Can_rx_angle.b3;
 1834              		.loc 1 162 0
 1835 0112 3F4A     		ldr	r2, .L124+32
 1836 0114 0021     		movs	r1, #0
 1837 0116 1170     		strb	r1, [r2]
 163:main.c        ****                         i = 0;
 1838              		.loc 1 163 0
 1839 0118 D878     		ldrb	r0, [r3, #3]
 1840 011a 1077     		strb	r0, [r2, #28]
 164:main.c        ****                         set_Position(Can_rx_angle.b1);
 1841              		.loc 1 164 0
 1842 011c 1161     		str	r1, [r2, #16]
 165:main.c        ****                     }
 1843              		.loc 1 165 0
 1844 011e 5878     		ldrb	r0, [r3, #1]
 1845 0120 FFF7FEFF 		bl	set_Position
 1846              	.LVL132:
 1847 0124 10E0     		b	.L112
 1848              	.L113:
 168:main.c        ****                         command_failed.param = 0x04;
 1849              		.loc 1 168 0
 1850 0126 334B     		ldr	r3, .L124+4
 1851 0128 0021     		movs	r1, #0
ARM GAS  C:\Users\austc\AppData\Local\Temp\ccPDHU8c.s 			page 47


 1852 012a 9970     		strb	r1, [r3, #2]
 169:main.c        ****                         if(uart_debug) {
 1853              		.loc 1 169 0
 1854 012c 0431     		adds	r1, r1, #4
 1855 012e 5970     		strb	r1, [r3, #1]
 170:main.c        ****                             sprintf(txData, "Mode is not set to 1, mode is %d\r\n", mode);
 1856              		.loc 1 170 0
 1857 0130 384B     		ldr	r3, .L124+36
 1858 0132 1B78     		ldrb	r3, [r3]
 1859 0134 002B     		cmp	r3, #0
 1860 0136 07D0     		beq	.L112
 171:main.c        ****                             UART_UartPutString(txData);
 1861              		.loc 1 171 0
 1862 0138 374C     		ldr	r4, .L124+40
 1863 013a 3B49     		ldr	r1, .L124+56
 1864 013c 2000     		movs	r0, r4
 1865 013e FFF7FEFF 		bl	sprintf
 1866              	.LVL133:
 172:main.c        ****                         }
 1867              		.loc 1 172 0
 1868 0142 2000     		movs	r0, r4
 1869 0144 FFF7FEFF 		bl	UART_UartPutString
 1870              	.LVL134:
 1871              	.L112:
 178:main.c        ****                     Can_rx_pwm.done = 1;
 1872              		.loc 1 178 0
 1873 0148 0123     		movs	r3, #1
 1874 014a 2F4A     		ldr	r2, .L124+24
 1875 014c 5371     		strb	r3, [r2, #5]
 179:main.c        ****                 }
 1876              		.loc 1 179 0
 1877 014e 2D4A     		ldr	r2, .L124+20
 1878 0150 5371     		strb	r3, [r2, #5]
 1879              	.L107:
 184:main.c        ****             
 1880              		.loc 1 184 0
 1881 0152 274B     		ldr	r3, .L124
 1882 0154 9978     		ldrb	r1, [r3, #2]
 1883 0156 284B     		ldr	r3, .L124+8
 1884 0158 9A78     		ldrb	r2, [r3, #2]
 1885 015a 4B42     		rsbs	r3, r1, #0
 1886 015c 4B41     		adcs	r3, r3, r1
 1887 015e 5042     		rsbs	r0, r2, #0
 1888 0160 4241     		adcs	r2, r2, r0
 1889 0162 1343     		orrs	r3, r2
 1890 0164 234A     		ldr	r2, .L124+4
 1891 0166 9278     		ldrb	r2, [r2, #2]
 1892 0168 5042     		rsbs	r0, r2, #0
 1893 016a 4241     		adcs	r2, r2, r0
 1894 016c D2B2     		uxtb	r2, r2
 1895              	.LVL135:
 187:main.c        ****                 if(!stall.done) {
 1896              		.loc 1 187 0
 1897 016e 002B     		cmp	r3, #0
 1898 0170 01D1     		bne	.L123
 1899 0172 002A     		cmp	r2, #0
 1900 0174 1ED0     		beq	.L115
ARM GAS  C:\Users\austc\AppData\Local\Temp\ccPDHU8c.s 			page 48


 1901              	.L123:
 188:main.c        ****                     CAN_Send_Error(stall.code, stall.param);
 1902              		.loc 1 188 0
 1903 0176 0029     		cmp	r1, #0
 1904 0178 06D1     		bne	.L117
 189:main.c        ****                     stall.done = 1;
 1905              		.loc 1 189 0
 1906 017a 1D4C     		ldr	r4, .L124
 1907 017c 6178     		ldrb	r1, [r4, #1]
 1908 017e 2078     		ldrb	r0, [r4]
 1909 0180 FFF7FEFF 		bl	CAN_Send_Error
 1910              	.LVL136:
 190:main.c        ****                 }
 1911              		.loc 1 190 0
 1912 0184 0123     		movs	r3, #1
 1913 0186 A370     		strb	r3, [r4, #2]
 1914              	.L117:
 192:main.c        ****                     CAN_Send_Error(invalid_arg.code, invalid_arg.param);
 1915              		.loc 1 192 0
 1916 0188 1B4B     		ldr	r3, .L124+8
 1917 018a 9B78     		ldrb	r3, [r3, #2]
 1918 018c 002B     		cmp	r3, #0
 1919 018e 06D1     		bne	.L118
 193:main.c        ****                     invalid_arg.done = 1;
 1920              		.loc 1 193 0
 1921 0190 194C     		ldr	r4, .L124+8
 1922 0192 6178     		ldrb	r1, [r4, #1]
 1923 0194 2078     		ldrb	r0, [r4]
 1924 0196 FFF7FEFF 		bl	CAN_Send_Error
 1925              	.LVL137:
 194:main.c        ****                 }
 1926              		.loc 1 194 0
 1927 019a 0123     		movs	r3, #1
 1928 019c A370     		strb	r3, [r4, #2]
 1929              	.L118:
 196:main.c        ****                     CAN_Send_Error(command_failed.code, command_failed.param);
 1930              		.loc 1 196 0
 1931 019e 154B     		ldr	r3, .L124+4
 1932 01a0 9B78     		ldrb	r3, [r3, #2]
 1933 01a2 002B     		cmp	r3, #0
 1934 01a4 06D1     		bne	.L115
 197:main.c        ****                     command_failed.done = 1;
 1935              		.loc 1 197 0
 1936 01a6 134C     		ldr	r4, .L124+4
 1937 01a8 6178     		ldrb	r1, [r4, #1]
 1938 01aa 2078     		ldrb	r0, [r4]
 1939 01ac FFF7FEFF 		bl	CAN_Send_Error
 1940              	.LVL138:
 198:main.c        ****                 }
 1941              		.loc 1 198 0
 1942 01b0 0123     		movs	r3, #1
 1943 01b2 A370     		strb	r3, [r4, #2]
 1944              	.L115:
 203:main.c        ****                 if(uart_debug) {
 1945              		.loc 1 203 0
 1946 01b4 174B     		ldr	r3, .L124+36
 1947 01b6 9B7B     		ldrb	r3, [r3, #14]
ARM GAS  C:\Users\austc\AppData\Local\Temp\ccPDHU8c.s 			page 49


 1948 01b8 002B     		cmp	r3, #0
 1949 01ba 0DD0     		beq	.L119
 204:main.c        ****                     sprintf(txData,"\nSending Data... \r\n");
 1950              		.loc 1 204 0
 1951 01bc 154B     		ldr	r3, .L124+36
 1952 01be 1B78     		ldrb	r3, [r3]
 1953 01c0 002B     		cmp	r3, #0
 1954 01c2 04D0     		beq	.L120
 205:main.c        ****                    // UART_UartPutString(txData);
 1955              		.loc 1 205 0
 1956 01c4 1422     		movs	r2, #20
 1957 01c6 1949     		ldr	r1, .L124+60
 1958 01c8 1348     		ldr	r0, .L124+40
 1959 01ca FFF7FEFF 		bl	memcpy
 1960              	.LVL139:
 1961              	.L120:
 208:main.c        ****                 send_data = 0;
 1962              		.loc 1 208 0
 1963 01ce FFF7FEFF 		bl	CAN_Send_Encoder
 1964              	.LVL140:
 209:main.c        ****             }
 1965              		.loc 1 209 0
 1966 01d2 0022     		movs	r2, #0
 1967 01d4 0F4B     		ldr	r3, .L124+36
 1968 01d6 9A73     		strb	r2, [r3, #14]
 1969              	.L119:
 213:main.c        ****                 CAN_Send_Model();
 1970              		.loc 1 213 0
 1971 01d8 0D4B     		ldr	r3, .L124+32
 1972 01da 5B78     		ldrb	r3, [r3, #1]
 1973 01dc 002B     		cmp	r3, #0
 1974 01de 00D1     		bne	.LCB1747
 1975 01e0 32E7     		b	.L106	@long jump
 1976              	.LCB1747:
 214:main.c        ****                 model_req = 0;
 1977              		.loc 1 214 0
 1978 01e2 FFF7FEFF 		bl	CAN_Send_Model
 1979              	.LVL141:
 215:main.c        ****             }
 1980              		.loc 1 215 0
 1981 01e6 0022     		movs	r2, #0
 1982 01e8 094B     		ldr	r3, .L124+32
 1983 01ea 5A70     		strb	r2, [r3, #1]
 1984 01ec 2CE7     		b	.L106
 1985              	.L125:
 1986 01ee C046     		.align	2
 1987              	.L124:
 1988 01f0 00000000 		.word	stall
 1989 01f4 00000000 		.word	command_failed
 1990 01f8 00000000 		.word	invalid_arg
 1991 01fc 00000000 		.word	message
 1992 0200 00000000 		.word	data
 1993 0204 00000000 		.word	Can_rx_pwm
 1994 0208 00000000 		.word	Can_rx_angle
 1995 020c 00000000 		.word	pwm_compare
 1996 0210 00000000 		.word	.LANCHOR1
 1997 0214 00000000 		.word	.LANCHOR0
ARM GAS  C:\Users\austc\AppData\Local\Temp\ccPDHU8c.s 			page 50


 1998 0218 00000000 		.word	txData
 1999 021c F8010000 		.word	.LC97
 2000 0220 14020000 		.word	.LC100
 2001 0224 38020000 		.word	.LC102
 2002 0228 54020000 		.word	.LC104
 2003 022c 78020000 		.word	.LC106
 2004              		.cfi_endproc
 2005              	.LFE37:
 2006              		.size	main, .-main
 2007              		.global	drive
 2008              		.comm	message,16,4
 2009              		.comm	data,8,4
 2010              		.comm	txData,100,4
 2011              		.global	emergency
 2012              		.global	mailbox
 2013              		.comm	invalid_arg,3,4
 2014              		.comm	command_failed,3,4
 2015              		.comm	stall,3,4
 2016              		.comm	Can_rx_angle,6,4
 2017              		.comm	Can_rx_pwm,6,4
 2018              		.global	disable_limit
 2019              		.global	model_req
 2020              		.global	send_data
 2021              		.global	mode
 2022              		.global	maxV
 2023              		.global	complete
 2024              		.comm	ratio,8,8
 2025              		.global	kd
 2026              		.global	ki
 2027              		.global	kp
 2028              		.global	lastp
 2029              		.global	i
 2030              		.global	invalidate
 2031              		.comm	pwm_compare,4,4
 2032              		.comm	GEAR_RATIO,4,4
 2033              		.global	uart_debug
 2034              		.comm	CAN_TIMEOUT,4,4
 2035              		.global	CAN_RX_MAILBOX_0
 2036              		.global	CAN_RX_MAILBOX_1
 2037              		.global	CAN_RX_MAILBOX_0_SHIFT
 2038              		.global	CAN_RX_MAILBOX_1_SHIFT
 2039              		.global	message_id
 2040              		.data
 2041              		.align	2
 2042              		.set	.LANCHOR0,. + 0
 2043              		.type	uart_debug, %object
 2044              		.size	uart_debug, 1
 2045              	uart_debug:
 2046 0000 02       		.byte	2
 2047 0001 000000   		.space	3
 2048              		.type	CAN_RX_MAILBOX_0_SHIFT, %object
 2049              		.size	CAN_RX_MAILBOX_0_SHIFT, 4
 2050              	CAN_RX_MAILBOX_0_SHIFT:
 2051 0004 80000000 		.word	128
 2052              		.type	CAN_RX_MAILBOX_0, %object
 2053              		.size	CAN_RX_MAILBOX_0, 2
 2054              	CAN_RX_MAILBOX_0:
ARM GAS  C:\Users\austc\AppData\Local\Temp\ccPDHU8c.s 			page 51


 2055 0008 0700     		.short	7
 2056              		.type	mode, %object
 2057              		.size	mode, 1
 2058              	mode:
 2059 000a 02       		.byte	2
 2060 000b 00       		.space	1
 2061              		.type	CAN_RX_MAILBOX_1_SHIFT, %object
 2062              		.size	CAN_RX_MAILBOX_1_SHIFT, 2
 2063              	CAN_RX_MAILBOX_1_SHIFT:
 2064 000c 0100     		.short	1
 2065              		.type	send_data, %object
 2066              		.size	send_data, 1
 2067              	send_data:
 2068 000e 01       		.byte	1
 2069 000f 00       		.space	1
 2070              		.type	kp, %object
 2071              		.size	kp, 4
 2072              	kp:
 2073 0010 01000000 		.word	1
 2074              		.type	ki, %object
 2075              		.size	ki, 4
 2076              	ki:
 2077 0014 01000000 		.word	1
 2078              		.section	.rodata.str1.4,"aMS",%progbits,1
 2079              		.align	2
 2080              	.LC1:
 2081 0000 0A204361 		.ascii	"\012 Can rx triggered\012\000"
 2081      6E207278 
 2081      20747269 
 2081      67676572 
 2081      65640A00 
 2082              	.LC3:
 2083 0014 50302072 		.ascii	"P0 recieved\012\000"
 2083      65636965 
 2083      7665640A 
 2083      00
 2084 0021 000000   		.space	3
 2085              	.LC9:
 2086 0024 50312072 		.ascii	"P1 recieved\012\012\000"
 2086      65636965 
 2086      7665640A 
 2086      0A00
 2087 0032 0000     		.space	2
 2088              	.LC16:
 2089 0034 43414E5F 		.ascii	"CAN_Start():  %u\015\012\000"
 2089      53746172 
 2089      7428293A 
 2089      20202575 
 2089      0D0A00
 2090 0047 00       		.space	1
 2091              	.LC25:
 2092 0048 43414E20 		.ascii	"CAN dip setting:  %x Message ID: %ld\015\012\000"
 2092      64697020 
 2092      73657474 
 2092      696E673A 
 2092      20202578 
 2093 006f 00       		.space	1
ARM GAS  C:\Users\austc\AppData\Local\Temp\ccPDHU8c.s 			page 52


 2094              	.LC28:
 2095 0070 43616E20 		.ascii	"Can shift: %d   P0Mailbox: %d P1Mailbox %d\015\012\000"
 2095      73686966 
 2095      743A2025 
 2095      64202020 
 2095      50304D61 
 2096 009d 000000   		.space	3
 2097              	.LC32:
 2098 00a0 50657269 		.ascii	"Period interupt triggerd %x\015\012\000"
 2098      6F642069 
 2098      6E746572 
 2098      75707420 
 2098      74726967 
 2099 00be 0000     		.space	2
 2100              	.LC38:
 2101 00c0 4C696D69 		.ascii	"Limit interupt triggerd\015\012\000"
 2101      7420696E 
 2101      74657275 
 2101      70742074 
 2101      72696767 
 2102 00da 0000     		.space	2
 2103              	.LC44:
 2104 00dc 43414E5F 		.ascii	"CAN_Send_Encoder: byte[0u] %x byte[1u] %x byte[2u] "
 2104      53656E64 
 2104      5F456E63 
 2104      6F646572 
 2104      3A206279 
 2105 010f 25780A20 		.ascii	"%x\012 QuadDec Count %d\015\012\000"
 2105      51756164 
 2105      44656320 
 2105      436F756E 
 2105      74202564 
 2106 0126 0000     		.space	2
 2107              	.LC50:
 2108 0128 54656C65 		.ascii	"Telemerty: byte[0u] %x byte[1u] %x\015\012\000"
 2108      6D657274 
 2108      793A2062 
 2108      7974655B 
 2108      30755D20 
 2109 014d 000000   		.space	3
 2110              	.LC56:
 2111 0150 4D6F6465 		.ascii	"Model: byte[0u] %x byte[1u] %x\015\012\000"
 2111      6C3A2062 
 2111      7974655B 
 2111      30755D20 
 2111      25782062 
 2112 0171 000000   		.space	3
 2113              	.LC62:
 2114 0174 4572726F 		.ascii	"Error: byte[0u] %x byte[1u] %x byte[2u] %x\015\012\000"
 2114      723A2062 
 2114      7974655B 
 2114      30755D20 
 2114      25782062 
 2115 01a1 000000   		.space	3
 2116              	.LC72:
 2117 01a4 64656772 		.ascii	"degree: %d ticks: %d\015\012\000"
 2117      65653A20 
ARM GAS  C:\Users\austc\AppData\Local\Temp\ccPDHU8c.s 			page 53


 2117      25642074 
 2117      69636B73 
 2117      3A202564 
 2118 01bb 00       		.space	1
 2119              	.LC77:
 2120 01bc 703A2025 		.ascii	"p: %d, i: %d d %d current %d\015\012\000"
 2120      642C2069 
 2120      3A202564 
 2120      20642025 
 2120      64206375 
 2121 01db 00       		.space	1
 2122              	.LC82:
 2123 01dc 636F6D70 		.ascii	"complete: %d\015\012\000"
 2123      6C657465 
 2123      3A202564 
 2123      0D0A00
 2124 01eb 00       		.space	1
 2125              	.LC85:
 2126 01ec 50574D3A 		.ascii	"PWM: %d\015\012\000"
 2126      2025640D 
 2126      0A00
 2127 01f6 0000     		.space	2
 2128              	.LC97:
 2129 01f8 42313A20 		.ascii	"B1: %d, B2: %d done %x\015\012\000"
 2129      25642C20 
 2129      42323A20 
 2129      25642064 
 2129      6F6E6520 
 2130 0211 000000   		.space	3
 2131              	.LC100:
 2132 0214 4D6F6465 		.ascii	"Mode is not set to 0, mode is %d\015\012\000"
 2132      20697320 
 2132      6E6F7420 
 2132      73657420 
 2132      746F2030 
 2133 0237 00       		.space	1
 2134              	.LC102:
 2135 0238 42313A20 		.ascii	"B1: %d, B3: %d done %x\015\012\000"
 2135      25642C20 
 2135      42333A20 
 2135      25642064 
 2135      6F6E6520 
 2136 0251 000000   		.space	3
 2137              	.LC104:
 2138 0254 4D6F6465 		.ascii	"Mode is not set to 1, mode is %d\015\012\000"
 2138      20697320 
 2138      6E6F7420 
 2138      73657420 
 2138      746F2031 
 2139 0277 00       		.space	1
 2140              	.LC106:
 2141 0278 0A53656E 		.ascii	"\012Sending Data... \015\012\000"
 2141      64696E67 
 2141      20446174 
 2141      612E2E2E 
 2141      200D0A00 
 2142              		.bss
ARM GAS  C:\Users\austc\AppData\Local\Temp\ccPDHU8c.s 			page 54


 2143              		.align	2
 2144              		.set	.LANCHOR1,. + 0
 2145              		.type	complete, %object
 2146              		.size	complete, 1
 2147              	complete:
 2148 0000 00       		.space	1
 2149              		.type	model_req, %object
 2150              		.size	model_req, 1
 2151              	model_req:
 2152 0001 00       		.space	1
 2153              		.type	CAN_RX_MAILBOX_1, %object
 2154              		.size	CAN_RX_MAILBOX_1, 2
 2155              	CAN_RX_MAILBOX_1:
 2156 0002 0000     		.space	2
 2157              		.type	emergency, %object
 2158              		.size	emergency, 1
 2159              	emergency:
 2160 0004 00       		.space	1
 2161 0005 000000   		.space	3
 2162              		.type	message_id, %object
 2163              		.size	message_id, 4
 2164              	message_id:
 2165 0008 00000000 		.space	4
 2166              		.type	disable_limit, %object
 2167              		.size	disable_limit, 1
 2168              	disable_limit:
 2169 000c 00       		.space	1
 2170              		.type	invalidate, %object
 2171              		.size	invalidate, 1
 2172              	invalidate:
 2173 000d 00       		.space	1
 2174 000e 0000     		.space	2
 2175              		.type	i, %object
 2176              		.size	i, 4
 2177              	i:
 2178 0010 00000000 		.space	4
 2179              		.type	lastp, %object
 2180              		.size	lastp, 4
 2181              	lastp:
 2182 0014 00000000 		.space	4
 2183              		.type	kd, %object
 2184              		.size	kd, 4
 2185              	kd:
 2186 0018 00000000 		.space	4
 2187              		.type	maxV, %object
 2188              		.size	maxV, 1
 2189              	maxV:
 2190 001c 00       		.space	1
 2191              		.type	drive, %object
 2192              		.size	drive, 1
 2193              	drive:
 2194 001d 00       		.space	1
 2195 001e 0000     		.space	2
 2196              		.type	mailbox, %object
 2197              		.size	mailbox, 4
 2198              	mailbox:
 2199 0020 00000000 		.space	4
ARM GAS  C:\Users\austc\AppData\Local\Temp\ccPDHU8c.s 			page 55


 2200              		.text
 2201              	.Letext0:
 2202              		.file 2 "Generated_Source\\PSoC4/cytypes.h"
 2203              		.file 3 "./cyapicallbacks.h"
 2204              		.file 4 "Generated_Source\\PSoC4/CAN.h"
 2205              		.file 5 "Generated_Source\\PSoC4/UART_SPI_UART.h"
 2206              		.file 6 "Generated_Source\\PSoC4/PWM_Motor.h"
 2207              		.file 7 "Generated_Source\\PSoC4/Status_Reg_Switches.h"
 2208              		.file 8 "Generated_Source\\PSoC4/Timer_1.h"
 2209              		.file 9 "Generated_Source\\PSoC4/QuadDec.h"
 2210              		.file 10 "Generated_Source\\PSoC4/CyLib.h"
 2211              		.file 11 "Generated_Source\\PSoC4/isr_Limit_1.h"
 2212              		.file 12 "Generated_Source\\PSoC4/isr_period.h"
 2213              		.file 13 "Generated_Source\\PSoC4/UART.h"
 2214              		.file 14 "c:\\program files (x86)\\cypress\\psoc creator\\4.2\\psoc creator\\import\\gnu\\arm\\5.4
 2215              		.file 15 "Generated_Source\\PSoC4/Can_addr.h"
 2216              		.file 16 "Generated_Source\\PSoC4/Pin_Direction.h"
 2217              		.section	.debug_info,"",%progbits
 2218              	.Ldebug_info0:
 2219 0000 490F0000 		.4byte	0xf49
 2220 0004 0400     		.2byte	0x4
 2221 0006 00000000 		.4byte	.Ldebug_abbrev0
 2222 000a 04       		.byte	0x4
 2223 000b 01       		.uleb128 0x1
 2224 000c 6B010000 		.4byte	.LASF115
 2225 0010 0C       		.byte	0xc
 2226 0011 5C000000 		.4byte	.LASF116
 2227 0015 00000000 		.4byte	.LASF117
 2228 0019 00000000 		.4byte	.Ldebug_ranges0+0
 2229 001d 00000000 		.4byte	0
 2230 0021 00000000 		.4byte	.Ldebug_line0
 2231 0025 02       		.uleb128 0x2
 2232 0026 01       		.byte	0x1
 2233 0027 06       		.byte	0x6
 2234 0028 DF050000 		.4byte	.LASF0
 2235 002c 02       		.uleb128 0x2
 2236 002d 01       		.byte	0x1
 2237 002e 08       		.byte	0x8
 2238 002f 99050000 		.4byte	.LASF1
 2239 0033 02       		.uleb128 0x2
 2240 0034 02       		.byte	0x2
 2241 0035 05       		.byte	0x5
 2242 0036 AA040000 		.4byte	.LASF2
 2243 003a 02       		.uleb128 0x2
 2244 003b 02       		.byte	0x2
 2245 003c 07       		.byte	0x7
 2246 003d EB050000 		.4byte	.LASF3
 2247 0041 02       		.uleb128 0x2
 2248 0042 04       		.byte	0x4
 2249 0043 05       		.byte	0x5
 2250 0044 BA040000 		.4byte	.LASF4
 2251 0048 02       		.uleb128 0x2
 2252 0049 04       		.byte	0x4
 2253 004a 07       		.byte	0x7
 2254 004b 62050000 		.4byte	.LASF5
 2255 004f 02       		.uleb128 0x2
 2256 0050 08       		.byte	0x8
ARM GAS  C:\Users\austc\AppData\Local\Temp\ccPDHU8c.s 			page 56


 2257 0051 05       		.byte	0x5
 2258 0052 81030000 		.4byte	.LASF6
 2259 0056 02       		.uleb128 0x2
 2260 0057 08       		.byte	0x8
 2261 0058 07       		.byte	0x7
 2262 0059 21010000 		.4byte	.LASF7
 2263 005d 03       		.uleb128 0x3
 2264 005e 04       		.byte	0x4
 2265 005f 05       		.byte	0x5
 2266 0060 696E7400 		.ascii	"int\000"
 2267 0064 02       		.uleb128 0x2
 2268 0065 04       		.byte	0x4
 2269 0066 07       		.byte	0x7
 2270 0067 BB000000 		.4byte	.LASF8
 2271 006b 04       		.uleb128 0x4
 2272 006c 12060000 		.4byte	.LASF9
 2273 0070 02       		.byte	0x2
 2274 0071 E401     		.2byte	0x1e4
 2275 0073 2C000000 		.4byte	0x2c
 2276 0077 04       		.uleb128 0x4
 2277 0078 1D030000 		.4byte	.LASF10
 2278 007c 02       		.byte	0x2
 2279 007d E501     		.2byte	0x1e5
 2280 007f 3A000000 		.4byte	0x3a
 2281 0083 04       		.uleb128 0x4
 2282 0084 EC030000 		.4byte	.LASF11
 2283 0088 02       		.byte	0x2
 2284 0089 E601     		.2byte	0x1e6
 2285 008b 48000000 		.4byte	0x48
 2286 008f 04       		.uleb128 0x4
 2287 0090 DC000000 		.4byte	.LASF12
 2288 0094 02       		.byte	0x2
 2289 0095 E801     		.2byte	0x1e8
 2290 0097 33000000 		.4byte	0x33
 2291 009b 02       		.uleb128 0x2
 2292 009c 04       		.byte	0x4
 2293 009d 04       		.byte	0x4
 2294 009e 15010000 		.4byte	.LASF13
 2295 00a2 02       		.uleb128 0x2
 2296 00a3 08       		.byte	0x8
 2297 00a4 04       		.byte	0x4
 2298 00a5 18060000 		.4byte	.LASF14
 2299 00a9 04       		.uleb128 0x4
 2300 00aa 4D030000 		.4byte	.LASF15
 2301 00ae 02       		.byte	0x2
 2302 00af F501     		.2byte	0x1f5
 2303 00b1 B5000000 		.4byte	0xb5
 2304 00b5 02       		.uleb128 0x2
 2305 00b6 01       		.byte	0x1
 2306 00b7 08       		.byte	0x8
 2307 00b8 DE020000 		.4byte	.LASF16
 2308 00bc 04       		.uleb128 0x4
 2309 00bd E2000000 		.4byte	.LASF17
 2310 00c1 02       		.byte	0x2
 2311 00c2 8E02     		.2byte	0x28e
 2312 00c4 C8000000 		.4byte	0xc8
 2313 00c8 05       		.uleb128 0x5
ARM GAS  C:\Users\austc\AppData\Local\Temp\ccPDHU8c.s 			page 57


 2314 00c9 6B000000 		.4byte	0x6b
 2315 00cd 04       		.uleb128 0x4
 2316 00ce 38040000 		.4byte	.LASF18
 2317 00d2 02       		.byte	0x2
 2318 00d3 9002     		.2byte	0x290
 2319 00d5 D9000000 		.4byte	0xd9
 2320 00d9 05       		.uleb128 0x5
 2321 00da 83000000 		.4byte	0x83
 2322 00de 02       		.uleb128 0x2
 2323 00df 08       		.byte	0x8
 2324 00e0 04       		.byte	0x4
 2325 00e1 1C040000 		.4byte	.LASF19
 2326 00e5 02       		.uleb128 0x2
 2327 00e6 04       		.byte	0x4
 2328 00e7 07       		.byte	0x7
 2329 00e8 59050000 		.4byte	.LASF20
 2330 00ec 06       		.uleb128 0x6
 2331 00ed 51010000 		.4byte	.LASF22
 2332 00f1 06       		.byte	0x6
 2333 00f2 03       		.byte	0x3
 2334 00f3 14       		.byte	0x14
 2335 00f4 3C010000 		.4byte	0x13c
 2336 00f8 07       		.uleb128 0x7
 2337 00f9 623000   		.ascii	"b0\000"
 2338 00fc 03       		.byte	0x3
 2339 00fd 16       		.byte	0x16
 2340 00fe 6B000000 		.4byte	0x6b
 2341 0102 00       		.byte	0
 2342 0103 07       		.uleb128 0x7
 2343 0104 623100   		.ascii	"b1\000"
 2344 0107 03       		.byte	0x3
 2345 0108 16       		.byte	0x16
 2346 0109 6B000000 		.4byte	0x6b
 2347 010d 01       		.byte	0x1
 2348 010e 07       		.uleb128 0x7
 2349 010f 623200   		.ascii	"b2\000"
 2350 0112 03       		.byte	0x3
 2351 0113 16       		.byte	0x16
 2352 0114 6B000000 		.4byte	0x6b
 2353 0118 02       		.byte	0x2
 2354 0119 07       		.uleb128 0x7
 2355 011a 623300   		.ascii	"b3\000"
 2356 011d 03       		.byte	0x3
 2357 011e 16       		.byte	0x16
 2358 011f 6B000000 		.4byte	0x6b
 2359 0123 03       		.byte	0x3
 2360 0124 07       		.uleb128 0x7
 2361 0125 623400   		.ascii	"b4\000"
 2362 0128 03       		.byte	0x3
 2363 0129 16       		.byte	0x16
 2364 012a 6B000000 		.4byte	0x6b
 2365 012e 04       		.byte	0x4
 2366 012f 08       		.uleb128 0x8
 2367 0130 FD030000 		.4byte	.LASF21
 2368 0134 03       		.byte	0x3
 2369 0135 16       		.byte	0x16
 2370 0136 6B000000 		.4byte	0x6b
ARM GAS  C:\Users\austc\AppData\Local\Temp\ccPDHU8c.s 			page 58


 2371 013a 05       		.byte	0x5
 2372 013b 00       		.byte	0
 2373 013c 06       		.uleb128 0x6
 2374 013d 65010000 		.4byte	.LASF23
 2375 0141 03       		.byte	0x3
 2376 0142 03       		.byte	0x3
 2377 0143 18       		.byte	0x18
 2378 0144 6D010000 		.4byte	0x16d
 2379 0148 08       		.uleb128 0x8
 2380 0149 65020000 		.4byte	.LASF24
 2381 014d 03       		.byte	0x3
 2382 014e 1A       		.byte	0x1a
 2383 014f 6B000000 		.4byte	0x6b
 2384 0153 00       		.byte	0
 2385 0154 08       		.uleb128 0x8
 2386 0155 C3030000 		.4byte	.LASF25
 2387 0159 03       		.byte	0x3
 2388 015a 1A       		.byte	0x1a
 2389 015b 6B000000 		.4byte	0x6b
 2390 015f 01       		.byte	0x1
 2391 0160 08       		.uleb128 0x8
 2392 0161 FD030000 		.4byte	.LASF21
 2393 0165 03       		.byte	0x3
 2394 0166 1A       		.byte	0x1a
 2395 0167 6B000000 		.4byte	0x6b
 2396 016b 02       		.byte	0x2
 2397 016c 00       		.byte	0
 2398 016d 09       		.uleb128 0x9
 2399 016e 08       		.byte	0x8
 2400 016f 04       		.byte	0x4
 2401 0170 6F       		.byte	0x6f
 2402 0171 82010000 		.4byte	0x182
 2403 0175 08       		.uleb128 0x8
 2404 0176 8F050000 		.4byte	.LASF26
 2405 017a 04       		.byte	0x4
 2406 017b 71       		.byte	0x71
 2407 017c 82010000 		.4byte	0x182
 2408 0180 00       		.byte	0
 2409 0181 00       		.byte	0
 2410 0182 0A       		.uleb128 0xa
 2411 0183 6B000000 		.4byte	0x6b
 2412 0187 92010000 		.4byte	0x192
 2413 018b 0B       		.uleb128 0xb
 2414 018c E5000000 		.4byte	0xe5
 2415 0190 07       		.byte	0x7
 2416 0191 00       		.byte	0
 2417 0192 0C       		.uleb128 0xc
 2418 0193 E3020000 		.4byte	.LASF27
 2419 0197 04       		.byte	0x4
 2420 0198 72       		.byte	0x72
 2421 0199 6D010000 		.4byte	0x16d
 2422 019d 09       		.uleb128 0x9
 2423 019e 08       		.byte	0x8
 2424 019f 04       		.byte	0x4
 2425 01a0 75       		.byte	0x75
 2426 01a1 B2010000 		.4byte	0x1b2
 2427 01a5 08       		.uleb128 0x8
ARM GAS  C:\Users\austc\AppData\Local\Temp\ccPDHU8c.s 			page 59


 2428 01a6 8F050000 		.4byte	.LASF26
 2429 01aa 04       		.byte	0x4
 2430 01ab 77       		.byte	0x77
 2431 01ac C2010000 		.4byte	0x1c2
 2432 01b0 00       		.byte	0
 2433 01b1 00       		.byte	0
 2434 01b2 0A       		.uleb128 0xa
 2435 01b3 BC000000 		.4byte	0xbc
 2436 01b7 C2010000 		.4byte	0x1c2
 2437 01bb 0B       		.uleb128 0xb
 2438 01bc E5000000 		.4byte	0xe5
 2439 01c0 07       		.byte	0x7
 2440 01c1 00       		.byte	0
 2441 01c2 05       		.uleb128 0x5
 2442 01c3 B2010000 		.4byte	0x1b2
 2443 01c7 0C       		.uleb128 0xc
 2444 01c8 D5030000 		.4byte	.LASF28
 2445 01cc 04       		.byte	0x4
 2446 01cd 78       		.byte	0x78
 2447 01ce 9D010000 		.4byte	0x19d
 2448 01d2 09       		.uleb128 0x9
 2449 01d3 04       		.byte	0x4
 2450 01d4 04       		.byte	0x4
 2451 01d5 7B       		.byte	0x7b
 2452 01d6 E7010000 		.4byte	0x1e7
 2453 01da 08       		.uleb128 0x8
 2454 01db 8F050000 		.4byte	.LASF26
 2455 01df 04       		.byte	0x4
 2456 01e0 7D       		.byte	0x7d
 2457 01e1 F7010000 		.4byte	0x1f7
 2458 01e5 00       		.byte	0
 2459 01e6 00       		.byte	0
 2460 01e7 0A       		.uleb128 0xa
 2461 01e8 BC000000 		.4byte	0xbc
 2462 01ec F7010000 		.4byte	0x1f7
 2463 01f0 0B       		.uleb128 0xb
 2464 01f1 E5000000 		.4byte	0xe5
 2465 01f5 03       		.byte	0x3
 2466 01f6 00       		.byte	0
 2467 01f7 05       		.uleb128 0x5
 2468 01f8 E7010000 		.4byte	0x1e7
 2469 01fc 0C       		.uleb128 0xc
 2470 01fd 74050000 		.4byte	.LASF29
 2471 0201 04       		.byte	0x4
 2472 0202 7E       		.byte	0x7e
 2473 0203 D2010000 		.4byte	0x1d2
 2474 0207 09       		.uleb128 0x9
 2475 0208 10       		.byte	0x10
 2476 0209 04       		.byte	0x4
 2477 020a 81       		.byte	0x81
 2478 020b 63020000 		.4byte	0x263
 2479 020f 07       		.uleb128 0x7
 2480 0210 696400   		.ascii	"id\000"
 2481 0213 04       		.byte	0x4
 2482 0214 83       		.byte	0x83
 2483 0215 83000000 		.4byte	0x83
 2484 0219 00       		.byte	0
ARM GAS  C:\Users\austc\AppData\Local\Temp\ccPDHU8c.s 			page 60


 2485 021a 07       		.uleb128 0x7
 2486 021b 72747200 		.ascii	"rtr\000"
 2487 021f 04       		.byte	0x4
 2488 0220 84       		.byte	0x84
 2489 0221 6B000000 		.4byte	0x6b
 2490 0225 04       		.byte	0x4
 2491 0226 07       		.uleb128 0x7
 2492 0227 69646500 		.ascii	"ide\000"
 2493 022b 04       		.byte	0x4
 2494 022c 85       		.byte	0x85
 2495 022d 6B000000 		.4byte	0x6b
 2496 0231 05       		.byte	0x5
 2497 0232 07       		.uleb128 0x7
 2498 0233 646C6300 		.ascii	"dlc\000"
 2499 0237 04       		.byte	0x4
 2500 0238 86       		.byte	0x86
 2501 0239 6B000000 		.4byte	0x6b
 2502 023d 06       		.byte	0x6
 2503 023e 07       		.uleb128 0x7
 2504 023f 69727100 		.ascii	"irq\000"
 2505 0243 04       		.byte	0x4
 2506 0244 87       		.byte	0x87
 2507 0245 6B000000 		.4byte	0x6b
 2508 0249 07       		.byte	0x7
 2509 024a 07       		.uleb128 0x7
 2510 024b 73737400 		.ascii	"sst\000"
 2511 024f 04       		.byte	0x4
 2512 0250 89       		.byte	0x89
 2513 0251 6B000000 		.4byte	0x6b
 2514 0255 08       		.byte	0x8
 2515 0256 07       		.uleb128 0x7
 2516 0257 6D736700 		.ascii	"msg\000"
 2517 025b 04       		.byte	0x4
 2518 025c 8B       		.byte	0x8b
 2519 025d 63020000 		.4byte	0x263
 2520 0261 0C       		.byte	0xc
 2521 0262 00       		.byte	0
 2522 0263 0D       		.uleb128 0xd
 2523 0264 04       		.byte	0x4
 2524 0265 92010000 		.4byte	0x192
 2525 0269 0C       		.uleb128 0xc
 2526 026a 02010000 		.4byte	.LASF30
 2527 026e 04       		.byte	0x4
 2528 026f 8C       		.byte	0x8c
 2529 0270 07020000 		.4byte	0x207
 2530 0274 09       		.uleb128 0x9
 2531 0275 20       		.byte	0x20
 2532 0276 04       		.byte	0x4
 2533 0277 A0       		.byte	0xa0
 2534 0278 D1020000 		.4byte	0x2d1
 2535 027c 08       		.uleb128 0x8
 2536 027d C1050000 		.4byte	.LASF31
 2537 0281 04       		.byte	0x4
 2538 0282 A2       		.byte	0xa2
 2539 0283 FC010000 		.4byte	0x1fc
 2540 0287 00       		.byte	0
 2541 0288 08       		.uleb128 0x8
ARM GAS  C:\Users\austc\AppData\Local\Temp\ccPDHU8c.s 			page 61


 2542 0289 94050000 		.4byte	.LASF32
 2543 028d 04       		.byte	0x4
 2544 028e A3       		.byte	0xa3
 2545 028f FC010000 		.4byte	0x1fc
 2546 0293 04       		.byte	0x4
 2547 0294 08       		.uleb128 0x8
 2548 0295 BC030000 		.4byte	.LASF33
 2549 0299 04       		.byte	0x4
 2550 029a A4       		.byte	0xa4
 2551 029b C7010000 		.4byte	0x1c7
 2552 029f 08       		.byte	0x8
 2553 02a0 08       		.uleb128 0x8
 2554 02a1 C8000000 		.4byte	.LASF34
 2555 02a5 04       		.byte	0x4
 2556 02a6 A5       		.byte	0xa5
 2557 02a7 FC010000 		.4byte	0x1fc
 2558 02ab 10       		.byte	0x10
 2559 02ac 08       		.uleb128 0x8
 2560 02ad F6020000 		.4byte	.LASF35
 2561 02b1 04       		.byte	0x4
 2562 02b2 A6       		.byte	0xa6
 2563 02b3 FC010000 		.4byte	0x1fc
 2564 02b7 14       		.byte	0x14
 2565 02b8 08       		.uleb128 0x8
 2566 02b9 0B030000 		.4byte	.LASF36
 2567 02bd 04       		.byte	0x4
 2568 02be A7       		.byte	0xa7
 2569 02bf FC010000 		.4byte	0x1fc
 2570 02c3 18       		.byte	0x18
 2571 02c4 08       		.uleb128 0x8
 2572 02c5 53030000 		.4byte	.LASF37
 2573 02c9 04       		.byte	0x4
 2574 02ca A8       		.byte	0xa8
 2575 02cb FC010000 		.4byte	0x1fc
 2576 02cf 1C       		.byte	0x1c
 2577 02d0 00       		.byte	0
 2578 02d1 0C       		.uleb128 0xc
 2579 02d2 20020000 		.4byte	.LASF38
 2580 02d6 04       		.byte	0x4
 2581 02d7 A9       		.byte	0xa9
 2582 02d8 74020000 		.4byte	0x274
 2583 02dc 0E       		.uleb128 0xe
 2584 02dd 8F030000 		.4byte	.LASF118
 2585 02e1 01       		.byte	0x1
 2586 02e2 BC01     		.2byte	0x1bc
 2587 02e4 03       		.byte	0x3
 2588 02e5 F6020000 		.4byte	0x2f6
 2589 02e9 0F       		.uleb128 0xf
 2590 02ea C7050000 		.4byte	.LASF119
 2591 02ee 01       		.byte	0x1
 2592 02ef BC01     		.2byte	0x1bc
 2593 02f1 77000000 		.4byte	0x77
 2594 02f5 00       		.byte	0
 2595 02f6 10       		.uleb128 0x10
 2596 02f7 5D040000 		.4byte	.LASF39
 2597 02fb 01       		.byte	0x1
 2598 02fc 9C01     		.2byte	0x19c
ARM GAS  C:\Users\austc\AppData\Local\Temp\ccPDHU8c.s 			page 62


 2599 02fe 00000000 		.4byte	.LFB47
 2600 0302 D8010000 		.4byte	.LFE47-.LFB47
 2601 0306 01       		.uleb128 0x1
 2602 0307 9C       		.byte	0x9c
 2603 0308 8A030000 		.4byte	0x38a
 2604 030c 11       		.uleb128 0x11
 2605 030d DC020000 		.4byte	0x2dc
 2606 0311 36000000 		.4byte	.LBB6
 2607 0315 96000000 		.4byte	.LBE6-.LBB6
 2608 0319 01       		.byte	0x1
 2609 031a A901     		.2byte	0x1a9
 2610 031c 2A030000 		.4byte	0x32a
 2611 0320 12       		.uleb128 0x12
 2612 0321 E9020000 		.4byte	0x2e9
 2613 0325 00000000 		.4byte	.LLST0
 2614 0329 00       		.byte	0
 2615 032a 11       		.uleb128 0x11
 2616 032b DC020000 		.4byte	0x2dc
 2617 032f FE000000 		.4byte	.LBB8
 2618 0333 96000000 		.4byte	.LBE8-.LBB8
 2619 0337 01       		.byte	0x1
 2620 0338 B401     		.2byte	0x1b4
 2621 033a 48030000 		.4byte	0x348
 2622 033e 12       		.uleb128 0x12
 2623 033f E9020000 		.4byte	0x2e9
 2624 0343 22000000 		.4byte	.LLST1
 2625 0347 00       		.byte	0
 2626 0348 13       		.uleb128 0x13
 2627 0349 18000000 		.4byte	.LVL0
 2628 034d 620E0000 		.4byte	0xe62
 2629 0351 5F030000 		.4byte	0x35f
 2630 0355 14       		.uleb128 0x14
 2631 0356 01       		.uleb128 0x1
 2632 0357 50       		.byte	0x50
 2633 0358 05       		.uleb128 0x5
 2634 0359 03       		.byte	0x3
 2635 035a 00000000 		.4byte	.LC1
 2636 035e 00       		.byte	0
 2637 035f 13       		.uleb128 0x13
 2638 0360 32000000 		.4byte	.LVL1
 2639 0364 620E0000 		.4byte	0xe62
 2640 0368 76030000 		.4byte	0x376
 2641 036c 14       		.uleb128 0x14
 2642 036d 01       		.uleb128 0x1
 2643 036e 50       		.byte	0x50
 2644 036f 05       		.uleb128 0x5
 2645 0370 03       		.byte	0x3
 2646 0371 14000000 		.4byte	.LC3
 2647 0375 00       		.byte	0
 2648 0376 15       		.uleb128 0x15
 2649 0377 FA000000 		.4byte	.LVL5
 2650 037b 620E0000 		.4byte	0xe62
 2651 037f 14       		.uleb128 0x14
 2652 0380 01       		.uleb128 0x1
 2653 0381 50       		.byte	0x50
 2654 0382 05       		.uleb128 0x5
 2655 0383 03       		.byte	0x3
ARM GAS  C:\Users\austc\AppData\Local\Temp\ccPDHU8c.s 			page 63


 2656 0384 24000000 		.4byte	.LC9
 2657 0388 00       		.byte	0
 2658 0389 00       		.byte	0
 2659 038a 16       		.uleb128 0x16
 2660 038b 72030000 		.4byte	.LASF40
 2661 038f 01       		.byte	0x1
 2662 0390 EC       		.byte	0xec
 2663 0391 00000000 		.4byte	.LFB38
 2664 0395 14000000 		.4byte	.LFE38-.LFB38
 2665 0399 01       		.uleb128 0x1
 2666 039a 9C       		.byte	0x9c
 2667 039b A9030000 		.4byte	0x3a9
 2668 039f 17       		.uleb128 0x17
 2669 03a0 06000000 		.4byte	.LVL9
 2670 03a4 6E0E0000 		.4byte	0xe6e
 2671 03a8 00       		.byte	0
 2672 03a9 16       		.uleb128 0x16
 2673 03aa 0B020000 		.4byte	.LASF41
 2674 03ae 01       		.byte	0x1
 2675 03af F3       		.byte	0xf3
 2676 03b0 00000000 		.4byte	.LFB39
 2677 03b4 6C000000 		.4byte	.LFE39-.LFB39
 2678 03b8 01       		.uleb128 0x1
 2679 03b9 9C       		.byte	0x9c
 2680 03ba 8A040000 		.4byte	0x48a
 2681 03be 18       		.uleb128 0x18
 2682 03bf AB020000 		.4byte	.LASF44
 2683 03c3 01       		.byte	0x1
 2684 03c4 F4       		.byte	0xf4
 2685 03c5 5D000000 		.4byte	0x5d
 2686 03c9 44000000 		.4byte	.LLST2
 2687 03cd 17       		.uleb128 0x17
 2688 03ce 06000000 		.4byte	.LVL10
 2689 03d2 7A0E0000 		.4byte	0xe7a
 2690 03d6 17       		.uleb128 0x17
 2691 03d7 0C000000 		.4byte	.LVL12
 2692 03db 850E0000 		.4byte	0xe85
 2693 03df 17       		.uleb128 0x17
 2694 03e0 10000000 		.4byte	.LVL13
 2695 03e4 900E0000 		.4byte	0xe90
 2696 03e8 17       		.uleb128 0x17
 2697 03e9 14000000 		.4byte	.LVL14
 2698 03ed 9B0E0000 		.4byte	0xe9b
 2699 03f1 17       		.uleb128 0x17
 2700 03f2 18000000 		.4byte	.LVL15
 2701 03f6 A60E0000 		.4byte	0xea6
 2702 03fa 17       		.uleb128 0x17
 2703 03fb 1C000000 		.4byte	.LVL16
 2704 03ff B20E0000 		.4byte	0xeb2
 2705 0403 13       		.uleb128 0x13
 2706 0404 24000000 		.4byte	.LVL17
 2707 0408 BD0E0000 		.4byte	0xebd
 2708 040c 1F040000 		.4byte	0x41f
 2709 0410 14       		.uleb128 0x14
 2710 0411 01       		.uleb128 0x1
 2711 0412 50       		.byte	0x50
 2712 0413 01       		.uleb128 0x1
ARM GAS  C:\Users\austc\AppData\Local\Temp\ccPDHU8c.s 			page 64


 2713 0414 4D       		.byte	0x4d
 2714 0415 14       		.uleb128 0x14
 2715 0416 01       		.uleb128 0x1
 2716 0417 51       		.byte	0x51
 2717 0418 05       		.uleb128 0x5
 2718 0419 03       		.byte	0x3
 2719 041a 00000000 		.4byte	ISR_CAN
 2720 041e 00       		.byte	0
 2721 041f 13       		.uleb128 0x13
 2722 0420 2C000000 		.4byte	.LVL18
 2723 0424 C80E0000 		.4byte	0xec8
 2724 0428 36040000 		.4byte	0x436
 2725 042c 14       		.uleb128 0x14
 2726 042d 01       		.uleb128 0x1
 2727 042e 50       		.byte	0x50
 2728 042f 05       		.uleb128 0x5
 2729 0430 03       		.byte	0x3
 2730 0431 00000000 		.4byte	Pin_Limit_Handler
 2731 0435 00       		.byte	0
 2732 0436 13       		.uleb128 0x13
 2733 0437 32000000 		.4byte	.LVL19
 2734 043b D30E0000 		.4byte	0xed3
 2735 043f 4D040000 		.4byte	0x44d
 2736 0443 14       		.uleb128 0x14
 2737 0444 01       		.uleb128 0x1
 2738 0445 50       		.byte	0x50
 2739 0446 05       		.uleb128 0x5
 2740 0447 03       		.byte	0x3
 2741 0448 00000000 		.4byte	Period_Reset_Handler
 2742 044c 00       		.byte	0
 2743 044d 17       		.uleb128 0x17
 2744 044e 3E000000 		.4byte	.LVL20
 2745 0452 DE0E0000 		.4byte	0xede
 2746 0456 13       		.uleb128 0x13
 2747 0457 4A000000 		.4byte	.LVL21
 2748 045b E90E0000 		.4byte	0xee9
 2749 045f 79040000 		.4byte	0x479
 2750 0463 14       		.uleb128 0x14
 2751 0464 01       		.uleb128 0x1
 2752 0465 50       		.byte	0x50
 2753 0466 02       		.uleb128 0x2
 2754 0467 75       		.byte	0x75
 2755 0468 00       		.sleb128 0
 2756 0469 14       		.uleb128 0x14
 2757 046a 01       		.uleb128 0x1
 2758 046b 51       		.byte	0x51
 2759 046c 05       		.uleb128 0x5
 2760 046d 03       		.byte	0x3
 2761 046e 34000000 		.4byte	.LC16
 2762 0472 14       		.uleb128 0x14
 2763 0473 01       		.uleb128 0x1
 2764 0474 52       		.byte	0x52
 2765 0475 02       		.uleb128 0x2
 2766 0476 74       		.byte	0x74
 2767 0477 00       		.sleb128 0
 2768 0478 00       		.byte	0
 2769 0479 15       		.uleb128 0x15
ARM GAS  C:\Users\austc\AppData\Local\Temp\ccPDHU8c.s 			page 65


 2770 047a 50000000 		.4byte	.LVL22
 2771 047e 620E0000 		.4byte	0xe62
 2772 0482 14       		.uleb128 0x14
 2773 0483 01       		.uleb128 0x1
 2774 0484 50       		.byte	0x50
 2775 0485 02       		.uleb128 0x2
 2776 0486 75       		.byte	0x75
 2777 0487 00       		.sleb128 0
 2778 0488 00       		.byte	0
 2779 0489 00       		.byte	0
 2780 048a 10       		.uleb128 0x10
 2781 048b 7A000000 		.4byte	.LASF42
 2782 048f 01       		.byte	0x1
 2783 0490 4D01     		.2byte	0x14d
 2784 0492 00000000 		.4byte	.LFB41
 2785 0496 1C000000 		.4byte	.LFE41-.LFB41
 2786 049a 01       		.uleb128 0x1
 2787 049b 9C       		.byte	0x9c
 2788 049c B1040000 		.4byte	0x4b1
 2789 04a0 19       		.uleb128 0x19
 2790 04a1 01050000 		.4byte	.LASF48
 2791 04a5 01       		.byte	0x1
 2792 04a6 4D01     		.2byte	0x14d
 2793 04a8 83000000 		.4byte	0x83
 2794 04ac 62000000 		.4byte	.LLST3
 2795 04b0 00       		.byte	0
 2796 04b1 10       		.uleb128 0x10
 2797 04b2 02040000 		.4byte	.LASF43
 2798 04b6 01       		.byte	0x1
 2799 04b7 1901     		.2byte	0x119
 2800 04b9 00000000 		.4byte	.LFB40
 2801 04bd F8000000 		.4byte	.LFE40-.LFB40
 2802 04c1 01       		.uleb128 0x1
 2803 04c2 9C       		.byte	0x9c
 2804 04c3 77050000 		.4byte	0x577
 2805 04c7 1A       		.uleb128 0x1a
 2806 04c8 0D010000 		.4byte	.LASF45
 2807 04cc 01       		.byte	0x1
 2808 04cd 1A01     		.2byte	0x11a
 2809 04cf 6B000000 		.4byte	0x6b
 2810 04d3 83000000 		.4byte	.LLST4
 2811 04d7 1A       		.uleb128 0x1a
 2812 04d8 1B010000 		.4byte	.LASF46
 2813 04dc 01       		.byte	0x1
 2814 04dd 1B01     		.2byte	0x11b
 2815 04df 6B000000 		.4byte	0x6b
 2816 04e3 96000000 		.4byte	.LLST5
 2817 04e7 17       		.uleb128 0x17
 2818 04e8 08000000 		.4byte	.LVL26
 2819 04ec F40E0000 		.4byte	0xef4
 2820 04f0 17       		.uleb128 0x17
 2821 04f1 0E000000 		.4byte	.LVL28
 2822 04f5 F40E0000 		.4byte	0xef4
 2823 04f9 13       		.uleb128 0x13
 2824 04fa 9C000000 		.4byte	.LVL42
 2825 04fe 8A040000 		.4byte	0x48a
 2826 0502 0C050000 		.4byte	0x50c
ARM GAS  C:\Users\austc\AppData\Local\Temp\ccPDHU8c.s 			page 66


 2827 0506 14       		.uleb128 0x14
 2828 0507 01       		.uleb128 0x1
 2829 0508 50       		.byte	0x50
 2830 0509 01       		.uleb128 0x1
 2831 050a 31       		.byte	0x31
 2832 050b 00       		.byte	0
 2833 050c 13       		.uleb128 0x13
 2834 050d B2000000 		.4byte	.LVL43
 2835 0511 E90E0000 		.4byte	0xee9
 2836 0515 2F050000 		.4byte	0x52f
 2837 0519 14       		.uleb128 0x14
 2838 051a 01       		.uleb128 0x1
 2839 051b 50       		.byte	0x50
 2840 051c 02       		.uleb128 0x2
 2841 051d 74       		.byte	0x74
 2842 051e 00       		.sleb128 0
 2843 051f 14       		.uleb128 0x14
 2844 0520 01       		.uleb128 0x1
 2845 0521 51       		.byte	0x51
 2846 0522 05       		.uleb128 0x5
 2847 0523 03       		.byte	0x3
 2848 0524 48000000 		.4byte	.LC25
 2849 0528 14       		.uleb128 0x14
 2850 0529 01       		.uleb128 0x1
 2851 052a 52       		.byte	0x52
 2852 052b 02       		.uleb128 0x2
 2853 052c 75       		.byte	0x75
 2854 052d 00       		.sleb128 0
 2855 052e 00       		.byte	0
 2856 052f 13       		.uleb128 0x13
 2857 0530 B8000000 		.4byte	.LVL44
 2858 0534 620E0000 		.4byte	0xe62
 2859 0538 43050000 		.4byte	0x543
 2860 053c 14       		.uleb128 0x14
 2861 053d 01       		.uleb128 0x1
 2862 053e 50       		.byte	0x50
 2863 053f 02       		.uleb128 0x2
 2864 0540 74       		.byte	0x74
 2865 0541 00       		.sleb128 0
 2866 0542 00       		.byte	0
 2867 0543 13       		.uleb128 0x13
 2868 0544 CA000000 		.4byte	.LVL45
 2869 0548 E90E0000 		.4byte	0xee9
 2870 054c 66050000 		.4byte	0x566
 2871 0550 14       		.uleb128 0x14
 2872 0551 01       		.uleb128 0x1
 2873 0552 50       		.byte	0x50
 2874 0553 02       		.uleb128 0x2
 2875 0554 74       		.byte	0x74
 2876 0555 00       		.sleb128 0
 2877 0556 14       		.uleb128 0x14
 2878 0557 01       		.uleb128 0x1
 2879 0558 51       		.byte	0x51
 2880 0559 05       		.uleb128 0x5
 2881 055a 03       		.byte	0x3
 2882 055b 70000000 		.4byte	.LC28
 2883 055f 14       		.uleb128 0x14
ARM GAS  C:\Users\austc\AppData\Local\Temp\ccPDHU8c.s 			page 67


 2884 0560 01       		.uleb128 0x1
 2885 0561 52       		.byte	0x52
 2886 0562 02       		.uleb128 0x2
 2887 0563 76       		.byte	0x76
 2888 0564 00       		.sleb128 0
 2889 0565 00       		.byte	0
 2890 0566 15       		.uleb128 0x15
 2891 0567 D0000000 		.4byte	.LVL46
 2892 056b 620E0000 		.4byte	0xe62
 2893 056f 14       		.uleb128 0x14
 2894 0570 01       		.uleb128 0x1
 2895 0571 50       		.byte	0x50
 2896 0572 02       		.uleb128 0x2
 2897 0573 74       		.byte	0x74
 2898 0574 00       		.sleb128 0
 2899 0575 00       		.byte	0
 2900 0576 00       		.byte	0
 2901 0577 10       		.uleb128 0x10
 2902 0578 28040000 		.4byte	.LASF47
 2903 057c 01       		.byte	0x1
 2904 057d 5201     		.2byte	0x152
 2905 057f 00000000 		.4byte	.LFB42
 2906 0583 64000000 		.4byte	.LFE42-.LFB42
 2907 0587 01       		.uleb128 0x1
 2908 0588 9C       		.byte	0x9c
 2909 0589 15060000 		.4byte	0x615
 2910 058d 19       		.uleb128 0x19
 2911 058e E4030000 		.4byte	.LASF49
 2912 0592 01       		.byte	0x1
 2913 0593 5201     		.2byte	0x152
 2914 0595 5D000000 		.4byte	0x5d
 2915 0599 45010000 		.4byte	.LLST6
 2916 059d 1A       		.uleb128 0x1a
 2917 059e 46030000 		.4byte	.LASF50
 2918 05a2 01       		.byte	0x1
 2919 05a3 5501     		.2byte	0x155
 2920 05a5 6B000000 		.4byte	0x6b
 2921 05a9 71010000 		.4byte	.LLST7
 2922 05ad 17       		.uleb128 0x17
 2923 05ae 1A000000 		.4byte	.LVL50
 2924 05b2 FF0E0000 		.4byte	0xeff
 2925 05b6 13       		.uleb128 0x13
 2926 05b7 30000000 		.4byte	.LVL52
 2927 05bb 0A0F0000 		.4byte	0xf0a
 2928 05bf C9050000 		.4byte	0x5c9
 2929 05c3 14       		.uleb128 0x14
 2930 05c4 01       		.uleb128 0x1
 2931 05c5 50       		.byte	0x50
 2932 05c6 01       		.uleb128 0x1
 2933 05c7 30       		.byte	0x30
 2934 05c8 00       		.byte	0
 2935 05c9 13       		.uleb128 0x13
 2936 05ca 36000000 		.4byte	.LVL53
 2937 05ce 150F0000 		.4byte	0xf15
 2938 05d2 DE050000 		.4byte	0x5de
 2939 05d6 14       		.uleb128 0x14
 2940 05d7 01       		.uleb128 0x1
ARM GAS  C:\Users\austc\AppData\Local\Temp\ccPDHU8c.s 			page 68


 2941 05d8 50       		.byte	0x50
 2942 05d9 03       		.uleb128 0x3
 2943 05da 74       		.byte	0x74
 2944 05db 00       		.sleb128 0
 2945 05dc 1F       		.byte	0x1f
 2946 05dd 00       		.byte	0
 2947 05de 13       		.uleb128 0x13
 2948 05df 4E000000 		.4byte	.LVL56
 2949 05e3 0A0F0000 		.4byte	0xf0a
 2950 05e7 F1050000 		.4byte	0x5f1
 2951 05eb 14       		.uleb128 0x14
 2952 05ec 01       		.uleb128 0x1
 2953 05ed 50       		.byte	0x50
 2954 05ee 01       		.uleb128 0x1
 2955 05ef 31       		.byte	0x31
 2956 05f0 00       		.byte	0
 2957 05f1 13       		.uleb128 0x13
 2958 05f2 54000000 		.4byte	.LVL57
 2959 05f6 150F0000 		.4byte	0xf15
 2960 05fa 05060000 		.4byte	0x605
 2961 05fe 14       		.uleb128 0x14
 2962 05ff 01       		.uleb128 0x1
 2963 0600 50       		.byte	0x50
 2964 0601 02       		.uleb128 0x2
 2965 0602 74       		.byte	0x74
 2966 0603 00       		.sleb128 0
 2967 0604 00       		.byte	0
 2968 0605 15       		.uleb128 0x15
 2969 0606 5C000000 		.4byte	.LVL60
 2970 060a 150F0000 		.4byte	0xf15
 2971 060e 14       		.uleb128 0x14
 2972 060f 01       		.uleb128 0x1
 2973 0610 50       		.byte	0x50
 2974 0611 01       		.uleb128 0x1
 2975 0612 30       		.byte	0x30
 2976 0613 00       		.byte	0
 2977 0614 00       		.byte	0
 2978 0615 16       		.uleb128 0x16
 2979 0616 C9020000 		.4byte	.LASF51
 2980 061a 01       		.byte	0x1
 2981 061b 4B       		.byte	0x4b
 2982 061c 00000000 		.4byte	.LFB35
 2983 0620 44000000 		.4byte	.LFE35-.LFB35
 2984 0624 01       		.uleb128 0x1
 2985 0625 9C       		.byte	0x9c
 2986 0626 72060000 		.4byte	0x672
 2987 062a 18       		.uleb128 0x18
 2988 062b 29060000 		.4byte	.LASF52
 2989 062f 01       		.byte	0x1
 2990 0630 4C       		.byte	0x4c
 2991 0631 5D000000 		.4byte	0x5d
 2992 0635 9A010000 		.4byte	.LLST8
 2993 0639 17       		.uleb128 0x17
 2994 063a 06000000 		.4byte	.LVL62
 2995 063e 210F0000 		.4byte	0xf21
 2996 0642 13       		.uleb128 0x13
 2997 0643 18000000 		.4byte	.LVL64
ARM GAS  C:\Users\austc\AppData\Local\Temp\ccPDHU8c.s 			page 69


 2998 0647 E90E0000 		.4byte	0xee9
 2999 064b 62060000 		.4byte	0x662
 3000 064f 14       		.uleb128 0x14
 3001 0650 01       		.uleb128 0x1
 3002 0651 50       		.byte	0x50
 3003 0652 05       		.uleb128 0x5
 3004 0653 03       		.byte	0x3
 3005 0654 00000000 		.4byte	txData
 3006 0658 14       		.uleb128 0x14
 3007 0659 01       		.uleb128 0x1
 3008 065a 51       		.byte	0x51
 3009 065b 05       		.uleb128 0x5
 3010 065c 03       		.byte	0x3
 3011 065d A0000000 		.4byte	.LC32
 3012 0661 00       		.byte	0
 3013 0662 15       		.uleb128 0x15
 3014 0663 32000000 		.4byte	.LVL65
 3015 0667 77050000 		.4byte	0x577
 3016 066b 14       		.uleb128 0x14
 3017 066c 01       		.uleb128 0x1
 3018 066d 50       		.byte	0x50
 3019 066e 01       		.uleb128 0x1
 3020 066f 30       		.byte	0x30
 3021 0670 00       		.byte	0
 3022 0671 00       		.byte	0
 3023 0672 16       		.uleb128 0x16
 3024 0673 3E040000 		.4byte	.LASF53
 3025 0677 01       		.byte	0x1
 3026 0678 58       		.byte	0x58
 3027 0679 00000000 		.4byte	.LFB36
 3028 067d 38000000 		.4byte	.LFE36-.LFB36
 3029 0681 01       		.uleb128 0x1
 3030 0682 9C       		.byte	0x9c
 3031 0683 C7060000 		.4byte	0x6c7
 3032 0687 13       		.uleb128 0x13
 3033 0688 16000000 		.4byte	.LVL66
 3034 068c 2C0F0000 		.4byte	0xf2c
 3035 0690 A9060000 		.4byte	0x6a9
 3036 0694 14       		.uleb128 0x14
 3037 0695 01       		.uleb128 0x1
 3038 0696 50       		.byte	0x50
 3039 0697 02       		.uleb128 0x2
 3040 0698 74       		.byte	0x74
 3041 0699 00       		.sleb128 0
 3042 069a 14       		.uleb128 0x14
 3043 069b 01       		.uleb128 0x1
 3044 069c 51       		.byte	0x51
 3045 069d 05       		.uleb128 0x5
 3046 069e 03       		.byte	0x3
 3047 069f C0000000 		.4byte	.LC38
 3048 06a3 14       		.uleb128 0x14
 3049 06a4 01       		.uleb128 0x1
 3050 06a5 52       		.byte	0x52
 3051 06a6 01       		.uleb128 0x1
 3052 06a7 4A       		.byte	0x4a
 3053 06a8 00       		.byte	0
 3054 06a9 13       		.uleb128 0x13
ARM GAS  C:\Users\austc\AppData\Local\Temp\ccPDHU8c.s 			page 70


 3055 06aa 1C000000 		.4byte	.LVL67
 3056 06ae 620E0000 		.4byte	0xe62
 3057 06b2 BD060000 		.4byte	0x6bd
 3058 06b6 14       		.uleb128 0x14
 3059 06b7 01       		.uleb128 0x1
 3060 06b8 50       		.byte	0x50
 3061 06b9 02       		.uleb128 0x2
 3062 06ba 74       		.byte	0x74
 3063 06bb 00       		.sleb128 0
 3064 06bc 00       		.byte	0
 3065 06bd 17       		.uleb128 0x17
 3066 06be 24000000 		.4byte	.LVL68
 3067 06c2 77050000 		.4byte	0x577
 3068 06c6 00       		.byte	0
 3069 06c7 10       		.uleb128 0x10
 3070 06c8 35020000 		.4byte	.LASF54
 3071 06cc 01       		.byte	0x1
 3072 06cd 6501     		.2byte	0x165
 3073 06cf 00000000 		.4byte	.LFB43
 3074 06d3 68000000 		.4byte	.LFE43-.LFB43
 3075 06d7 01       		.uleb128 0x1
 3076 06d8 9C       		.byte	0x9c
 3077 06d9 57070000 		.4byte	0x757
 3078 06dd 1A       		.uleb128 0x1a
 3079 06de A5020000 		.4byte	.LASF55
 3080 06e2 01       		.byte	0x1
 3081 06e3 6601     		.2byte	0x166
 3082 06e5 8F000000 		.4byte	0x8f
 3083 06e9 B8010000 		.4byte	.LLST9
 3084 06ed 17       		.uleb128 0x17
 3085 06ee 08000000 		.4byte	.LVL69
 3086 06f2 350F0000 		.4byte	0xf35
 3087 06f6 13       		.uleb128 0x13
 3088 06f7 22000000 		.4byte	.LVL71
 3089 06fb 400F0000 		.4byte	0xf40
 3090 06ff 0D070000 		.4byte	0x70d
 3091 0703 14       		.uleb128 0x14
 3092 0704 01       		.uleb128 0x1
 3093 0705 50       		.byte	0x50
 3094 0706 05       		.uleb128 0x5
 3095 0707 03       		.byte	0x3
 3096 0708 00000000 		.4byte	message
 3097 070c 00       		.byte	0
 3098 070d 17       		.uleb128 0x17
 3099 070e 36000000 		.4byte	.LVL72
 3100 0712 350F0000 		.4byte	0xf35
 3101 0716 13       		.uleb128 0x13
 3102 0717 48000000 		.4byte	.LVL73
 3103 071b E90E0000 		.4byte	0xee9
 3104 071f 46070000 		.4byte	0x746
 3105 0723 14       		.uleb128 0x14
 3106 0724 01       		.uleb128 0x1
 3107 0725 50       		.byte	0x50
 3108 0726 02       		.uleb128 0x2
 3109 0727 74       		.byte	0x74
 3110 0728 00       		.sleb128 0
 3111 0729 14       		.uleb128 0x14
ARM GAS  C:\Users\austc\AppData\Local\Temp\ccPDHU8c.s 			page 71


 3112 072a 01       		.uleb128 0x1
 3113 072b 51       		.byte	0x51
 3114 072c 05       		.uleb128 0x5
 3115 072d 03       		.byte	0x3
 3116 072e DC000000 		.4byte	.LC44
 3117 0732 14       		.uleb128 0x14
 3118 0733 01       		.uleb128 0x1
 3119 0734 52       		.byte	0x52
 3120 0735 02       		.uleb128 0x2
 3121 0736 75       		.byte	0x75
 3122 0737 00       		.sleb128 0
 3123 0738 14       		.uleb128 0x14
 3124 0739 01       		.uleb128 0x1
 3125 073a 53       		.byte	0x53
 3126 073b 02       		.uleb128 0x2
 3127 073c 76       		.byte	0x76
 3128 073d 00       		.sleb128 0
 3129 073e 14       		.uleb128 0x14
 3130 073f 02       		.uleb128 0x2
 3131 0740 7D       		.byte	0x7d
 3132 0741 00       		.sleb128 0
 3133 0742 02       		.uleb128 0x2
 3134 0743 77       		.byte	0x77
 3135 0744 00       		.sleb128 0
 3136 0745 00       		.byte	0
 3137 0746 15       		.uleb128 0x15
 3138 0747 4E000000 		.4byte	.LVL74
 3139 074b 620E0000 		.4byte	0xe62
 3140 074f 14       		.uleb128 0x14
 3141 0750 01       		.uleb128 0x1
 3142 0751 50       		.byte	0x50
 3143 0752 02       		.uleb128 0x2
 3144 0753 74       		.byte	0x74
 3145 0754 00       		.sleb128 0
 3146 0755 00       		.byte	0
 3147 0756 00       		.byte	0
 3148 0757 10       		.uleb128 0x10
 3149 0758 A8000000 		.4byte	.LASF56
 3150 075c 01       		.byte	0x1
 3151 075d 7501     		.2byte	0x175
 3152 075f 00000000 		.4byte	.LFB44
 3153 0763 4C000000 		.4byte	.LFE44-.LFB44
 3154 0767 01       		.uleb128 0x1
 3155 0768 9C       		.byte	0x9c
 3156 0769 B2070000 		.4byte	0x7b2
 3157 076d 13       		.uleb128 0x13
 3158 076e 18000000 		.4byte	.LVL75
 3159 0772 400F0000 		.4byte	0xf40
 3160 0776 84070000 		.4byte	0x784
 3161 077a 14       		.uleb128 0x14
 3162 077b 01       		.uleb128 0x1
 3163 077c 50       		.byte	0x50
 3164 077d 05       		.uleb128 0x5
 3165 077e 03       		.byte	0x3
 3166 077f 00000000 		.4byte	message
 3167 0783 00       		.byte	0
 3168 0784 13       		.uleb128 0x13
ARM GAS  C:\Users\austc\AppData\Local\Temp\ccPDHU8c.s 			page 72


 3169 0785 30000000 		.4byte	.LVL76
 3170 0789 E90E0000 		.4byte	0xee9
 3171 078d A1070000 		.4byte	0x7a1
 3172 0791 14       		.uleb128 0x14
 3173 0792 01       		.uleb128 0x1
 3174 0793 50       		.byte	0x50
 3175 0794 02       		.uleb128 0x2
 3176 0795 74       		.byte	0x74
 3177 0796 00       		.sleb128 0
 3178 0797 14       		.uleb128 0x14
 3179 0798 01       		.uleb128 0x1
 3180 0799 51       		.byte	0x51
 3181 079a 05       		.uleb128 0x5
 3182 079b 03       		.byte	0x3
 3183 079c 28010000 		.4byte	.LC50
 3184 07a0 00       		.byte	0
 3185 07a1 15       		.uleb128 0x15
 3186 07a2 36000000 		.4byte	.LVL77
 3187 07a6 620E0000 		.4byte	0xe62
 3188 07aa 14       		.uleb128 0x14
 3189 07ab 01       		.uleb128 0x1
 3190 07ac 50       		.byte	0x50
 3191 07ad 02       		.uleb128 0x2
 3192 07ae 74       		.byte	0x74
 3193 07af 00       		.sleb128 0
 3194 07b0 00       		.byte	0
 3195 07b1 00       		.byte	0
 3196 07b2 10       		.uleb128 0x10
 3197 07b3 F2040000 		.4byte	.LASF57
 3198 07b7 01       		.byte	0x1
 3199 07b8 8201     		.2byte	0x182
 3200 07ba 00000000 		.4byte	.LFB45
 3201 07be 4C000000 		.4byte	.LFE45-.LFB45
 3202 07c2 01       		.uleb128 0x1
 3203 07c3 9C       		.byte	0x9c
 3204 07c4 0D080000 		.4byte	0x80d
 3205 07c8 13       		.uleb128 0x13
 3206 07c9 18000000 		.4byte	.LVL78
 3207 07cd 400F0000 		.4byte	0xf40
 3208 07d1 DF070000 		.4byte	0x7df
 3209 07d5 14       		.uleb128 0x14
 3210 07d6 01       		.uleb128 0x1
 3211 07d7 50       		.byte	0x50
 3212 07d8 05       		.uleb128 0x5
 3213 07d9 03       		.byte	0x3
 3214 07da 00000000 		.4byte	message
 3215 07de 00       		.byte	0
 3216 07df 13       		.uleb128 0x13
 3217 07e0 30000000 		.4byte	.LVL79
 3218 07e4 E90E0000 		.4byte	0xee9
 3219 07e8 FC070000 		.4byte	0x7fc
 3220 07ec 14       		.uleb128 0x14
 3221 07ed 01       		.uleb128 0x1
 3222 07ee 50       		.byte	0x50
 3223 07ef 02       		.uleb128 0x2
 3224 07f0 74       		.byte	0x74
 3225 07f1 00       		.sleb128 0
ARM GAS  C:\Users\austc\AppData\Local\Temp\ccPDHU8c.s 			page 73


 3226 07f2 14       		.uleb128 0x14
 3227 07f3 01       		.uleb128 0x1
 3228 07f4 51       		.byte	0x51
 3229 07f5 05       		.uleb128 0x5
 3230 07f6 03       		.byte	0x3
 3231 07f7 50010000 		.4byte	.LC56
 3232 07fb 00       		.byte	0
 3233 07fc 15       		.uleb128 0x15
 3234 07fd 36000000 		.4byte	.LVL80
 3235 0801 620E0000 		.4byte	0xe62
 3236 0805 14       		.uleb128 0x14
 3237 0806 01       		.uleb128 0x1
 3238 0807 50       		.byte	0x50
 3239 0808 02       		.uleb128 0x2
 3240 0809 74       		.byte	0x74
 3241 080a 00       		.sleb128 0
 3242 080b 00       		.byte	0
 3243 080c 00       		.byte	0
 3244 080d 10       		.uleb128 0x10
 3245 080e FC020000 		.4byte	.LASF58
 3246 0812 01       		.byte	0x1
 3247 0813 8F01     		.2byte	0x18f
 3248 0815 00000000 		.4byte	.LFB46
 3249 0819 54000000 		.4byte	.LFE46-.LFB46
 3250 081d 01       		.uleb128 0x1
 3251 081e 9C       		.byte	0x9c
 3252 081f 88080000 		.4byte	0x888
 3253 0823 19       		.uleb128 0x19
 3254 0824 65020000 		.4byte	.LASF24
 3255 0828 01       		.byte	0x1
 3256 0829 8F01     		.2byte	0x18f
 3257 082b 6B000000 		.4byte	0x6b
 3258 082f CB010000 		.4byte	.LLST10
 3259 0833 19       		.uleb128 0x19
 3260 0834 C3030000 		.4byte	.LASF25
 3261 0838 01       		.byte	0x1
 3262 0839 8F01     		.2byte	0x18f
 3263 083b 6B000000 		.4byte	0x6b
 3264 083f F8010000 		.4byte	.LLST11
 3265 0843 13       		.uleb128 0x13
 3266 0844 1A000000 		.4byte	.LVL83
 3267 0848 400F0000 		.4byte	0xf40
 3268 084c 5A080000 		.4byte	0x85a
 3269 0850 14       		.uleb128 0x14
 3270 0851 01       		.uleb128 0x1
 3271 0852 50       		.byte	0x50
 3272 0853 05       		.uleb128 0x5
 3273 0854 03       		.byte	0x3
 3274 0855 00000000 		.4byte	message
 3275 0859 00       		.byte	0
 3276 085a 13       		.uleb128 0x13
 3277 085b 36000000 		.4byte	.LVL84
 3278 085f E90E0000 		.4byte	0xee9
 3279 0863 77080000 		.4byte	0x877
 3280 0867 14       		.uleb128 0x14
 3281 0868 01       		.uleb128 0x1
 3282 0869 50       		.byte	0x50
ARM GAS  C:\Users\austc\AppData\Local\Temp\ccPDHU8c.s 			page 74


 3283 086a 02       		.uleb128 0x2
 3284 086b 74       		.byte	0x74
 3285 086c 00       		.sleb128 0
 3286 086d 14       		.uleb128 0x14
 3287 086e 01       		.uleb128 0x1
 3288 086f 51       		.byte	0x51
 3289 0870 05       		.uleb128 0x5
 3290 0871 03       		.byte	0x3
 3291 0872 74010000 		.4byte	.LC62
 3292 0876 00       		.byte	0
 3293 0877 15       		.uleb128 0x15
 3294 0878 3C000000 		.4byte	.LVL85
 3295 087c 620E0000 		.4byte	0xe62
 3296 0880 14       		.uleb128 0x14
 3297 0881 01       		.uleb128 0x1
 3298 0882 50       		.byte	0x50
 3299 0883 02       		.uleb128 0x2
 3300 0884 74       		.byte	0x74
 3301 0885 00       		.sleb128 0
 3302 0886 00       		.byte	0
 3303 0887 00       		.byte	0
 3304 0888 1B       		.uleb128 0x1b
 3305 0889 DC020000 		.4byte	0x2dc
 3306 088d 00000000 		.4byte	.LFB48
 3307 0891 B0000000 		.4byte	.LFE48-.LFB48
 3308 0895 01       		.uleb128 0x1
 3309 0896 9C       		.byte	0x9c
 3310 0897 A5080000 		.4byte	0x8a5
 3311 089b 12       		.uleb128 0x12
 3312 089c E9020000 		.4byte	0x2e9
 3313 08a0 19020000 		.4byte	.LLST12
 3314 08a4 00       		.byte	0
 3315 08a5 1C       		.uleb128 0x1c
 3316 08a6 E7000000 		.4byte	.LASF60
 3317 08aa 01       		.byte	0x1
 3318 08ab F301     		.2byte	0x1f3
 3319 08ad 5D000000 		.4byte	0x5d
 3320 08b1 00000000 		.4byte	.LFB50
 3321 08b5 48000000 		.4byte	.LFE50-.LFB50
 3322 08b9 01       		.uleb128 0x1
 3323 08ba 9C       		.byte	0x9c
 3324 08bb 19090000 		.4byte	0x919
 3325 08bf 19       		.uleb128 0x19
 3326 08c0 85000000 		.4byte	.LASF59
 3327 08c4 01       		.byte	0x1
 3328 08c5 F301     		.2byte	0x1f3
 3329 08c7 5D000000 		.4byte	0x5d
 3330 08cb 3A020000 		.4byte	.LLST13
 3331 08cf 1A       		.uleb128 0x1a
 3332 08d0 A5020000 		.4byte	.LASF55
 3333 08d4 01       		.byte	0x1
 3334 08d5 F401     		.2byte	0x1f4
 3335 08d7 5D000000 		.4byte	0x5d
 3336 08db 66020000 		.4byte	.LLST14
 3337 08df 13       		.uleb128 0x13
 3338 08e0 2E000000 		.4byte	.LVL94
 3339 08e4 E90E0000 		.4byte	0xee9
ARM GAS  C:\Users\austc\AppData\Local\Temp\ccPDHU8c.s 			page 75


 3340 08e8 08090000 		.4byte	0x908
 3341 08ec 14       		.uleb128 0x14
 3342 08ed 01       		.uleb128 0x1
 3343 08ee 50       		.byte	0x50
 3344 08ef 02       		.uleb128 0x2
 3345 08f0 76       		.byte	0x76
 3346 08f1 00       		.sleb128 0
 3347 08f2 14       		.uleb128 0x14
 3348 08f3 01       		.uleb128 0x1
 3349 08f4 51       		.byte	0x51
 3350 08f5 05       		.uleb128 0x5
 3351 08f6 03       		.byte	0x3
 3352 08f7 A4010000 		.4byte	.LC72
 3353 08fb 14       		.uleb128 0x14
 3354 08fc 01       		.uleb128 0x1
 3355 08fd 52       		.byte	0x52
 3356 08fe 02       		.uleb128 0x2
 3357 08ff 75       		.byte	0x75
 3358 0900 00       		.sleb128 0
 3359 0901 14       		.uleb128 0x14
 3360 0902 01       		.uleb128 0x1
 3361 0903 53       		.byte	0x53
 3362 0904 02       		.uleb128 0x2
 3363 0905 74       		.byte	0x74
 3364 0906 00       		.sleb128 0
 3365 0907 00       		.byte	0
 3366 0908 15       		.uleb128 0x15
 3367 0909 34000000 		.4byte	.LVL95
 3368 090d 620E0000 		.4byte	0xe62
 3369 0911 14       		.uleb128 0x14
 3370 0912 01       		.uleb128 0x1
 3371 0913 50       		.byte	0x50
 3372 0914 02       		.uleb128 0x2
 3373 0915 76       		.byte	0x76
 3374 0916 00       		.sleb128 0
 3375 0917 00       		.byte	0
 3376 0918 00       		.byte	0
 3377 0919 1D       		.uleb128 0x1d
 3378 091a 50040000 		.4byte	.LASF61
 3379 091e 01       		.byte	0x1
 3380 091f FC01     		.2byte	0x1fc
 3381 0921 5D000000 		.4byte	0x5d
 3382 0925 00000000 		.4byte	.LFB51
 3383 0929 64000000 		.4byte	.LFE51-.LFB51
 3384 092d 01       		.uleb128 0x1
 3385 092e 9C       		.byte	0x9c
 3386 092f B3090000 		.4byte	0x9b3
 3387 0933 19       		.uleb128 0x19
 3388 0934 04020000 		.4byte	.LASF62
 3389 0938 01       		.byte	0x1
 3390 0939 FC01     		.2byte	0x1fc
 3391 093b 5D000000 		.4byte	0x5d
 3392 093f 9A020000 		.4byte	.LLST15
 3393 0943 1A       		.uleb128 0x1a
 3394 0944 0A060000 		.4byte	.LASF63
 3395 0948 01       		.byte	0x1
 3396 0949 FD01     		.2byte	0x1fd
ARM GAS  C:\Users\austc\AppData\Local\Temp\ccPDHU8c.s 			page 76


 3397 094b 8F000000 		.4byte	0x8f
 3398 094f C6020000 		.4byte	.LLST16
 3399 0953 1E       		.uleb128 0x1e
 3400 0954 7000     		.ascii	"p\000"
 3401 0956 01       		.byte	0x1
 3402 0957 FE01     		.2byte	0x1fe
 3403 0959 5D000000 		.4byte	0x5d
 3404 095d D9020000 		.4byte	.LLST17
 3405 0961 1E       		.uleb128 0x1e
 3406 0962 6400     		.ascii	"d\000"
 3407 0964 01       		.byte	0x1
 3408 0965 0302     		.2byte	0x203
 3409 0967 5D000000 		.4byte	0x5d
 3410 096b EC020000 		.4byte	.LLST18
 3411 096f 17       		.uleb128 0x17
 3412 0970 0A000000 		.4byte	.LVL99
 3413 0974 350F0000 		.4byte	0xf35
 3414 0978 13       		.uleb128 0x13
 3415 0979 32000000 		.4byte	.LVL103
 3416 097d E90E0000 		.4byte	0xee9
 3417 0981 A2090000 		.4byte	0x9a2
 3418 0985 14       		.uleb128 0x14
 3419 0986 01       		.uleb128 0x1
 3420 0987 50       		.byte	0x50
 3421 0988 02       		.uleb128 0x2
 3422 0989 76       		.byte	0x76
 3423 098a 00       		.sleb128 0
 3424 098b 14       		.uleb128 0x14
 3425 098c 01       		.uleb128 0x1
 3426 098d 51       		.byte	0x51
 3427 098e 05       		.uleb128 0x5
 3428 098f 03       		.byte	0x3
 3429 0990 BC010000 		.4byte	.LC77
 3430 0994 14       		.uleb128 0x14
 3431 0995 01       		.uleb128 0x1
 3432 0996 52       		.byte	0x52
 3433 0997 02       		.uleb128 0x2
 3434 0998 74       		.byte	0x74
 3435 0999 00       		.sleb128 0
 3436 099a 14       		.uleb128 0x14
 3437 099b 02       		.uleb128 0x2
 3438 099c 7D       		.byte	0x7d
 3439 099d 00       		.sleb128 0
 3440 099e 02       		.uleb128 0x2
 3441 099f 75       		.byte	0x75
 3442 09a0 00       		.sleb128 0
 3443 09a1 00       		.byte	0
 3444 09a2 15       		.uleb128 0x15
 3445 09a3 38000000 		.4byte	.LVL104
 3446 09a7 620E0000 		.4byte	0xe62
 3447 09ab 14       		.uleb128 0x14
 3448 09ac 01       		.uleb128 0x1
 3449 09ad 50       		.byte	0x50
 3450 09ae 02       		.uleb128 0x2
 3451 09af 76       		.byte	0x76
 3452 09b0 00       		.sleb128 0
 3453 09b1 00       		.byte	0
ARM GAS  C:\Users\austc\AppData\Local\Temp\ccPDHU8c.s 			page 77


 3454 09b2 00       		.byte	0
 3455 09b3 10       		.uleb128 0x10
 3456 09b4 E5040000 		.4byte	.LASF64
 3457 09b8 01       		.byte	0x1
 3458 09b9 DE01     		.2byte	0x1de
 3459 09bb 00000000 		.4byte	.LFB49
 3460 09bf 88000000 		.4byte	.LFE49-.LFB49
 3461 09c3 01       		.uleb128 0x1
 3462 09c4 9C       		.byte	0x9c
 3463 09c5 9B0A0000 		.4byte	0xa9b
 3464 09c9 19       		.uleb128 0x19
 3465 09ca 85000000 		.4byte	.LASF59
 3466 09ce 01       		.byte	0x1
 3467 09cf DE01     		.2byte	0x1de
 3468 09d1 5D000000 		.4byte	0x5d
 3469 09d5 FF020000 		.4byte	.LLST19
 3470 09d9 1F       		.uleb128 0x1f
 3471 09da 22000000 		.4byte	.LBB10
 3472 09de 46000000 		.4byte	.LBE10-.LBB10
 3473 09e2 6D0A0000 		.4byte	0xa6d
 3474 09e6 1E       		.uleb128 0x1e
 3475 09e7 50574D00 		.ascii	"PWM\000"
 3476 09eb 01       		.byte	0x1
 3477 09ec E401     		.2byte	0x1e4
 3478 09ee 5D000000 		.4byte	0x5d
 3479 09f2 2B030000 		.4byte	.LLST20
 3480 09f6 13       		.uleb128 0x13
 3481 09f7 28000000 		.4byte	.LVL111
 3482 09fb A5080000 		.4byte	0x8a5
 3483 09ff 0A0A0000 		.4byte	0xa0a
 3484 0a03 14       		.uleb128 0x14
 3485 0a04 01       		.uleb128 0x1
 3486 0a05 50       		.byte	0x50
 3487 0a06 02       		.uleb128 0x2
 3488 0a07 75       		.byte	0x75
 3489 0a08 00       		.sleb128 0
 3490 0a09 00       		.byte	0
 3491 0a0a 17       		.uleb128 0x17
 3492 0a0b 2C000000 		.4byte	.LVL112
 3493 0a0f 19090000 		.4byte	0x919
 3494 0a13 13       		.uleb128 0x13
 3495 0a14 42000000 		.4byte	.LVL115
 3496 0a18 E90E0000 		.4byte	0xee9
 3497 0a1c 360A0000 		.4byte	0xa36
 3498 0a20 14       		.uleb128 0x14
 3499 0a21 01       		.uleb128 0x1
 3500 0a22 50       		.byte	0x50
 3501 0a23 02       		.uleb128 0x2
 3502 0a24 76       		.byte	0x76
 3503 0a25 00       		.sleb128 0
 3504 0a26 14       		.uleb128 0x14
 3505 0a27 01       		.uleb128 0x1
 3506 0a28 51       		.byte	0x51
 3507 0a29 05       		.uleb128 0x5
 3508 0a2a 03       		.byte	0x3
 3509 0a2b EC010000 		.4byte	.LC85
 3510 0a2f 14       		.uleb128 0x14
ARM GAS  C:\Users\austc\AppData\Local\Temp\ccPDHU8c.s 			page 78


 3511 0a30 01       		.uleb128 0x1
 3512 0a31 52       		.byte	0x52
 3513 0a32 02       		.uleb128 0x2
 3514 0a33 74       		.byte	0x74
 3515 0a34 00       		.sleb128 0
 3516 0a35 00       		.byte	0
 3517 0a36 13       		.uleb128 0x13
 3518 0a37 48000000 		.4byte	.LVL116
 3519 0a3b 620E0000 		.4byte	0xe62
 3520 0a3f 4A0A0000 		.4byte	0xa4a
 3521 0a43 14       		.uleb128 0x14
 3522 0a44 01       		.uleb128 0x1
 3523 0a45 50       		.byte	0x50
 3524 0a46 02       		.uleb128 0x2
 3525 0a47 76       		.byte	0x76
 3526 0a48 00       		.sleb128 0
 3527 0a49 00       		.byte	0
 3528 0a4a 17       		.uleb128 0x17
 3529 0a4b 54000000 		.4byte	.LVL117
 3530 0a4f 77050000 		.4byte	0x577
 3531 0a53 17       		.uleb128 0x17
 3532 0a54 60000000 		.4byte	.LVL118
 3533 0a58 77050000 		.4byte	0x577
 3534 0a5c 15       		.uleb128 0x15
 3535 0a5d 68000000 		.4byte	.LVL119
 3536 0a61 77050000 		.4byte	0x577
 3537 0a65 14       		.uleb128 0x14
 3538 0a66 01       		.uleb128 0x1
 3539 0a67 50       		.byte	0x50
 3540 0a68 02       		.uleb128 0x2
 3541 0a69 74       		.byte	0x74
 3542 0a6a 00       		.sleb128 0
 3543 0a6b 00       		.byte	0
 3544 0a6c 00       		.byte	0
 3545 0a6d 13       		.uleb128 0x13
 3546 0a6e 1A000000 		.4byte	.LVL109
 3547 0a72 E90E0000 		.4byte	0xee9
 3548 0a76 8A0A0000 		.4byte	0xa8a
 3549 0a7a 14       		.uleb128 0x14
 3550 0a7b 01       		.uleb128 0x1
 3551 0a7c 50       		.byte	0x50
 3552 0a7d 02       		.uleb128 0x2
 3553 0a7e 74       		.byte	0x74
 3554 0a7f 00       		.sleb128 0
 3555 0a80 14       		.uleb128 0x14
 3556 0a81 01       		.uleb128 0x1
 3557 0a82 51       		.byte	0x51
 3558 0a83 05       		.uleb128 0x5
 3559 0a84 03       		.byte	0x3
 3560 0a85 DC010000 		.4byte	.LC82
 3561 0a89 00       		.byte	0
 3562 0a8a 15       		.uleb128 0x15
 3563 0a8b 20000000 		.4byte	.LVL110
 3564 0a8f 620E0000 		.4byte	0xe62
 3565 0a93 14       		.uleb128 0x14
 3566 0a94 01       		.uleb128 0x1
 3567 0a95 50       		.byte	0x50
ARM GAS  C:\Users\austc\AppData\Local\Temp\ccPDHU8c.s 			page 79


 3568 0a96 02       		.uleb128 0x2
 3569 0a97 74       		.byte	0x74
 3570 0a98 00       		.sleb128 0
 3571 0a99 00       		.byte	0
 3572 0a9a 00       		.byte	0
 3573 0a9b 20       		.uleb128 0x20
 3574 0a9c 05060000 		.4byte	.LASF120
 3575 0aa0 01       		.byte	0x1
 3576 0aa1 60       		.byte	0x60
 3577 0aa2 5D000000 		.4byte	0x5d
 3578 0aa6 00000000 		.4byte	.LFB37
 3579 0aaa 30020000 		.4byte	.LFE37-.LFB37
 3580 0aae 01       		.uleb128 0x1
 3581 0aaf 9C       		.byte	0x9c
 3582 0ab0 260C0000 		.4byte	0xc26
 3583 0ab4 18       		.uleb128 0x18
 3584 0ab5 F7000000 		.4byte	.LASF65
 3585 0ab9 01       		.byte	0x1
 3586 0aba 68       		.byte	0x68
 3587 0abb 6B000000 		.4byte	0x6b
 3588 0abf 54030000 		.4byte	.LLST21
 3589 0ac3 21       		.uleb128 0x21
 3590 0ac4 757000   		.ascii	"up\000"
 3591 0ac7 01       		.byte	0x1
 3592 0ac8 75       		.byte	0x75
 3593 0ac9 5D000000 		.4byte	0x5d
 3594 0acd 00       		.byte	0
 3595 0ace 17       		.uleb128 0x17
 3596 0acf 3A000000 		.4byte	.LVL121
 3597 0ad3 A9030000 		.4byte	0x3a9
 3598 0ad7 17       		.uleb128 0x17
 3599 0ad8 3E000000 		.4byte	.LVL122
 3600 0adc B1040000 		.4byte	0x4b1
 3601 0ae0 13       		.uleb128 0x13
 3602 0ae1 48000000 		.4byte	.LVL123
 3603 0ae5 77050000 		.4byte	0x577
 3604 0ae9 F40A0000 		.4byte	0xaf4
 3605 0aed 14       		.uleb128 0x14
 3606 0aee 01       		.uleb128 0x1
 3607 0aef 50       		.byte	0x50
 3608 0af0 02       		.uleb128 0x2
 3609 0af1 74       		.byte	0x74
 3610 0af2 00       		.sleb128 0
 3611 0af3 00       		.byte	0
 3612 0af4 13       		.uleb128 0x13
 3613 0af5 90000000 		.4byte	.LVL124
 3614 0af9 E90E0000 		.4byte	0xee9
 3615 0afd 110B0000 		.4byte	0xb11
 3616 0b01 14       		.uleb128 0x14
 3617 0b02 01       		.uleb128 0x1
 3618 0b03 50       		.byte	0x50
 3619 0b04 02       		.uleb128 0x2
 3620 0b05 74       		.byte	0x74
 3621 0b06 00       		.sleb128 0
 3622 0b07 14       		.uleb128 0x14
 3623 0b08 01       		.uleb128 0x1
 3624 0b09 51       		.byte	0x51
ARM GAS  C:\Users\austc\AppData\Local\Temp\ccPDHU8c.s 			page 80


 3625 0b0a 05       		.uleb128 0x5
 3626 0b0b 03       		.byte	0x3
 3627 0b0c F8010000 		.4byte	.LC97
 3628 0b10 00       		.byte	0
 3629 0b11 13       		.uleb128 0x13
 3630 0b12 96000000 		.4byte	.LVL125
 3631 0b16 620E0000 		.4byte	0xe62
 3632 0b1a 250B0000 		.4byte	0xb25
 3633 0b1e 14       		.uleb128 0x14
 3634 0b1f 01       		.uleb128 0x1
 3635 0b20 50       		.byte	0x50
 3636 0b21 02       		.uleb128 0x2
 3637 0b22 74       		.byte	0x74
 3638 0b23 00       		.sleb128 0
 3639 0b24 00       		.byte	0
 3640 0b25 17       		.uleb128 0x17
 3641 0b26 AA000000 		.4byte	.LVL126
 3642 0b2a 77050000 		.4byte	0x577
 3643 0b2e 17       		.uleb128 0x17
 3644 0b2f B6000000 		.4byte	.LVL127
 3645 0b33 77050000 		.4byte	0x577
 3646 0b37 13       		.uleb128 0x13
 3647 0b38 D4000000 		.4byte	.LVL128
 3648 0b3c E90E0000 		.4byte	0xee9
 3649 0b40 540B0000 		.4byte	0xb54
 3650 0b44 14       		.uleb128 0x14
 3651 0b45 01       		.uleb128 0x1
 3652 0b46 50       		.byte	0x50
 3653 0b47 02       		.uleb128 0x2
 3654 0b48 74       		.byte	0x74
 3655 0b49 00       		.sleb128 0
 3656 0b4a 14       		.uleb128 0x14
 3657 0b4b 01       		.uleb128 0x1
 3658 0b4c 51       		.byte	0x51
 3659 0b4d 05       		.uleb128 0x5
 3660 0b4e 03       		.byte	0x3
 3661 0b4f 14020000 		.4byte	.LC100
 3662 0b53 00       		.byte	0
 3663 0b54 13       		.uleb128 0x13
 3664 0b55 DA000000 		.4byte	.LVL129
 3665 0b59 620E0000 		.4byte	0xe62
 3666 0b5d 680B0000 		.4byte	0xb68
 3667 0b61 14       		.uleb128 0x14
 3668 0b62 01       		.uleb128 0x1
 3669 0b63 50       		.byte	0x50
 3670 0b64 02       		.uleb128 0x2
 3671 0b65 74       		.byte	0x74
 3672 0b66 00       		.sleb128 0
 3673 0b67 00       		.byte	0
 3674 0b68 13       		.uleb128 0x13
 3675 0b69 06010000 		.4byte	.LVL130
 3676 0b6d E90E0000 		.4byte	0xee9
 3677 0b71 850B0000 		.4byte	0xb85
 3678 0b75 14       		.uleb128 0x14
 3679 0b76 01       		.uleb128 0x1
 3680 0b77 50       		.byte	0x50
 3681 0b78 02       		.uleb128 0x2
ARM GAS  C:\Users\austc\AppData\Local\Temp\ccPDHU8c.s 			page 81


 3682 0b79 74       		.byte	0x74
 3683 0b7a 00       		.sleb128 0
 3684 0b7b 14       		.uleb128 0x14
 3685 0b7c 01       		.uleb128 0x1
 3686 0b7d 51       		.byte	0x51
 3687 0b7e 05       		.uleb128 0x5
 3688 0b7f 03       		.byte	0x3
 3689 0b80 38020000 		.4byte	.LC102
 3690 0b84 00       		.byte	0
 3691 0b85 13       		.uleb128 0x13
 3692 0b86 0C010000 		.4byte	.LVL131
 3693 0b8a 620E0000 		.4byte	0xe62
 3694 0b8e 990B0000 		.4byte	0xb99
 3695 0b92 14       		.uleb128 0x14
 3696 0b93 01       		.uleb128 0x1
 3697 0b94 50       		.byte	0x50
 3698 0b95 02       		.uleb128 0x2
 3699 0b96 74       		.byte	0x74
 3700 0b97 00       		.sleb128 0
 3701 0b98 00       		.byte	0
 3702 0b99 17       		.uleb128 0x17
 3703 0b9a 24010000 		.4byte	.LVL132
 3704 0b9e B3090000 		.4byte	0x9b3
 3705 0ba2 13       		.uleb128 0x13
 3706 0ba3 42010000 		.4byte	.LVL133
 3707 0ba7 E90E0000 		.4byte	0xee9
 3708 0bab BF0B0000 		.4byte	0xbbf
 3709 0baf 14       		.uleb128 0x14
 3710 0bb0 01       		.uleb128 0x1
 3711 0bb1 50       		.byte	0x50
 3712 0bb2 02       		.uleb128 0x2
 3713 0bb3 74       		.byte	0x74
 3714 0bb4 00       		.sleb128 0
 3715 0bb5 14       		.uleb128 0x14
 3716 0bb6 01       		.uleb128 0x1
 3717 0bb7 51       		.byte	0x51
 3718 0bb8 05       		.uleb128 0x5
 3719 0bb9 03       		.byte	0x3
 3720 0bba 54020000 		.4byte	.LC104
 3721 0bbe 00       		.byte	0
 3722 0bbf 13       		.uleb128 0x13
 3723 0bc0 48010000 		.4byte	.LVL134
 3724 0bc4 620E0000 		.4byte	0xe62
 3725 0bc8 D30B0000 		.4byte	0xbd3
 3726 0bcc 14       		.uleb128 0x14
 3727 0bcd 01       		.uleb128 0x1
 3728 0bce 50       		.byte	0x50
 3729 0bcf 02       		.uleb128 0x2
 3730 0bd0 74       		.byte	0x74
 3731 0bd1 00       		.sleb128 0
 3732 0bd2 00       		.byte	0
 3733 0bd3 17       		.uleb128 0x17
 3734 0bd4 84010000 		.4byte	.LVL136
 3735 0bd8 0D080000 		.4byte	0x80d
 3736 0bdc 17       		.uleb128 0x17
 3737 0bdd 9A010000 		.4byte	.LVL137
 3738 0be1 0D080000 		.4byte	0x80d
ARM GAS  C:\Users\austc\AppData\Local\Temp\ccPDHU8c.s 			page 82


 3739 0be5 17       		.uleb128 0x17
 3740 0be6 B0010000 		.4byte	.LVL138
 3741 0bea 0D080000 		.4byte	0x80d
 3742 0bee 13       		.uleb128 0x13
 3743 0bef CE010000 		.4byte	.LVL139
 3744 0bf3 2C0F0000 		.4byte	0xf2c
 3745 0bf7 130C0000 		.4byte	0xc13
 3746 0bfb 14       		.uleb128 0x14
 3747 0bfc 01       		.uleb128 0x1
 3748 0bfd 50       		.byte	0x50
 3749 0bfe 05       		.uleb128 0x5
 3750 0bff 03       		.byte	0x3
 3751 0c00 00000000 		.4byte	txData
 3752 0c04 14       		.uleb128 0x14
 3753 0c05 01       		.uleb128 0x1
 3754 0c06 51       		.byte	0x51
 3755 0c07 05       		.uleb128 0x5
 3756 0c08 03       		.byte	0x3
 3757 0c09 78020000 		.4byte	.LC106
 3758 0c0d 14       		.uleb128 0x14
 3759 0c0e 01       		.uleb128 0x1
 3760 0c0f 52       		.byte	0x52
 3761 0c10 01       		.uleb128 0x1
 3762 0c11 44       		.byte	0x44
 3763 0c12 00       		.byte	0
 3764 0c13 17       		.uleb128 0x17
 3765 0c14 D2010000 		.4byte	.LVL140
 3766 0c18 C7060000 		.4byte	0x6c7
 3767 0c1c 17       		.uleb128 0x17
 3768 0c1d E6010000 		.4byte	.LVL141
 3769 0c21 B2070000 		.4byte	0x7b2
 3770 0c25 00       		.byte	0
 3771 0c26 22       		.uleb128 0x22
 3772 0c27 27050000 		.4byte	.LASF66
 3773 0c2b 01       		.byte	0x1
 3774 0c2c 11       		.byte	0x11
 3775 0c2d 83000000 		.4byte	0x83
 3776 0c31 05       		.uleb128 0x5
 3777 0c32 03       		.byte	0x3
 3778 0c33 00000000 		.4byte	message_id
 3779 0c37 22       		.uleb128 0x22
 3780 0c38 63000000 		.4byte	.LASF67
 3781 0c3c 01       		.byte	0x1
 3782 0c3d 15       		.byte	0x15
 3783 0c3e 77000000 		.4byte	0x77
 3784 0c42 05       		.uleb128 0x5
 3785 0c43 03       		.byte	0x3
 3786 0c44 00000000 		.4byte	CAN_RX_MAILBOX_1_SHIFT
 3787 0c48 22       		.uleb128 0x22
 3788 0c49 65040000 		.4byte	.LASF68
 3789 0c4d 01       		.byte	0x1
 3790 0c4e 16       		.byte	0x16
 3791 0c4f 83000000 		.4byte	0x83
 3792 0c53 05       		.uleb128 0x5
 3793 0c54 03       		.byte	0x3
 3794 0c55 00000000 		.4byte	CAN_RX_MAILBOX_0_SHIFT
 3795 0c59 22       		.uleb128 0x22
ARM GAS  C:\Users\austc\AppData\Local\Temp\ccPDHU8c.s 			page 83


 3796 0c5a 99040000 		.4byte	.LASF69
 3797 0c5e 01       		.byte	0x1
 3798 0c5f 17       		.byte	0x17
 3799 0c60 77000000 		.4byte	0x77
 3800 0c64 05       		.uleb128 0x5
 3801 0c65 03       		.byte	0x3
 3802 0c66 00000000 		.4byte	CAN_RX_MAILBOX_1
 3803 0c6a 22       		.uleb128 0x22
 3804 0c6b 88040000 		.4byte	.LASF70
 3805 0c6f 01       		.byte	0x1
 3806 0c70 18       		.byte	0x18
 3807 0c71 77000000 		.4byte	0x77
 3808 0c75 05       		.uleb128 0x5
 3809 0c76 03       		.byte	0x3
 3810 0c77 00000000 		.4byte	CAN_RX_MAILBOX_0
 3811 0c7b 22       		.uleb128 0x22
 3812 0c7c C9030000 		.4byte	.LASF71
 3813 0c80 01       		.byte	0x1
 3814 0c81 19       		.byte	0x19
 3815 0c82 5D000000 		.4byte	0x5d
 3816 0c86 05       		.uleb128 0x5
 3817 0c87 03       		.byte	0x3
 3818 0c88 00000000 		.4byte	CAN_TIMEOUT
 3819 0c8c 22       		.uleb128 0x22
 3820 0c8d 12030000 		.4byte	.LASF72
 3821 0c91 01       		.byte	0x1
 3822 0c92 1E       		.byte	0x1e
 3823 0c93 C8000000 		.4byte	0xc8
 3824 0c97 05       		.uleb128 0x5
 3825 0c98 03       		.byte	0x3
 3826 0c99 00000000 		.4byte	uart_debug
 3827 0c9d 22       		.uleb128 0x22
 3828 0c9e B6050000 		.4byte	.LASF73
 3829 0ca2 01       		.byte	0x1
 3830 0ca3 24       		.byte	0x24
 3831 0ca4 5D000000 		.4byte	0x5d
 3832 0ca8 05       		.uleb128 0x5
 3833 0ca9 03       		.byte	0x3
 3834 0caa 00000000 		.4byte	GEAR_RATIO
 3835 0cae 22       		.uleb128 0x22
 3836 0caf 5A030000 		.4byte	.LASF74
 3837 0cb3 01       		.byte	0x1
 3838 0cb4 25       		.byte	0x25
 3839 0cb5 5D000000 		.4byte	0x5d
 3840 0cb9 05       		.uleb128 0x5
 3841 0cba 03       		.byte	0x3
 3842 0cbb 00000000 		.4byte	pwm_compare
 3843 0cbf 22       		.uleb128 0x22
 3844 0cc0 F9010000 		.4byte	.LASF75
 3845 0cc4 01       		.byte	0x1
 3846 0cc5 26       		.byte	0x26
 3847 0cc6 6B000000 		.4byte	0x6b
 3848 0cca 05       		.uleb128 0x5
 3849 0ccb 03       		.byte	0x3
 3850 0ccc 00000000 		.4byte	invalidate
 3851 0cd0 23       		.uleb128 0x23
 3852 0cd1 6900     		.ascii	"i\000"
ARM GAS  C:\Users\austc\AppData\Local\Temp\ccPDHU8c.s 			page 84


 3853 0cd3 01       		.byte	0x1
 3854 0cd4 29       		.byte	0x29
 3855 0cd5 5D000000 		.4byte	0x5d
 3856 0cd9 05       		.uleb128 0x5
 3857 0cda 03       		.byte	0x3
 3858 0cdb 00000000 		.4byte	i
 3859 0cdf 22       		.uleb128 0x22
 3860 0ce0 16040000 		.4byte	.LASF76
 3861 0ce4 01       		.byte	0x1
 3862 0ce5 2A       		.byte	0x2a
 3863 0ce6 5D000000 		.4byte	0x5d
 3864 0cea 05       		.uleb128 0x5
 3865 0ceb 03       		.byte	0x3
 3866 0cec 00000000 		.4byte	lastp
 3867 0cf0 23       		.uleb128 0x23
 3868 0cf1 6B7000   		.ascii	"kp\000"
 3869 0cf4 01       		.byte	0x1
 3870 0cf5 2B       		.byte	0x2b
 3871 0cf6 5D000000 		.4byte	0x5d
 3872 0cfa 05       		.uleb128 0x5
 3873 0cfb 03       		.byte	0x3
 3874 0cfc 00000000 		.4byte	kp
 3875 0d00 23       		.uleb128 0x23
 3876 0d01 6B6900   		.ascii	"ki\000"
 3877 0d04 01       		.byte	0x1
 3878 0d05 2C       		.byte	0x2c
 3879 0d06 5D000000 		.4byte	0x5d
 3880 0d0a 05       		.uleb128 0x5
 3881 0d0b 03       		.byte	0x3
 3882 0d0c 00000000 		.4byte	ki
 3883 0d10 23       		.uleb128 0x23
 3884 0d11 6B6400   		.ascii	"kd\000"
 3885 0d14 01       		.byte	0x1
 3886 0d15 2D       		.byte	0x2d
 3887 0d16 5D000000 		.4byte	0x5d
 3888 0d1a 05       		.uleb128 0x5
 3889 0d1b 03       		.byte	0x3
 3890 0d1c 00000000 		.4byte	kd
 3891 0d20 22       		.uleb128 0x22
 3892 0d21 B4040000 		.4byte	.LASF77
 3893 0d25 01       		.byte	0x1
 3894 0d26 2E       		.byte	0x2e
 3895 0d27 A2000000 		.4byte	0xa2
 3896 0d2b 05       		.uleb128 0x5
 3897 0d2c 03       		.byte	0x3
 3898 0d2d 00000000 		.4byte	ratio
 3899 0d31 22       		.uleb128 0x22
 3900 0d32 6A020000 		.4byte	.LASF78
 3901 0d36 01       		.byte	0x1
 3902 0d37 2F       		.byte	0x2f
 3903 0d38 6B000000 		.4byte	0x6b
 3904 0d3c 05       		.uleb128 0x5
 3905 0d3d 03       		.byte	0x3
 3906 0d3e 00000000 		.4byte	complete
 3907 0d42 22       		.uleb128 0x22
 3908 0d43 CC050000 		.4byte	.LASF79
 3909 0d47 01       		.byte	0x1
ARM GAS  C:\Users\austc\AppData\Local\Temp\ccPDHU8c.s 			page 85


 3910 0d48 30       		.byte	0x30
 3911 0d49 6B000000 		.4byte	0x6b
 3912 0d4d 05       		.uleb128 0x5
 3913 0d4e 03       		.byte	0x3
 3914 0d4f 00000000 		.4byte	maxV
 3915 0d53 22       		.uleb128 0x22
 3916 0d54 FD000000 		.4byte	.LASF80
 3917 0d58 01       		.byte	0x1
 3918 0d59 33       		.byte	0x33
 3919 0d5a 6B000000 		.4byte	0x6b
 3920 0d5e 05       		.uleb128 0x5
 3921 0d5f 03       		.byte	0x3
 3922 0d60 00000000 		.4byte	mode
 3923 0d64 22       		.uleb128 0x22
 3924 0d65 16020000 		.4byte	.LASF81
 3925 0d69 01       		.byte	0x1
 3926 0d6a 36       		.byte	0x36
 3927 0d6b 6B000000 		.4byte	0x6b
 3928 0d6f 05       		.uleb128 0x5
 3929 0d70 03       		.byte	0x3
 3930 0d71 00000000 		.4byte	send_data
 3931 0d75 22       		.uleb128 0x22
 3932 0d76 F3030000 		.4byte	.LASF82
 3933 0d7a 01       		.byte	0x1
 3934 0d7b 37       		.byte	0x37
 3935 0d7c 6B000000 		.4byte	0x6b
 3936 0d80 05       		.uleb128 0x5
 3937 0d81 03       		.byte	0x3
 3938 0d82 00000000 		.4byte	model_req
 3939 0d86 22       		.uleb128 0x22
 3940 0d87 CE000000 		.4byte	.LASF83
 3941 0d8b 01       		.byte	0x1
 3942 0d8c 38       		.byte	0x38
 3943 0d8d 6B000000 		.4byte	0x6b
 3944 0d91 05       		.uleb128 0x5
 3945 0d92 03       		.byte	0x3
 3946 0d93 00000000 		.4byte	disable_limit
 3947 0d97 22       		.uleb128 0x22
 3948 0d98 5A010000 		.4byte	.LASF84
 3949 0d9c 01       		.byte	0x1
 3950 0d9d 3B       		.byte	0x3b
 3951 0d9e EC000000 		.4byte	0xec
 3952 0da2 05       		.uleb128 0x5
 3953 0da3 03       		.byte	0x3
 3954 0da4 00000000 		.4byte	Can_rx_pwm
 3955 0da8 22       		.uleb128 0x22
 3956 0da9 32050000 		.4byte	.LASF85
 3957 0dad 01       		.byte	0x1
 3958 0dae 3B       		.byte	0x3b
 3959 0daf EC000000 		.4byte	0xec
 3960 0db3 05       		.uleb128 0x5
 3961 0db4 03       		.byte	0x3
 3962 0db5 00000000 		.4byte	Can_rx_angle
 3963 0db9 22       		.uleb128 0x22
 3964 0dba 46020000 		.4byte	.LASF86
 3965 0dbe 01       		.byte	0x1
 3966 0dbf 3C       		.byte	0x3c
ARM GAS  C:\Users\austc\AppData\Local\Temp\ccPDHU8c.s 			page 86


 3967 0dc0 3C010000 		.4byte	0x13c
 3968 0dc4 05       		.uleb128 0x5
 3969 0dc5 03       		.byte	0x3
 3970 0dc6 00000000 		.4byte	stall
 3971 0dca 22       		.uleb128 0x22
 3972 0dcb 3F050000 		.4byte	.LASF87
 3973 0dcf 01       		.byte	0x1
 3974 0dd0 3D       		.byte	0x3d
 3975 0dd1 3C010000 		.4byte	0x13c
 3976 0dd5 05       		.uleb128 0x5
 3977 0dd6 03       		.byte	0x3
 3978 0dd7 00000000 		.4byte	command_failed
 3979 0ddb 22       		.uleb128 0x22
 3980 0ddc 7C040000 		.4byte	.LASF88
 3981 0de0 01       		.byte	0x1
 3982 0de1 3E       		.byte	0x3e
 3983 0de2 3C010000 		.4byte	0x13c
 3984 0de6 05       		.uleb128 0x5
 3985 0de7 03       		.byte	0x3
 3986 0de8 00000000 		.4byte	invalid_arg
 3987 0dec 22       		.uleb128 0x22
 3988 0ded 43060000 		.4byte	.LASF89
 3989 0df1 01       		.byte	0x1
 3990 0df2 41       		.byte	0x41
 3991 0df3 5D000000 		.4byte	0x5d
 3992 0df7 05       		.uleb128 0x5
 3993 0df8 03       		.byte	0x3
 3994 0df9 00000000 		.4byte	mailbox
 3995 0dfd 22       		.uleb128 0x22
 3996 0dfe 1D050000 		.4byte	.LASF90
 3997 0e02 01       		.byte	0x1
 3998 0e03 42       		.byte	0x42
 3999 0e04 6B000000 		.4byte	0x6b
 4000 0e08 05       		.uleb128 0x5
 4001 0e09 03       		.byte	0x3
 4002 0e0a 00000000 		.4byte	emergency
 4003 0e0e 0A       		.uleb128 0xa
 4004 0e0f A9000000 		.4byte	0xa9
 4005 0e13 1E0E0000 		.4byte	0xe1e
 4006 0e17 0B       		.uleb128 0xb
 4007 0e18 E5000000 		.4byte	0xe5
 4008 0e1c 63       		.byte	0x63
 4009 0e1d 00       		.byte	0
 4010 0e1e 22       		.uleb128 0x22
 4011 0e1f 2E020000 		.4byte	.LASF91
 4012 0e23 01       		.byte	0x1
 4013 0e24 43       		.byte	0x43
 4014 0e25 0E0E0000 		.4byte	0xe0e
 4015 0e29 05       		.uleb128 0x5
 4016 0e2a 03       		.byte	0x3
 4017 0e2b 00000000 		.4byte	txData
 4018 0e2f 22       		.uleb128 0x22
 4019 0e30 24030000 		.4byte	.LASF92
 4020 0e34 01       		.byte	0x1
 4021 0e35 45       		.byte	0x45
 4022 0e36 92010000 		.4byte	0x192
 4023 0e3a 05       		.uleb128 0x5
ARM GAS  C:\Users\austc\AppData\Local\Temp\ccPDHU8c.s 			page 87


 4024 0e3b 03       		.byte	0x3
 4025 0e3c 00000000 		.4byte	data
 4026 0e40 22       		.uleb128 0x22
 4027 0e41 8D000000 		.4byte	.LASF93
 4028 0e45 01       		.byte	0x1
 4029 0e46 46       		.byte	0x46
 4030 0e47 69020000 		.4byte	0x269
 4031 0e4b 05       		.uleb128 0x5
 4032 0e4c 03       		.byte	0x3
 4033 0e4d 00000000 		.4byte	message
 4034 0e51 22       		.uleb128 0x22
 4035 0e52 4C020000 		.4byte	.LASF94
 4036 0e56 01       		.byte	0x1
 4037 0e57 48       		.byte	0x48
 4038 0e58 C8000000 		.4byte	0xc8
 4039 0e5c 05       		.uleb128 0x5
 4040 0e5d 03       		.byte	0x3
 4041 0e5e 00000000 		.4byte	drive
 4042 0e62 24       		.uleb128 0x24
 4043 0e63 0A050000 		.4byte	.LASF95
 4044 0e67 0A050000 		.4byte	.LASF95
 4045 0e6b 05       		.byte	0x5
 4046 0e6c 2A03     		.2byte	0x32a
 4047 0e6e 24       		.uleb128 0x24
 4048 0e6f A7050000 		.4byte	.LASF96
 4049 0e73 A7050000 		.4byte	.LASF96
 4050 0e77 06       		.byte	0x6
 4051 0e78 3301     		.2byte	0x133
 4052 0e7a 25       		.uleb128 0x25
 4053 0e7b 1F060000 		.4byte	.LASF97
 4054 0e7f 1F060000 		.4byte	.LASF97
 4055 0e83 04       		.byte	0x4
 4056 0e84 C5       		.byte	0xc5
 4057 0e85 25       		.uleb128 0x25
 4058 0e86 98030000 		.4byte	.LASF98
 4059 0e8a 98030000 		.4byte	.LASF98
 4060 0e8e 07       		.byte	0x7
 4061 0e8f 31       		.byte	0x31
 4062 0e90 25       		.uleb128 0x25
 4063 0e91 D1050000 		.4byte	.LASF99
 4064 0e95 D1050000 		.4byte	.LASF99
 4065 0e99 08       		.byte	0x8
 4066 0e9a 5A       		.byte	0x5a
 4067 0e9b 25       		.uleb128 0x25
 4068 0e9c 29030000 		.4byte	.LASF100
 4069 0ea0 29030000 		.4byte	.LASF100
 4070 0ea4 09       		.byte	0x9
 4071 0ea5 48       		.byte	0x48
 4072 0ea6 24       		.uleb128 0x24
 4073 0ea7 7F050000 		.4byte	.LASF101
 4074 0eab 7F050000 		.4byte	.LASF101
 4075 0eaf 06       		.byte	0x6
 4076 0eb0 3201     		.2byte	0x132
 4077 0eb2 25       		.uleb128 0x25
 4078 0eb3 D1040000 		.4byte	.LASF102
 4079 0eb7 D1040000 		.4byte	.LASF102
 4080 0ebb 04       		.byte	0x4
ARM GAS  C:\Users\austc\AppData\Local\Temp\ccPDHU8c.s 			page 88


 4081 0ebc C8       		.byte	0xc8
 4082 0ebd 25       		.uleb128 0x25
 4083 0ebe 37030000 		.4byte	.LASF103
 4084 0ec2 37030000 		.4byte	.LASF103
 4085 0ec6 0A       		.byte	0xa
 4086 0ec7 BD       		.byte	0xbd
 4087 0ec8 25       		.uleb128 0x25
 4088 0ec9 2F060000 		.4byte	.LASF104
 4089 0ecd 2F060000 		.4byte	.LASF104
 4090 0ed1 0B       		.byte	0xb
 4091 0ed2 18       		.byte	0x18
 4092 0ed3 25       		.uleb128 0x25
 4093 0ed4 95000000 		.4byte	.LASF105
 4094 0ed8 95000000 		.4byte	.LASF105
 4095 0edc 0C       		.byte	0xc
 4096 0edd 18       		.byte	0x18
 4097 0ede 25       		.uleb128 0x25
 4098 0edf 4E050000 		.4byte	.LASF106
 4099 0ee3 4E050000 		.4byte	.LASF106
 4100 0ee7 0D       		.byte	0xd
 4101 0ee8 72       		.byte	0x72
 4102 0ee9 25       		.uleb128 0x25
 4103 0eea 30040000 		.4byte	.LASF107
 4104 0eee 30040000 		.4byte	.LASF107
 4105 0ef2 0E       		.byte	0xe
 4106 0ef3 E7       		.byte	0xe7
 4107 0ef4 25       		.uleb128 0x25
 4108 0ef5 C3040000 		.4byte	.LASF108
 4109 0ef9 C3040000 		.4byte	.LASF108
 4110 0efd 0F       		.byte	0xf
 4111 0efe 30       		.byte	0x30
 4112 0eff 25       		.uleb128 0x25
 4113 0f00 38010000 		.4byte	.LASF109
 4114 0f04 38010000 		.4byte	.LASF109
 4115 0f08 07       		.byte	0x7
 4116 0f09 30       		.byte	0x30
 4117 0f0a 25       		.uleb128 0x25
 4118 0f0b B5020000 		.4byte	.LASF110
 4119 0f0f B5020000 		.4byte	.LASF110
 4120 0f13 10       		.byte	0x10
 4121 0f14 33       		.byte	0x33
 4122 0f15 24       		.uleb128 0x24
 4123 0f16 8E020000 		.4byte	.LASF111
 4124 0f1a 8E020000 		.4byte	.LASF111
 4125 0f1e 06       		.byte	0x6
 4126 0f1f 5501     		.2byte	0x155
 4127 0f21 25       		.uleb128 0x25
 4128 0f22 73020000 		.4byte	.LASF112
 4129 0f26 73020000 		.4byte	.LASF112
 4130 0f2a 08       		.byte	0x8
 4131 0f2b 5E       		.byte	0x5e
 4132 0f2c 26       		.uleb128 0x26
 4133 0f2d FE050000 		.4byte	.LASF121
 4134 0f31 FE050000 		.4byte	.LASF121
 4135 0f35 25       		.uleb128 0x25
 4136 0f36 52020000 		.4byte	.LASF113
 4137 0f3a 52020000 		.4byte	.LASF113
ARM GAS  C:\Users\austc\AppData\Local\Temp\ccPDHU8c.s 			page 89


 4138 0f3e 09       		.byte	0x9
 4139 0f3f 4E       		.byte	0x4e
 4140 0f40 24       		.uleb128 0x24
 4141 0f41 66030000 		.4byte	.LASF114
 4142 0f45 66030000 		.4byte	.LASF114
 4143 0f49 04       		.byte	0x4
 4144 0f4a 1801     		.2byte	0x118
 4145 0f4c 00       		.byte	0
 4146              		.section	.debug_abbrev,"",%progbits
 4147              	.Ldebug_abbrev0:
 4148 0000 01       		.uleb128 0x1
 4149 0001 11       		.uleb128 0x11
 4150 0002 01       		.byte	0x1
 4151 0003 25       		.uleb128 0x25
 4152 0004 0E       		.uleb128 0xe
 4153 0005 13       		.uleb128 0x13
 4154 0006 0B       		.uleb128 0xb
 4155 0007 03       		.uleb128 0x3
 4156 0008 0E       		.uleb128 0xe
 4157 0009 1B       		.uleb128 0x1b
 4158 000a 0E       		.uleb128 0xe
 4159 000b 55       		.uleb128 0x55
 4160 000c 17       		.uleb128 0x17
 4161 000d 11       		.uleb128 0x11
 4162 000e 01       		.uleb128 0x1
 4163 000f 10       		.uleb128 0x10
 4164 0010 17       		.uleb128 0x17
 4165 0011 00       		.byte	0
 4166 0012 00       		.byte	0
 4167 0013 02       		.uleb128 0x2
 4168 0014 24       		.uleb128 0x24
 4169 0015 00       		.byte	0
 4170 0016 0B       		.uleb128 0xb
 4171 0017 0B       		.uleb128 0xb
 4172 0018 3E       		.uleb128 0x3e
 4173 0019 0B       		.uleb128 0xb
 4174 001a 03       		.uleb128 0x3
 4175 001b 0E       		.uleb128 0xe
 4176 001c 00       		.byte	0
 4177 001d 00       		.byte	0
 4178 001e 03       		.uleb128 0x3
 4179 001f 24       		.uleb128 0x24
 4180 0020 00       		.byte	0
 4181 0021 0B       		.uleb128 0xb
 4182 0022 0B       		.uleb128 0xb
 4183 0023 3E       		.uleb128 0x3e
 4184 0024 0B       		.uleb128 0xb
 4185 0025 03       		.uleb128 0x3
 4186 0026 08       		.uleb128 0x8
 4187 0027 00       		.byte	0
 4188 0028 00       		.byte	0
 4189 0029 04       		.uleb128 0x4
 4190 002a 16       		.uleb128 0x16
 4191 002b 00       		.byte	0
 4192 002c 03       		.uleb128 0x3
 4193 002d 0E       		.uleb128 0xe
 4194 002e 3A       		.uleb128 0x3a
ARM GAS  C:\Users\austc\AppData\Local\Temp\ccPDHU8c.s 			page 90


 4195 002f 0B       		.uleb128 0xb
 4196 0030 3B       		.uleb128 0x3b
 4197 0031 05       		.uleb128 0x5
 4198 0032 49       		.uleb128 0x49
 4199 0033 13       		.uleb128 0x13
 4200 0034 00       		.byte	0
 4201 0035 00       		.byte	0
 4202 0036 05       		.uleb128 0x5
 4203 0037 35       		.uleb128 0x35
 4204 0038 00       		.byte	0
 4205 0039 49       		.uleb128 0x49
 4206 003a 13       		.uleb128 0x13
 4207 003b 00       		.byte	0
 4208 003c 00       		.byte	0
 4209 003d 06       		.uleb128 0x6
 4210 003e 13       		.uleb128 0x13
 4211 003f 01       		.byte	0x1
 4212 0040 03       		.uleb128 0x3
 4213 0041 0E       		.uleb128 0xe
 4214 0042 0B       		.uleb128 0xb
 4215 0043 0B       		.uleb128 0xb
 4216 0044 3A       		.uleb128 0x3a
 4217 0045 0B       		.uleb128 0xb
 4218 0046 3B       		.uleb128 0x3b
 4219 0047 0B       		.uleb128 0xb
 4220 0048 01       		.uleb128 0x1
 4221 0049 13       		.uleb128 0x13
 4222 004a 00       		.byte	0
 4223 004b 00       		.byte	0
 4224 004c 07       		.uleb128 0x7
 4225 004d 0D       		.uleb128 0xd
 4226 004e 00       		.byte	0
 4227 004f 03       		.uleb128 0x3
 4228 0050 08       		.uleb128 0x8
 4229 0051 3A       		.uleb128 0x3a
 4230 0052 0B       		.uleb128 0xb
 4231 0053 3B       		.uleb128 0x3b
 4232 0054 0B       		.uleb128 0xb
 4233 0055 49       		.uleb128 0x49
 4234 0056 13       		.uleb128 0x13
 4235 0057 38       		.uleb128 0x38
 4236 0058 0B       		.uleb128 0xb
 4237 0059 00       		.byte	0
 4238 005a 00       		.byte	0
 4239 005b 08       		.uleb128 0x8
 4240 005c 0D       		.uleb128 0xd
 4241 005d 00       		.byte	0
 4242 005e 03       		.uleb128 0x3
 4243 005f 0E       		.uleb128 0xe
 4244 0060 3A       		.uleb128 0x3a
 4245 0061 0B       		.uleb128 0xb
 4246 0062 3B       		.uleb128 0x3b
 4247 0063 0B       		.uleb128 0xb
 4248 0064 49       		.uleb128 0x49
 4249 0065 13       		.uleb128 0x13
 4250 0066 38       		.uleb128 0x38
 4251 0067 0B       		.uleb128 0xb
ARM GAS  C:\Users\austc\AppData\Local\Temp\ccPDHU8c.s 			page 91


 4252 0068 00       		.byte	0
 4253 0069 00       		.byte	0
 4254 006a 09       		.uleb128 0x9
 4255 006b 13       		.uleb128 0x13
 4256 006c 01       		.byte	0x1
 4257 006d 0B       		.uleb128 0xb
 4258 006e 0B       		.uleb128 0xb
 4259 006f 3A       		.uleb128 0x3a
 4260 0070 0B       		.uleb128 0xb
 4261 0071 3B       		.uleb128 0x3b
 4262 0072 0B       		.uleb128 0xb
 4263 0073 01       		.uleb128 0x1
 4264 0074 13       		.uleb128 0x13
 4265 0075 00       		.byte	0
 4266 0076 00       		.byte	0
 4267 0077 0A       		.uleb128 0xa
 4268 0078 01       		.uleb128 0x1
 4269 0079 01       		.byte	0x1
 4270 007a 49       		.uleb128 0x49
 4271 007b 13       		.uleb128 0x13
 4272 007c 01       		.uleb128 0x1
 4273 007d 13       		.uleb128 0x13
 4274 007e 00       		.byte	0
 4275 007f 00       		.byte	0
 4276 0080 0B       		.uleb128 0xb
 4277 0081 21       		.uleb128 0x21
 4278 0082 00       		.byte	0
 4279 0083 49       		.uleb128 0x49
 4280 0084 13       		.uleb128 0x13
 4281 0085 2F       		.uleb128 0x2f
 4282 0086 0B       		.uleb128 0xb
 4283 0087 00       		.byte	0
 4284 0088 00       		.byte	0
 4285 0089 0C       		.uleb128 0xc
 4286 008a 16       		.uleb128 0x16
 4287 008b 00       		.byte	0
 4288 008c 03       		.uleb128 0x3
 4289 008d 0E       		.uleb128 0xe
 4290 008e 3A       		.uleb128 0x3a
 4291 008f 0B       		.uleb128 0xb
 4292 0090 3B       		.uleb128 0x3b
 4293 0091 0B       		.uleb128 0xb
 4294 0092 49       		.uleb128 0x49
 4295 0093 13       		.uleb128 0x13
 4296 0094 00       		.byte	0
 4297 0095 00       		.byte	0
 4298 0096 0D       		.uleb128 0xd
 4299 0097 0F       		.uleb128 0xf
 4300 0098 00       		.byte	0
 4301 0099 0B       		.uleb128 0xb
 4302 009a 0B       		.uleb128 0xb
 4303 009b 49       		.uleb128 0x49
 4304 009c 13       		.uleb128 0x13
 4305 009d 00       		.byte	0
 4306 009e 00       		.byte	0
 4307 009f 0E       		.uleb128 0xe
 4308 00a0 2E       		.uleb128 0x2e
ARM GAS  C:\Users\austc\AppData\Local\Temp\ccPDHU8c.s 			page 92


 4309 00a1 01       		.byte	0x1
 4310 00a2 3F       		.uleb128 0x3f
 4311 00a3 19       		.uleb128 0x19
 4312 00a4 03       		.uleb128 0x3
 4313 00a5 0E       		.uleb128 0xe
 4314 00a6 3A       		.uleb128 0x3a
 4315 00a7 0B       		.uleb128 0xb
 4316 00a8 3B       		.uleb128 0x3b
 4317 00a9 05       		.uleb128 0x5
 4318 00aa 27       		.uleb128 0x27
 4319 00ab 19       		.uleb128 0x19
 4320 00ac 20       		.uleb128 0x20
 4321 00ad 0B       		.uleb128 0xb
 4322 00ae 01       		.uleb128 0x1
 4323 00af 13       		.uleb128 0x13
 4324 00b0 00       		.byte	0
 4325 00b1 00       		.byte	0
 4326 00b2 0F       		.uleb128 0xf
 4327 00b3 05       		.uleb128 0x5
 4328 00b4 00       		.byte	0
 4329 00b5 03       		.uleb128 0x3
 4330 00b6 0E       		.uleb128 0xe
 4331 00b7 3A       		.uleb128 0x3a
 4332 00b8 0B       		.uleb128 0xb
 4333 00b9 3B       		.uleb128 0x3b
 4334 00ba 05       		.uleb128 0x5
 4335 00bb 49       		.uleb128 0x49
 4336 00bc 13       		.uleb128 0x13
 4337 00bd 00       		.byte	0
 4338 00be 00       		.byte	0
 4339 00bf 10       		.uleb128 0x10
 4340 00c0 2E       		.uleb128 0x2e
 4341 00c1 01       		.byte	0x1
 4342 00c2 3F       		.uleb128 0x3f
 4343 00c3 19       		.uleb128 0x19
 4344 00c4 03       		.uleb128 0x3
 4345 00c5 0E       		.uleb128 0xe
 4346 00c6 3A       		.uleb128 0x3a
 4347 00c7 0B       		.uleb128 0xb
 4348 00c8 3B       		.uleb128 0x3b
 4349 00c9 05       		.uleb128 0x5
 4350 00ca 27       		.uleb128 0x27
 4351 00cb 19       		.uleb128 0x19
 4352 00cc 11       		.uleb128 0x11
 4353 00cd 01       		.uleb128 0x1
 4354 00ce 12       		.uleb128 0x12
 4355 00cf 06       		.uleb128 0x6
 4356 00d0 40       		.uleb128 0x40
 4357 00d1 18       		.uleb128 0x18
 4358 00d2 9742     		.uleb128 0x2117
 4359 00d4 19       		.uleb128 0x19
 4360 00d5 01       		.uleb128 0x1
 4361 00d6 13       		.uleb128 0x13
 4362 00d7 00       		.byte	0
 4363 00d8 00       		.byte	0
 4364 00d9 11       		.uleb128 0x11
 4365 00da 1D       		.uleb128 0x1d
ARM GAS  C:\Users\austc\AppData\Local\Temp\ccPDHU8c.s 			page 93


 4366 00db 01       		.byte	0x1
 4367 00dc 31       		.uleb128 0x31
 4368 00dd 13       		.uleb128 0x13
 4369 00de 11       		.uleb128 0x11
 4370 00df 01       		.uleb128 0x1
 4371 00e0 12       		.uleb128 0x12
 4372 00e1 06       		.uleb128 0x6
 4373 00e2 58       		.uleb128 0x58
 4374 00e3 0B       		.uleb128 0xb
 4375 00e4 59       		.uleb128 0x59
 4376 00e5 05       		.uleb128 0x5
 4377 00e6 01       		.uleb128 0x1
 4378 00e7 13       		.uleb128 0x13
 4379 00e8 00       		.byte	0
 4380 00e9 00       		.byte	0
 4381 00ea 12       		.uleb128 0x12
 4382 00eb 05       		.uleb128 0x5
 4383 00ec 00       		.byte	0
 4384 00ed 31       		.uleb128 0x31
 4385 00ee 13       		.uleb128 0x13
 4386 00ef 02       		.uleb128 0x2
 4387 00f0 17       		.uleb128 0x17
 4388 00f1 00       		.byte	0
 4389 00f2 00       		.byte	0
 4390 00f3 13       		.uleb128 0x13
 4391 00f4 898201   		.uleb128 0x4109
 4392 00f7 01       		.byte	0x1
 4393 00f8 11       		.uleb128 0x11
 4394 00f9 01       		.uleb128 0x1
 4395 00fa 31       		.uleb128 0x31
 4396 00fb 13       		.uleb128 0x13
 4397 00fc 01       		.uleb128 0x1
 4398 00fd 13       		.uleb128 0x13
 4399 00fe 00       		.byte	0
 4400 00ff 00       		.byte	0
 4401 0100 14       		.uleb128 0x14
 4402 0101 8A8201   		.uleb128 0x410a
 4403 0104 00       		.byte	0
 4404 0105 02       		.uleb128 0x2
 4405 0106 18       		.uleb128 0x18
 4406 0107 9142     		.uleb128 0x2111
 4407 0109 18       		.uleb128 0x18
 4408 010a 00       		.byte	0
 4409 010b 00       		.byte	0
 4410 010c 15       		.uleb128 0x15
 4411 010d 898201   		.uleb128 0x4109
 4412 0110 01       		.byte	0x1
 4413 0111 11       		.uleb128 0x11
 4414 0112 01       		.uleb128 0x1
 4415 0113 31       		.uleb128 0x31
 4416 0114 13       		.uleb128 0x13
 4417 0115 00       		.byte	0
 4418 0116 00       		.byte	0
 4419 0117 16       		.uleb128 0x16
 4420 0118 2E       		.uleb128 0x2e
 4421 0119 01       		.byte	0x1
 4422 011a 3F       		.uleb128 0x3f
ARM GAS  C:\Users\austc\AppData\Local\Temp\ccPDHU8c.s 			page 94


 4423 011b 19       		.uleb128 0x19
 4424 011c 03       		.uleb128 0x3
 4425 011d 0E       		.uleb128 0xe
 4426 011e 3A       		.uleb128 0x3a
 4427 011f 0B       		.uleb128 0xb
 4428 0120 3B       		.uleb128 0x3b
 4429 0121 0B       		.uleb128 0xb
 4430 0122 27       		.uleb128 0x27
 4431 0123 19       		.uleb128 0x19
 4432 0124 11       		.uleb128 0x11
 4433 0125 01       		.uleb128 0x1
 4434 0126 12       		.uleb128 0x12
 4435 0127 06       		.uleb128 0x6
 4436 0128 40       		.uleb128 0x40
 4437 0129 18       		.uleb128 0x18
 4438 012a 9742     		.uleb128 0x2117
 4439 012c 19       		.uleb128 0x19
 4440 012d 01       		.uleb128 0x1
 4441 012e 13       		.uleb128 0x13
 4442 012f 00       		.byte	0
 4443 0130 00       		.byte	0
 4444 0131 17       		.uleb128 0x17
 4445 0132 898201   		.uleb128 0x4109
 4446 0135 00       		.byte	0
 4447 0136 11       		.uleb128 0x11
 4448 0137 01       		.uleb128 0x1
 4449 0138 31       		.uleb128 0x31
 4450 0139 13       		.uleb128 0x13
 4451 013a 00       		.byte	0
 4452 013b 00       		.byte	0
 4453 013c 18       		.uleb128 0x18
 4454 013d 34       		.uleb128 0x34
 4455 013e 00       		.byte	0
 4456 013f 03       		.uleb128 0x3
 4457 0140 0E       		.uleb128 0xe
 4458 0141 3A       		.uleb128 0x3a
 4459 0142 0B       		.uleb128 0xb
 4460 0143 3B       		.uleb128 0x3b
 4461 0144 0B       		.uleb128 0xb
 4462 0145 49       		.uleb128 0x49
 4463 0146 13       		.uleb128 0x13
 4464 0147 02       		.uleb128 0x2
 4465 0148 17       		.uleb128 0x17
 4466 0149 00       		.byte	0
 4467 014a 00       		.byte	0
 4468 014b 19       		.uleb128 0x19
 4469 014c 05       		.uleb128 0x5
 4470 014d 00       		.byte	0
 4471 014e 03       		.uleb128 0x3
 4472 014f 0E       		.uleb128 0xe
 4473 0150 3A       		.uleb128 0x3a
 4474 0151 0B       		.uleb128 0xb
 4475 0152 3B       		.uleb128 0x3b
 4476 0153 05       		.uleb128 0x5
 4477 0154 49       		.uleb128 0x49
 4478 0155 13       		.uleb128 0x13
 4479 0156 02       		.uleb128 0x2
ARM GAS  C:\Users\austc\AppData\Local\Temp\ccPDHU8c.s 			page 95


 4480 0157 17       		.uleb128 0x17
 4481 0158 00       		.byte	0
 4482 0159 00       		.byte	0
 4483 015a 1A       		.uleb128 0x1a
 4484 015b 34       		.uleb128 0x34
 4485 015c 00       		.byte	0
 4486 015d 03       		.uleb128 0x3
 4487 015e 0E       		.uleb128 0xe
 4488 015f 3A       		.uleb128 0x3a
 4489 0160 0B       		.uleb128 0xb
 4490 0161 3B       		.uleb128 0x3b
 4491 0162 05       		.uleb128 0x5
 4492 0163 49       		.uleb128 0x49
 4493 0164 13       		.uleb128 0x13
 4494 0165 02       		.uleb128 0x2
 4495 0166 17       		.uleb128 0x17
 4496 0167 00       		.byte	0
 4497 0168 00       		.byte	0
 4498 0169 1B       		.uleb128 0x1b
 4499 016a 2E       		.uleb128 0x2e
 4500 016b 01       		.byte	0x1
 4501 016c 31       		.uleb128 0x31
 4502 016d 13       		.uleb128 0x13
 4503 016e 11       		.uleb128 0x11
 4504 016f 01       		.uleb128 0x1
 4505 0170 12       		.uleb128 0x12
 4506 0171 06       		.uleb128 0x6
 4507 0172 40       		.uleb128 0x40
 4508 0173 18       		.uleb128 0x18
 4509 0174 9742     		.uleb128 0x2117
 4510 0176 19       		.uleb128 0x19
 4511 0177 01       		.uleb128 0x1
 4512 0178 13       		.uleb128 0x13
 4513 0179 00       		.byte	0
 4514 017a 00       		.byte	0
 4515 017b 1C       		.uleb128 0x1c
 4516 017c 2E       		.uleb128 0x2e
 4517 017d 01       		.byte	0x1
 4518 017e 3F       		.uleb128 0x3f
 4519 017f 19       		.uleb128 0x19
 4520 0180 03       		.uleb128 0x3
 4521 0181 0E       		.uleb128 0xe
 4522 0182 3A       		.uleb128 0x3a
 4523 0183 0B       		.uleb128 0xb
 4524 0184 3B       		.uleb128 0x3b
 4525 0185 05       		.uleb128 0x5
 4526 0186 27       		.uleb128 0x27
 4527 0187 19       		.uleb128 0x19
 4528 0188 49       		.uleb128 0x49
 4529 0189 13       		.uleb128 0x13
 4530 018a 11       		.uleb128 0x11
 4531 018b 01       		.uleb128 0x1
 4532 018c 12       		.uleb128 0x12
 4533 018d 06       		.uleb128 0x6
 4534 018e 40       		.uleb128 0x40
 4535 018f 18       		.uleb128 0x18
 4536 0190 9642     		.uleb128 0x2116
ARM GAS  C:\Users\austc\AppData\Local\Temp\ccPDHU8c.s 			page 96


 4537 0192 19       		.uleb128 0x19
 4538 0193 01       		.uleb128 0x1
 4539 0194 13       		.uleb128 0x13
 4540 0195 00       		.byte	0
 4541 0196 00       		.byte	0
 4542 0197 1D       		.uleb128 0x1d
 4543 0198 2E       		.uleb128 0x2e
 4544 0199 01       		.byte	0x1
 4545 019a 3F       		.uleb128 0x3f
 4546 019b 19       		.uleb128 0x19
 4547 019c 03       		.uleb128 0x3
 4548 019d 0E       		.uleb128 0xe
 4549 019e 3A       		.uleb128 0x3a
 4550 019f 0B       		.uleb128 0xb
 4551 01a0 3B       		.uleb128 0x3b
 4552 01a1 05       		.uleb128 0x5
 4553 01a2 27       		.uleb128 0x27
 4554 01a3 19       		.uleb128 0x19
 4555 01a4 49       		.uleb128 0x49
 4556 01a5 13       		.uleb128 0x13
 4557 01a6 11       		.uleb128 0x11
 4558 01a7 01       		.uleb128 0x1
 4559 01a8 12       		.uleb128 0x12
 4560 01a9 06       		.uleb128 0x6
 4561 01aa 40       		.uleb128 0x40
 4562 01ab 18       		.uleb128 0x18
 4563 01ac 9742     		.uleb128 0x2117
 4564 01ae 19       		.uleb128 0x19
 4565 01af 01       		.uleb128 0x1
 4566 01b0 13       		.uleb128 0x13
 4567 01b1 00       		.byte	0
 4568 01b2 00       		.byte	0
 4569 01b3 1E       		.uleb128 0x1e
 4570 01b4 34       		.uleb128 0x34
 4571 01b5 00       		.byte	0
 4572 01b6 03       		.uleb128 0x3
 4573 01b7 08       		.uleb128 0x8
 4574 01b8 3A       		.uleb128 0x3a
 4575 01b9 0B       		.uleb128 0xb
 4576 01ba 3B       		.uleb128 0x3b
 4577 01bb 05       		.uleb128 0x5
 4578 01bc 49       		.uleb128 0x49
 4579 01bd 13       		.uleb128 0x13
 4580 01be 02       		.uleb128 0x2
 4581 01bf 17       		.uleb128 0x17
 4582 01c0 00       		.byte	0
 4583 01c1 00       		.byte	0
 4584 01c2 1F       		.uleb128 0x1f
 4585 01c3 0B       		.uleb128 0xb
 4586 01c4 01       		.byte	0x1
 4587 01c5 11       		.uleb128 0x11
 4588 01c6 01       		.uleb128 0x1
 4589 01c7 12       		.uleb128 0x12
 4590 01c8 06       		.uleb128 0x6
 4591 01c9 01       		.uleb128 0x1
 4592 01ca 13       		.uleb128 0x13
 4593 01cb 00       		.byte	0
ARM GAS  C:\Users\austc\AppData\Local\Temp\ccPDHU8c.s 			page 97


 4594 01cc 00       		.byte	0
 4595 01cd 20       		.uleb128 0x20
 4596 01ce 2E       		.uleb128 0x2e
 4597 01cf 01       		.byte	0x1
 4598 01d0 3F       		.uleb128 0x3f
 4599 01d1 19       		.uleb128 0x19
 4600 01d2 03       		.uleb128 0x3
 4601 01d3 0E       		.uleb128 0xe
 4602 01d4 3A       		.uleb128 0x3a
 4603 01d5 0B       		.uleb128 0xb
 4604 01d6 3B       		.uleb128 0x3b
 4605 01d7 0B       		.uleb128 0xb
 4606 01d8 27       		.uleb128 0x27
 4607 01d9 19       		.uleb128 0x19
 4608 01da 49       		.uleb128 0x49
 4609 01db 13       		.uleb128 0x13
 4610 01dc 8701     		.uleb128 0x87
 4611 01de 19       		.uleb128 0x19
 4612 01df 11       		.uleb128 0x11
 4613 01e0 01       		.uleb128 0x1
 4614 01e1 12       		.uleb128 0x12
 4615 01e2 06       		.uleb128 0x6
 4616 01e3 40       		.uleb128 0x40
 4617 01e4 18       		.uleb128 0x18
 4618 01e5 9742     		.uleb128 0x2117
 4619 01e7 19       		.uleb128 0x19
 4620 01e8 01       		.uleb128 0x1
 4621 01e9 13       		.uleb128 0x13
 4622 01ea 00       		.byte	0
 4623 01eb 00       		.byte	0
 4624 01ec 21       		.uleb128 0x21
 4625 01ed 34       		.uleb128 0x34
 4626 01ee 00       		.byte	0
 4627 01ef 03       		.uleb128 0x3
 4628 01f0 08       		.uleb128 0x8
 4629 01f1 3A       		.uleb128 0x3a
 4630 01f2 0B       		.uleb128 0xb
 4631 01f3 3B       		.uleb128 0x3b
 4632 01f4 0B       		.uleb128 0xb
 4633 01f5 49       		.uleb128 0x49
 4634 01f6 13       		.uleb128 0x13
 4635 01f7 1C       		.uleb128 0x1c
 4636 01f8 0B       		.uleb128 0xb
 4637 01f9 00       		.byte	0
 4638 01fa 00       		.byte	0
 4639 01fb 22       		.uleb128 0x22
 4640 01fc 34       		.uleb128 0x34
 4641 01fd 00       		.byte	0
 4642 01fe 03       		.uleb128 0x3
 4643 01ff 0E       		.uleb128 0xe
 4644 0200 3A       		.uleb128 0x3a
 4645 0201 0B       		.uleb128 0xb
 4646 0202 3B       		.uleb128 0x3b
 4647 0203 0B       		.uleb128 0xb
 4648 0204 49       		.uleb128 0x49
 4649 0205 13       		.uleb128 0x13
 4650 0206 3F       		.uleb128 0x3f
ARM GAS  C:\Users\austc\AppData\Local\Temp\ccPDHU8c.s 			page 98


 4651 0207 19       		.uleb128 0x19
 4652 0208 02       		.uleb128 0x2
 4653 0209 18       		.uleb128 0x18
 4654 020a 00       		.byte	0
 4655 020b 00       		.byte	0
 4656 020c 23       		.uleb128 0x23
 4657 020d 34       		.uleb128 0x34
 4658 020e 00       		.byte	0
 4659 020f 03       		.uleb128 0x3
 4660 0210 08       		.uleb128 0x8
 4661 0211 3A       		.uleb128 0x3a
 4662 0212 0B       		.uleb128 0xb
 4663 0213 3B       		.uleb128 0x3b
 4664 0214 0B       		.uleb128 0xb
 4665 0215 49       		.uleb128 0x49
 4666 0216 13       		.uleb128 0x13
 4667 0217 3F       		.uleb128 0x3f
 4668 0218 19       		.uleb128 0x19
 4669 0219 02       		.uleb128 0x2
 4670 021a 18       		.uleb128 0x18
 4671 021b 00       		.byte	0
 4672 021c 00       		.byte	0
 4673 021d 24       		.uleb128 0x24
 4674 021e 2E       		.uleb128 0x2e
 4675 021f 00       		.byte	0
 4676 0220 3F       		.uleb128 0x3f
 4677 0221 19       		.uleb128 0x19
 4678 0222 3C       		.uleb128 0x3c
 4679 0223 19       		.uleb128 0x19
 4680 0224 6E       		.uleb128 0x6e
 4681 0225 0E       		.uleb128 0xe
 4682 0226 03       		.uleb128 0x3
 4683 0227 0E       		.uleb128 0xe
 4684 0228 3A       		.uleb128 0x3a
 4685 0229 0B       		.uleb128 0xb
 4686 022a 3B       		.uleb128 0x3b
 4687 022b 05       		.uleb128 0x5
 4688 022c 00       		.byte	0
 4689 022d 00       		.byte	0
 4690 022e 25       		.uleb128 0x25
 4691 022f 2E       		.uleb128 0x2e
 4692 0230 00       		.byte	0
 4693 0231 3F       		.uleb128 0x3f
 4694 0232 19       		.uleb128 0x19
 4695 0233 3C       		.uleb128 0x3c
 4696 0234 19       		.uleb128 0x19
 4697 0235 6E       		.uleb128 0x6e
 4698 0236 0E       		.uleb128 0xe
 4699 0237 03       		.uleb128 0x3
 4700 0238 0E       		.uleb128 0xe
 4701 0239 3A       		.uleb128 0x3a
 4702 023a 0B       		.uleb128 0xb
 4703 023b 3B       		.uleb128 0x3b
 4704 023c 0B       		.uleb128 0xb
 4705 023d 00       		.byte	0
 4706 023e 00       		.byte	0
 4707 023f 26       		.uleb128 0x26
ARM GAS  C:\Users\austc\AppData\Local\Temp\ccPDHU8c.s 			page 99


 4708 0240 2E       		.uleb128 0x2e
 4709 0241 00       		.byte	0
 4710 0242 3F       		.uleb128 0x3f
 4711 0243 19       		.uleb128 0x19
 4712 0244 3C       		.uleb128 0x3c
 4713 0245 19       		.uleb128 0x19
 4714 0246 6E       		.uleb128 0x6e
 4715 0247 0E       		.uleb128 0xe
 4716 0248 03       		.uleb128 0x3
 4717 0249 0E       		.uleb128 0xe
 4718 024a 00       		.byte	0
 4719 024b 00       		.byte	0
 4720 024c 00       		.byte	0
 4721              		.section	.debug_loc,"",%progbits
 4722              	.Ldebug_loc0:
 4723              	.LLST0:
 4724 0000 36000000 		.4byte	.LVL2
 4725 0004 38000000 		.4byte	.LVL3
 4726 0008 0100     		.2byte	0x1
 4727 000a 53       		.byte	0x53
 4728 000b 38000000 		.4byte	.LVL3
 4729 000f CC000000 		.4byte	.LVL4
 4730 0013 0500     		.2byte	0x5
 4731 0015 03       		.byte	0x3
 4732 0016 00000000 		.4byte	CAN_RX_MAILBOX_0
 4733 001a 00000000 		.4byte	0
 4734 001e 00000000 		.4byte	0
 4735              	.LLST1:
 4736 0022 FE000000 		.4byte	.LVL6
 4737 0026 00010000 		.4byte	.LVL7
 4738 002a 0100     		.2byte	0x1
 4739 002c 53       		.byte	0x53
 4740 002d 00010000 		.4byte	.LVL7
 4741 0031 94010000 		.4byte	.LVL8
 4742 0035 0500     		.2byte	0x5
 4743 0037 03       		.byte	0x3
 4744 0038 00000000 		.4byte	CAN_RX_MAILBOX_1
 4745 003c 00000000 		.4byte	0
 4746 0040 00000000 		.4byte	0
 4747              	.LLST2:
 4748 0044 08000000 		.4byte	.LVL11
 4749 0048 0B000000 		.4byte	.LVL12-1
 4750 004c 0100     		.2byte	0x1
 4751 004e 50       		.byte	0x50
 4752 004f 0B000000 		.4byte	.LVL12-1
 4753 0053 50000000 		.4byte	.LVL23
 4754 0057 0100     		.2byte	0x1
 4755 0059 54       		.byte	0x54
 4756 005a 00000000 		.4byte	0
 4757 005e 00000000 		.4byte	0
 4758              	.LLST3:
 4759 0062 00000000 		.4byte	.LVL24
 4760 0066 02000000 		.4byte	.LVL25
 4761 006a 0100     		.2byte	0x1
 4762 006c 50       		.byte	0x50
 4763 006d 02000000 		.4byte	.LVL25
 4764 0071 1C000000 		.4byte	.LFE41
ARM GAS  C:\Users\austc\AppData\Local\Temp\ccPDHU8c.s 			page 100


 4765 0075 0400     		.2byte	0x4
 4766 0077 F3       		.byte	0xf3
 4767 0078 01       		.uleb128 0x1
 4768 0079 50       		.byte	0x50
 4769 007a 9F       		.byte	0x9f
 4770 007b 00000000 		.4byte	0
 4771 007f 00000000 		.4byte	0
 4772              	.LLST4:
 4773 0083 0A000000 		.4byte	.LVL27
 4774 0087 D2000000 		.4byte	.LVL47
 4775 008b 0100     		.2byte	0x1
 4776 008d 55       		.byte	0x55
 4777 008e 00000000 		.4byte	0
 4778 0092 00000000 		.4byte	0
 4779              	.LLST5:
 4780 0096 0A000000 		.4byte	.LVL27
 4781 009a 2A000000 		.4byte	.LVL29
 4782 009e 0200     		.2byte	0x2
 4783 00a0 30       		.byte	0x30
 4784 00a1 9F       		.byte	0x9f
 4785 00a2 2A000000 		.4byte	.LVL29
 4786 00a6 2E000000 		.4byte	.LVL30
 4787 00aa 0200     		.2byte	0x2
 4788 00ac 31       		.byte	0x31
 4789 00ad 9F       		.byte	0x9f
 4790 00ae 2E000000 		.4byte	.LVL30
 4791 00b2 34000000 		.4byte	.LVL31
 4792 00b6 0200     		.2byte	0x2
 4793 00b8 30       		.byte	0x30
 4794 00b9 9F       		.byte	0x9f
 4795 00ba 34000000 		.4byte	.LVL31
 4796 00be 42000000 		.4byte	.LVL32
 4797 00c2 0200     		.2byte	0x2
 4798 00c4 32       		.byte	0x32
 4799 00c5 9F       		.byte	0x9f
 4800 00c6 42000000 		.4byte	.LVL32
 4801 00ca 4C000000 		.4byte	.LVL33
 4802 00ce 0200     		.2byte	0x2
 4803 00d0 30       		.byte	0x30
 4804 00d1 9F       		.byte	0x9f
 4805 00d2 4C000000 		.4byte	.LVL33
 4806 00d6 50000000 		.4byte	.LVL34
 4807 00da 0200     		.2byte	0x2
 4808 00dc 33       		.byte	0x33
 4809 00dd 9F       		.byte	0x9f
 4810 00de 50000000 		.4byte	.LVL34
 4811 00e2 5A000000 		.4byte	.LVL35
 4812 00e6 0200     		.2byte	0x2
 4813 00e8 30       		.byte	0x30
 4814 00e9 9F       		.byte	0x9f
 4815 00ea 5A000000 		.4byte	.LVL35
 4816 00ee 5E000000 		.4byte	.LVL36
 4817 00f2 0200     		.2byte	0x2
 4818 00f4 34       		.byte	0x34
 4819 00f5 9F       		.byte	0x9f
 4820 00f6 5E000000 		.4byte	.LVL36
 4821 00fa 68000000 		.4byte	.LVL37
ARM GAS  C:\Users\austc\AppData\Local\Temp\ccPDHU8c.s 			page 101


 4822 00fe 0200     		.2byte	0x2
 4823 0100 30       		.byte	0x30
 4824 0101 9F       		.byte	0x9f
 4825 0102 68000000 		.4byte	.LVL37
 4826 0106 6C000000 		.4byte	.LVL38
 4827 010a 0200     		.2byte	0x2
 4828 010c 35       		.byte	0x35
 4829 010d 9F       		.byte	0x9f
 4830 010e 6C000000 		.4byte	.LVL38
 4831 0112 72000000 		.4byte	.LVL39
 4832 0116 0200     		.2byte	0x2
 4833 0118 30       		.byte	0x30
 4834 0119 9F       		.byte	0x9f
 4835 011a 72000000 		.4byte	.LVL39
 4836 011e 76000000 		.4byte	.LVL40
 4837 0122 0200     		.2byte	0x2
 4838 0124 36       		.byte	0x36
 4839 0125 9F       		.byte	0x9f
 4840 0126 76000000 		.4byte	.LVL40
 4841 012a 78000000 		.4byte	.LVL41
 4842 012e 0200     		.2byte	0x2
 4843 0130 30       		.byte	0x30
 4844 0131 9F       		.byte	0x9f
 4845 0132 78000000 		.4byte	.LVL41
 4846 0136 D2000000 		.4byte	.LVL48
 4847 013a 0100     		.2byte	0x1
 4848 013c 56       		.byte	0x56
 4849 013d 00000000 		.4byte	0
 4850 0141 00000000 		.4byte	0
 4851              	.LLST6:
 4852 0145 00000000 		.4byte	.LVL49
 4853 0149 19000000 		.4byte	.LVL50-1
 4854 014d 0100     		.2byte	0x1
 4855 014f 50       		.byte	0x50
 4856 0150 19000000 		.4byte	.LVL50-1
 4857 0154 5C000000 		.4byte	.LVL61
 4858 0158 0100     		.2byte	0x1
 4859 015a 54       		.byte	0x54
 4860 015b 5C000000 		.4byte	.LVL61
 4861 015f 64000000 		.4byte	.LFE42
 4862 0163 0400     		.2byte	0x4
 4863 0165 F3       		.byte	0xf3
 4864 0166 01       		.uleb128 0x1
 4865 0167 50       		.byte	0x50
 4866 0168 9F       		.byte	0x9f
 4867 0169 00000000 		.4byte	0
 4868 016d 00000000 		.4byte	0
 4869              	.LLST7:
 4870 0171 1A000000 		.4byte	.LVL50
 4871 0175 2C000000 		.4byte	.LVL51
 4872 0179 0100     		.2byte	0x1
 4873 017b 50       		.byte	0x50
 4874 017c 38000000 		.4byte	.LVL54
 4875 0180 4A000000 		.4byte	.LVL55
 4876 0184 0100     		.2byte	0x1
 4877 0186 50       		.byte	0x50
 4878 0187 56000000 		.4byte	.LVL58
ARM GAS  C:\Users\austc\AppData\Local\Temp\ccPDHU8c.s 			page 102


 4879 018b 58000000 		.4byte	.LVL59
 4880 018f 0100     		.2byte	0x1
 4881 0191 50       		.byte	0x50
 4882 0192 00000000 		.4byte	0
 4883 0196 00000000 		.4byte	0
 4884              	.LLST8:
 4885 019a 06000000 		.4byte	.LVL62
 4886 019e 14000000 		.4byte	.LVL63
 4887 01a2 0100     		.2byte	0x1
 4888 01a4 50       		.byte	0x50
 4889 01a5 14000000 		.4byte	.LVL63
 4890 01a9 17000000 		.4byte	.LVL64-1
 4891 01ad 0100     		.2byte	0x1
 4892 01af 52       		.byte	0x52
 4893 01b0 00000000 		.4byte	0
 4894 01b4 00000000 		.4byte	0
 4895              	.LLST9:
 4896 01b8 08000000 		.4byte	.LVL69
 4897 01bc 14000000 		.4byte	.LVL70
 4898 01c0 0100     		.2byte	0x1
 4899 01c2 50       		.byte	0x50
 4900 01c3 00000000 		.4byte	0
 4901 01c7 00000000 		.4byte	0
 4902              	.LLST10:
 4903 01cb 00000000 		.4byte	.LVL81
 4904 01cf 16000000 		.4byte	.LVL82
 4905 01d3 0100     		.2byte	0x1
 4906 01d5 50       		.byte	0x50
 4907 01d6 16000000 		.4byte	.LVL82
 4908 01da 19000000 		.4byte	.LVL83-1
 4909 01de 0200     		.2byte	0x2
 4910 01e0 73       		.byte	0x73
 4911 01e1 01       		.sleb128 1
 4912 01e2 19000000 		.4byte	.LVL83-1
 4913 01e6 54000000 		.4byte	.LFE46
 4914 01ea 0400     		.2byte	0x4
 4915 01ec F3       		.byte	0xf3
 4916 01ed 01       		.uleb128 0x1
 4917 01ee 50       		.byte	0x50
 4918 01ef 9F       		.byte	0x9f
 4919 01f0 00000000 		.4byte	0
 4920 01f4 00000000 		.4byte	0
 4921              	.LLST11:
 4922 01f8 00000000 		.4byte	.LVL81
 4923 01fc 19000000 		.4byte	.LVL83-1
 4924 0200 0100     		.2byte	0x1
 4925 0202 51       		.byte	0x51
 4926 0203 19000000 		.4byte	.LVL83-1
 4927 0207 54000000 		.4byte	.LFE46
 4928 020b 0400     		.2byte	0x4
 4929 020d F3       		.byte	0xf3
 4930 020e 01       		.uleb128 0x1
 4931 020f 51       		.byte	0x51
 4932 0210 9F       		.byte	0x9f
 4933 0211 00000000 		.4byte	0
 4934 0215 00000000 		.4byte	0
 4935              	.LLST12:
ARM GAS  C:\Users\austc\AppData\Local\Temp\ccPDHU8c.s 			page 103


 4936 0219 00000000 		.4byte	.LVL86
 4937 021d 02000000 		.4byte	.LVL87
 4938 0221 0100     		.2byte	0x1
 4939 0223 50       		.byte	0x50
 4940 0224 02000000 		.4byte	.LVL87
 4941 0228 B0000000 		.4byte	.LFE48
 4942 022c 0400     		.2byte	0x4
 4943 022e F3       		.byte	0xf3
 4944 022f 01       		.uleb128 0x1
 4945 0230 50       		.byte	0x50
 4946 0231 9F       		.byte	0x9f
 4947 0232 00000000 		.4byte	0
 4948 0236 00000000 		.4byte	0
 4949              	.LLST13:
 4950 023a 00000000 		.4byte	.LVL88
 4951 023e 07000000 		.4byte	.LVL89-1
 4952 0242 0100     		.2byte	0x1
 4953 0244 50       		.byte	0x50
 4954 0245 07000000 		.4byte	.LVL89-1
 4955 0249 36000000 		.4byte	.LVL97
 4956 024d 0100     		.2byte	0x1
 4957 024f 55       		.byte	0x55
 4958 0250 36000000 		.4byte	.LVL97
 4959 0254 48000000 		.4byte	.LFE50
 4960 0258 0400     		.2byte	0x4
 4961 025a F3       		.byte	0xf3
 4962 025b 01       		.uleb128 0x1
 4963 025c 50       		.byte	0x50
 4964 025d 9F       		.byte	0x9f
 4965 025e 00000000 		.4byte	0
 4966 0262 00000000 		.4byte	0
 4967              	.LLST14:
 4968 0266 18000000 		.4byte	.LVL92
 4969 026a 2A000000 		.4byte	.LVL93
 4970 026e 0100     		.2byte	0x1
 4971 0270 50       		.byte	0x50
 4972 0271 2A000000 		.4byte	.LVL93
 4973 0275 2D000000 		.4byte	.LVL94-1
 4974 0279 0100     		.2byte	0x1
 4975 027b 53       		.byte	0x53
 4976 027c 2D000000 		.4byte	.LVL94-1
 4977 0280 36000000 		.4byte	.LVL96
 4978 0284 0100     		.2byte	0x1
 4979 0286 54       		.byte	0x54
 4980 0287 36000000 		.4byte	.LVL96
 4981 028b 48000000 		.4byte	.LFE50
 4982 028f 0100     		.2byte	0x1
 4983 0291 50       		.byte	0x50
 4984 0292 00000000 		.4byte	0
 4985 0296 00000000 		.4byte	0
 4986              	.LLST15:
 4987 029a 00000000 		.4byte	.LVL98
 4988 029e 09000000 		.4byte	.LVL99-1
 4989 02a2 0100     		.2byte	0x1
 4990 02a4 50       		.byte	0x50
 4991 02a5 09000000 		.4byte	.LVL99-1
 4992 02a9 0C000000 		.4byte	.LVL100
ARM GAS  C:\Users\austc\AppData\Local\Temp\ccPDHU8c.s 			page 104


 4993 02ad 0100     		.2byte	0x1
 4994 02af 54       		.byte	0x54
 4995 02b0 0C000000 		.4byte	.LVL100
 4996 02b4 64000000 		.4byte	.LFE51
 4997 02b8 0400     		.2byte	0x4
 4998 02ba F3       		.byte	0xf3
 4999 02bb 01       		.uleb128 0x1
 5000 02bc 50       		.byte	0x50
 5001 02bd 9F       		.byte	0x9f
 5002 02be 00000000 		.4byte	0
 5003 02c2 00000000 		.4byte	0
 5004              	.LLST16:
 5005 02c6 0A000000 		.4byte	.LVL99
 5006 02ca 2E000000 		.4byte	.LVL102
 5007 02ce 0100     		.2byte	0x1
 5008 02d0 50       		.byte	0x50
 5009 02d1 00000000 		.4byte	0
 5010 02d5 00000000 		.4byte	0
 5011              	.LLST17:
 5012 02d9 0C000000 		.4byte	.LVL100
 5013 02dd 3E000000 		.4byte	.LVL105
 5014 02e1 0100     		.2byte	0x1
 5015 02e3 54       		.byte	0x54
 5016 02e4 00000000 		.4byte	0
 5017 02e8 00000000 		.4byte	0
 5018              	.LLST18:
 5019 02ec 18000000 		.4byte	.LVL101
 5020 02f0 50000000 		.4byte	.LVL106
 5021 02f4 0100     		.2byte	0x1
 5022 02f6 55       		.byte	0x55
 5023 02f7 00000000 		.4byte	0
 5024 02fb 00000000 		.4byte	0
 5025              	.LLST19:
 5026 02ff 00000000 		.4byte	.LVL107
 5027 0303 16000000 		.4byte	.LVL108
 5028 0307 0100     		.2byte	0x1
 5029 0309 50       		.byte	0x50
 5030 030a 16000000 		.4byte	.LVL108
 5031 030e 70000000 		.4byte	.LVL120
 5032 0312 0100     		.2byte	0x1
 5033 0314 55       		.byte	0x55
 5034 0315 70000000 		.4byte	.LVL120
 5035 0319 88000000 		.4byte	.LFE49
 5036 031d 0400     		.2byte	0x4
 5037 031f F3       		.byte	0xf3
 5038 0320 01       		.uleb128 0x1
 5039 0321 50       		.byte	0x50
 5040 0322 9F       		.byte	0x9f
 5041 0323 00000000 		.4byte	0
 5042 0327 00000000 		.4byte	0
 5043              	.LLST20:
 5044 032b 2E000000 		.4byte	.LVL113
 5045 032f 3E000000 		.4byte	.LVL114
 5046 0333 0100     		.2byte	0x1
 5047 0335 50       		.byte	0x50
 5048 0336 3E000000 		.4byte	.LVL114
 5049 033a 41000000 		.4byte	.LVL115-1
ARM GAS  C:\Users\austc\AppData\Local\Temp\ccPDHU8c.s 			page 105


 5050 033e 0100     		.2byte	0x1
 5051 0340 52       		.byte	0x52
 5052 0341 41000000 		.4byte	.LVL115-1
 5053 0345 68000000 		.4byte	.LVL119
 5054 0349 0100     		.2byte	0x1
 5055 034b 54       		.byte	0x54
 5056 034c 00000000 		.4byte	0
 5057 0350 00000000 		.4byte	0
 5058              	.LLST21:
 5059 0354 6E010000 		.4byte	.LVL135
 5060 0358 83010000 		.4byte	.LVL136-1
 5061 035c 0600     		.2byte	0x6
 5062 035e 73       		.byte	0x73
 5063 035f 00       		.sleb128 0
 5064 0360 72       		.byte	0x72
 5065 0361 00       		.sleb128 0
 5066 0362 21       		.byte	0x21
 5067 0363 9F       		.byte	0x9f
 5068 0364 00000000 		.4byte	0
 5069 0368 00000000 		.4byte	0
 5070              		.section	.debug_aranges,"",%progbits
 5071 0000 9C000000 		.4byte	0x9c
 5072 0004 0200     		.2byte	0x2
 5073 0006 00000000 		.4byte	.Ldebug_info0
 5074 000a 04       		.byte	0x4
 5075 000b 00       		.byte	0
 5076 000c 0000     		.2byte	0
 5077 000e 0000     		.2byte	0
 5078 0010 00000000 		.4byte	.LFB47
 5079 0014 D8010000 		.4byte	.LFE47-.LFB47
 5080 0018 00000000 		.4byte	.LFB38
 5081 001c 14000000 		.4byte	.LFE38-.LFB38
 5082 0020 00000000 		.4byte	.LFB39
 5083 0024 6C000000 		.4byte	.LFE39-.LFB39
 5084 0028 00000000 		.4byte	.LFB41
 5085 002c 1C000000 		.4byte	.LFE41-.LFB41
 5086 0030 00000000 		.4byte	.LFB40
 5087 0034 F8000000 		.4byte	.LFE40-.LFB40
 5088 0038 00000000 		.4byte	.LFB42
 5089 003c 64000000 		.4byte	.LFE42-.LFB42
 5090 0040 00000000 		.4byte	.LFB35
 5091 0044 44000000 		.4byte	.LFE35-.LFB35
 5092 0048 00000000 		.4byte	.LFB36
 5093 004c 38000000 		.4byte	.LFE36-.LFB36
 5094 0050 00000000 		.4byte	.LFB43
 5095 0054 68000000 		.4byte	.LFE43-.LFB43
 5096 0058 00000000 		.4byte	.LFB44
 5097 005c 4C000000 		.4byte	.LFE44-.LFB44
 5098 0060 00000000 		.4byte	.LFB45
 5099 0064 4C000000 		.4byte	.LFE45-.LFB45
 5100 0068 00000000 		.4byte	.LFB46
 5101 006c 54000000 		.4byte	.LFE46-.LFB46
 5102 0070 00000000 		.4byte	.LFB48
 5103 0074 B0000000 		.4byte	.LFE48-.LFB48
 5104 0078 00000000 		.4byte	.LFB50
 5105 007c 48000000 		.4byte	.LFE50-.LFB50
 5106 0080 00000000 		.4byte	.LFB51
ARM GAS  C:\Users\austc\AppData\Local\Temp\ccPDHU8c.s 			page 106


 5107 0084 64000000 		.4byte	.LFE51-.LFB51
 5108 0088 00000000 		.4byte	.LFB49
 5109 008c 88000000 		.4byte	.LFE49-.LFB49
 5110 0090 00000000 		.4byte	.LFB37
 5111 0094 30020000 		.4byte	.LFE37-.LFB37
 5112 0098 00000000 		.4byte	0
 5113 009c 00000000 		.4byte	0
 5114              		.section	.debug_ranges,"",%progbits
 5115              	.Ldebug_ranges0:
 5116 0000 00000000 		.4byte	.LFB47
 5117 0004 D8010000 		.4byte	.LFE47
 5118 0008 00000000 		.4byte	.LFB38
 5119 000c 14000000 		.4byte	.LFE38
 5120 0010 00000000 		.4byte	.LFB39
 5121 0014 6C000000 		.4byte	.LFE39
 5122 0018 00000000 		.4byte	.LFB41
 5123 001c 1C000000 		.4byte	.LFE41
 5124 0020 00000000 		.4byte	.LFB40
 5125 0024 F8000000 		.4byte	.LFE40
 5126 0028 00000000 		.4byte	.LFB42
 5127 002c 64000000 		.4byte	.LFE42
 5128 0030 00000000 		.4byte	.LFB35
 5129 0034 44000000 		.4byte	.LFE35
 5130 0038 00000000 		.4byte	.LFB36
 5131 003c 38000000 		.4byte	.LFE36
 5132 0040 00000000 		.4byte	.LFB43
 5133 0044 68000000 		.4byte	.LFE43
 5134 0048 00000000 		.4byte	.LFB44
 5135 004c 4C000000 		.4byte	.LFE44
 5136 0050 00000000 		.4byte	.LFB45
 5137 0054 4C000000 		.4byte	.LFE45
 5138 0058 00000000 		.4byte	.LFB46
 5139 005c 54000000 		.4byte	.LFE46
 5140 0060 00000000 		.4byte	.LFB48
 5141 0064 B0000000 		.4byte	.LFE48
 5142 0068 00000000 		.4byte	.LFB50
 5143 006c 48000000 		.4byte	.LFE50
 5144 0070 00000000 		.4byte	.LFB51
 5145 0074 64000000 		.4byte	.LFE51
 5146 0078 00000000 		.4byte	.LFB49
 5147 007c 88000000 		.4byte	.LFE49
 5148 0080 00000000 		.4byte	.LFB37
 5149 0084 30020000 		.4byte	.LFE37
 5150 0088 00000000 		.4byte	0
 5151 008c 00000000 		.4byte	0
 5152              		.section	.debug_line,"",%progbits
 5153              	.Ldebug_line0:
 5154 0000 E8030000 		.section	.debug_str,"MS",%progbits,1
 5154      02007F01 
 5154      00000201 
 5154      FB0E0D00 
 5154      01010101 
 5155              	.LASF117:
 5156 0000 433A5C55 		.ascii	"C:\\Users\\austc\\OneDrive\\Documents\\GitHub\\Elec"
 5156      73657273 
 5156      5C617573 
 5156      74635C4F 
ARM GAS  C:\Users\austc\AppData\Local\Temp\ccPDHU8c.s 			page 107


 5156      6E654472 
 5157 002d 74726F6E 		.ascii	"tronics2018-19\\Psoc Arm\\Motor Board Rev2.cydsn\000"
 5157      69637332 
 5157      3031382D 
 5157      31395C50 
 5157      736F6320 
 5158              	.LASF116:
 5159 005c 6D61696E 		.ascii	"main.c\000"
 5159      2E6300
 5160              	.LASF67:
 5161 0063 43414E5F 		.ascii	"CAN_RX_MAILBOX_1_SHIFT\000"
 5161      52585F4D 
 5161      41494C42 
 5161      4F585F31 
 5161      5F534849 
 5162              	.LASF42:
 5163 007a 7365745F 		.ascii	"set_CAN_ID\000"
 5163      43414E5F 
 5163      494400
 5164              	.LASF59:
 5165 0085 64656772 		.ascii	"degrees\000"
 5165      65657300 
 5166              	.LASF93:
 5167 008d 6D657373 		.ascii	"message\000"
 5167      61676500 
 5168              	.LASF105:
 5169 0095 6973725F 		.ascii	"isr_period_StartEx\000"
 5169      70657269 
 5169      6F645F53 
 5169      74617274 
 5169      457800
 5170              	.LASF56:
 5171 00a8 43414E5F 		.ascii	"CAN_Send_Telemetry\000"
 5171      53656E64 
 5171      5F54656C 
 5171      656D6574 
 5171      727900
 5172              	.LASF8:
 5173 00bb 756E7369 		.ascii	"unsigned int\000"
 5173      676E6564 
 5173      20696E74 
 5173      00
 5174              	.LASF34:
 5175 00c8 7278616D 		.ascii	"rxamr\000"
 5175      7200
 5176              	.LASF83:
 5177 00ce 64697361 		.ascii	"disable_limit\000"
 5177      626C655F 
 5177      6C696D69 
 5177      7400
 5178              	.LASF12:
 5179 00dc 696E7431 		.ascii	"int16\000"
 5179      3600
 5180              	.LASF17:
 5181 00e2 72656738 		.ascii	"reg8\000"
 5181      00
 5182              	.LASF60:
ARM GAS  C:\Users\austc\AppData\Local\Temp\ccPDHU8c.s 			page 108


 5183 00e7 64656772 		.ascii	"degrees_to_tick\000"
 5183      6565735F 
 5183      746F5F74 
 5183      69636B00 
 5184              	.LASF65:
 5185 00f7 6572726F 		.ascii	"error\000"
 5185      7200
 5186              	.LASF80:
 5187 00fd 6D6F6465 		.ascii	"mode\000"
 5187      00
 5188              	.LASF30:
 5189 0102 43414E5F 		.ascii	"CAN_TX_MSG\000"
 5189      54585F4D 
 5189      534700
 5190              	.LASF45:
 5191 010d 73657474 		.ascii	"setting\000"
 5191      696E6700 
 5192              	.LASF13:
 5193 0115 666C6F61 		.ascii	"float\000"
 5193      7400
 5194              	.LASF46:
 5195 011b 73686966 		.ascii	"shift\000"
 5195      7400
 5196              	.LASF7:
 5197 0121 6C6F6E67 		.ascii	"long long unsigned int\000"
 5197      206C6F6E 
 5197      6720756E 
 5197      7369676E 
 5197      65642069 
 5198              	.LASF109:
 5199 0138 53746174 		.ascii	"Status_Reg_Switches_Read\000"
 5199      75735F52 
 5199      65675F53 
 5199      77697463 
 5199      6865735F 
 5200              	.LASF22:
 5201 0151 43616E5F 		.ascii	"Can_data\000"
 5201      64617461 
 5201      00
 5202              	.LASF84:
 5203 015a 43616E5F 		.ascii	"Can_rx_pwm\000"
 5203      72785F70 
 5203      776D00
 5204              	.LASF23:
 5205 0165 4572726F 		.ascii	"Error\000"
 5205      7200
 5206              	.LASF115:
 5207 016b 474E5520 		.ascii	"GNU C11 5.4.1 20160609 (release) [ARM/embedded-5-br"
 5207      43313120 
 5207      352E342E 
 5207      31203230 
 5207      31363036 
 5208 019e 616E6368 		.ascii	"anch revision 237715] -mcpu=cortex-m0 -mthumb -g -O"
 5208      20726576 
 5208      6973696F 
 5208      6E203233 
 5208      37373135 
ARM GAS  C:\Users\austc\AppData\Local\Temp\ccPDHU8c.s 			page 109


 5209 01d1 67202D66 		.ascii	"g -ffunction-sections -ffat-lto-objects\000"
 5209      66756E63 
 5209      74696F6E 
 5209      2D736563 
 5209      74696F6E 
 5210              	.LASF75:
 5211 01f9 696E7661 		.ascii	"invalidate\000"
 5211      6C696461 
 5211      746500
 5212              	.LASF62:
 5213 0204 74617267 		.ascii	"target\000"
 5213      657400
 5214              	.LASF41:
 5215 020b 696E6974 		.ascii	"initialize\000"
 5215      69616C69 
 5215      7A6500
 5216              	.LASF81:
 5217 0216 73656E64 		.ascii	"send_data\000"
 5217      5F646174 
 5217      6100
 5218              	.LASF38:
 5219 0220 43414E5F 		.ascii	"CAN_RX_STRUCT\000"
 5219      52585F53 
 5219      54525543 
 5219      5400
 5220              	.LASF91:
 5221 022e 74784461 		.ascii	"txData\000"
 5221      746100
 5222              	.LASF54:
 5223 0235 43414E5F 		.ascii	"CAN_Send_Encoder\000"
 5223      53656E64 
 5223      5F456E63 
 5223      6F646572 
 5223      00
 5224              	.LASF86:
 5225 0246 7374616C 		.ascii	"stall\000"
 5225      6C00
 5226              	.LASF94:
 5227 024c 64726976 		.ascii	"drive\000"
 5227      6500
 5228              	.LASF113:
 5229 0252 51756164 		.ascii	"QuadDec_GetCounter\000"
 5229      4465635F 
 5229      47657443 
 5229      6F756E74 
 5229      657200
 5230              	.LASF24:
 5231 0265 636F6465 		.ascii	"code\000"
 5231      00
 5232              	.LASF78:
 5233 026a 636F6D70 		.ascii	"complete\000"
 5233      6C657465 
 5233      00
 5234              	.LASF112:
 5235 0273 54696D65 		.ascii	"Timer_1_ReadStatusRegister\000"
 5235      725F315F 
 5235      52656164 
ARM GAS  C:\Users\austc\AppData\Local\Temp\ccPDHU8c.s 			page 110


 5235      53746174 
 5235      75735265 
 5236              	.LASF111:
 5237 028e 50574D5F 		.ascii	"PWM_Motor_WriteCompare\000"
 5237      4D6F746F 
 5237      725F5772 
 5237      69746543 
 5237      6F6D7061 
 5238              	.LASF55:
 5239 02a5 7469636B 		.ascii	"ticks\000"
 5239      7300
 5240              	.LASF44:
 5241 02ab 63616E5F 		.ascii	"can_start\000"
 5241      73746172 
 5241      7400
 5242              	.LASF110:
 5243 02b5 50696E5F 		.ascii	"Pin_Direction_Write\000"
 5243      44697265 
 5243      6374696F 
 5243      6E5F5772 
 5243      69746500 
 5244              	.LASF51:
 5245 02c9 50657269 		.ascii	"Period_Reset_Handler\000"
 5245      6F645F52 
 5245      65736574 
 5245      5F48616E 
 5245      646C6572 
 5246              	.LASF16:
 5247 02de 63686172 		.ascii	"char\000"
 5247      00
 5248              	.LASF27:
 5249 02e3 43414E5F 		.ascii	"CAN_DATA_BYTES_MSG\000"
 5249      44415441 
 5249      5F425954 
 5249      45535F4D 
 5249      534700
 5250              	.LASF35:
 5251 02f6 72786163 		.ascii	"rxacr\000"
 5251      7200
 5252              	.LASF58:
 5253 02fc 43414E5F 		.ascii	"CAN_Send_Error\000"
 5253      53656E64 
 5253      5F457272 
 5253      6F7200
 5254              	.LASF36:
 5255 030b 7278616D 		.ascii	"rxamrd\000"
 5255      726400
 5256              	.LASF72:
 5257 0312 75617274 		.ascii	"uart_debug\000"
 5257      5F646562 
 5257      756700
 5258              	.LASF10:
 5259 031d 75696E74 		.ascii	"uint16\000"
 5259      313600
 5260              	.LASF92:
 5261 0324 64617461 		.ascii	"data\000"
 5261      00
ARM GAS  C:\Users\austc\AppData\Local\Temp\ccPDHU8c.s 			page 111


 5262              	.LASF100:
 5263 0329 51756164 		.ascii	"QuadDec_Start\000"
 5263      4465635F 
 5263      53746172 
 5263      7400
 5264              	.LASF103:
 5265 0337 4379496E 		.ascii	"CyIntSetVector\000"
 5265      74536574 
 5265      56656374 
 5265      6F7200
 5266              	.LASF50:
 5267 0346 73746174 		.ascii	"status\000"
 5267      757300
 5268              	.LASF15:
 5269 034d 63686172 		.ascii	"char8\000"
 5269      3800
 5270              	.LASF37:
 5271 0353 72786163 		.ascii	"rxacrd\000"
 5271      726400
 5272              	.LASF74:
 5273 035a 70776D5F 		.ascii	"pwm_compare\000"
 5273      636F6D70 
 5273      61726500 
 5274              	.LASF114:
 5275 0366 43414E5F 		.ascii	"CAN_SendMsg\000"
 5275      53656E64 
 5275      4D736700 
 5276              	.LASF40:
 5277 0372 656D6572 		.ascii	"emergency_halt\000"
 5277      67656E63 
 5277      795F6861 
 5277      6C7400
 5278              	.LASF6:
 5279 0381 6C6F6E67 		.ascii	"long long int\000"
 5279      206C6F6E 
 5279      6720696E 
 5279      7400
 5280              	.LASF118:
 5281 038f 7365745F 		.ascii	"set_data\000"
 5281      64617461 
 5281      00
 5282              	.LASF98:
 5283 0398 53746174 		.ascii	"Status_Reg_Switches_InterruptEnable\000"
 5283      75735F52 
 5283      65675F53 
 5283      77697463 
 5283      6865735F 
 5284              	.LASF33:
 5285 03bc 72786461 		.ascii	"rxdata\000"
 5285      746100
 5286              	.LASF25:
 5287 03c3 70617261 		.ascii	"param\000"
 5287      6D00
 5288              	.LASF71:
 5289 03c9 43414E5F 		.ascii	"CAN_TIMEOUT\000"
 5289      54494D45 
 5289      4F555400 
ARM GAS  C:\Users\austc\AppData\Local\Temp\ccPDHU8c.s 			page 112


 5290              	.LASF28:
 5291 03d5 43414E5F 		.ascii	"CAN_DATA_BYTES\000"
 5291      44415441 
 5291      5F425954 
 5291      455300
 5292              	.LASF49:
 5293 03e4 636F6D70 		.ascii	"compare\000"
 5293      61726500 
 5294              	.LASF11:
 5295 03ec 75696E74 		.ascii	"uint32\000"
 5295      333200
 5296              	.LASF82:
 5297 03f3 6D6F6465 		.ascii	"model_req\000"
 5297      6C5F7265 
 5297      7100
 5298              	.LASF21:
 5299 03fd 646F6E65 		.ascii	"done\000"
 5299      00
 5300              	.LASF43:
 5301 0402 696E6974 		.ascii	"initialize_can_addr\000"
 5301      69616C69 
 5301      7A655F63 
 5301      616E5F61 
 5301      64647200 
 5302              	.LASF76:
 5303 0416 6C617374 		.ascii	"lastp\000"
 5303      7000
 5304              	.LASF19:
 5305 041c 6C6F6E67 		.ascii	"long double\000"
 5305      20646F75 
 5305      626C6500 
 5306              	.LASF47:
 5307 0428 7365745F 		.ascii	"set_PWM\000"
 5307      50574D00 
 5308              	.LASF107:
 5309 0430 73707269 		.ascii	"sprintf\000"
 5309      6E746600 
 5310              	.LASF18:
 5311 0438 72656733 		.ascii	"reg32\000"
 5311      3200
 5312              	.LASF53:
 5313 043e 50696E5F 		.ascii	"Pin_Limit_Handler\000"
 5313      4C696D69 
 5313      745F4861 
 5313      6E646C65 
 5313      7200
 5314              	.LASF61:
 5315 0450 706F7369 		.ascii	"position_PID\000"
 5315      74696F6E 
 5315      5F504944 
 5315      00
 5316              	.LASF39:
 5317 045d 4953525F 		.ascii	"ISR_CAN\000"
 5317      43414E00 
 5318              	.LASF68:
 5319 0465 43414E5F 		.ascii	"CAN_RX_MAILBOX_0_SHIFT\000"
 5319      52585F4D 
ARM GAS  C:\Users\austc\AppData\Local\Temp\ccPDHU8c.s 			page 113


 5319      41494C42 
 5319      4F585F30 
 5319      5F534849 
 5320              	.LASF88:
 5321 047c 696E7661 		.ascii	"invalid_arg\000"
 5321      6C69645F 
 5321      61726700 
 5322              	.LASF70:
 5323 0488 43414E5F 		.ascii	"CAN_RX_MAILBOX_0\000"
 5323      52585F4D 
 5323      41494C42 
 5323      4F585F30 
 5323      00
 5324              	.LASF69:
 5325 0499 43414E5F 		.ascii	"CAN_RX_MAILBOX_1\000"
 5325      52585F4D 
 5325      41494C42 
 5325      4F585F31 
 5325      00
 5326              	.LASF2:
 5327 04aa 73686F72 		.ascii	"short int\000"
 5327      7420696E 
 5327      7400
 5328              	.LASF77:
 5329 04b4 72617469 		.ascii	"ratio\000"
 5329      6F00
 5330              	.LASF4:
 5331 04ba 6C6F6E67 		.ascii	"long int\000"
 5331      20696E74 
 5331      00
 5332              	.LASF108:
 5333 04c3 43616E5F 		.ascii	"Can_addr_Read\000"
 5333      61646472 
 5333      5F526561 
 5333      6400
 5334              	.LASF102:
 5335 04d1 43414E5F 		.ascii	"CAN_GlobalIntEnable\000"
 5335      476C6F62 
 5335      616C496E 
 5335      74456E61 
 5335      626C6500 
 5336              	.LASF64:
 5337 04e5 7365745F 		.ascii	"set_Position\000"
 5337      506F7369 
 5337      74696F6E 
 5337      00
 5338              	.LASF57:
 5339 04f2 43414E5F 		.ascii	"CAN_Send_Model\000"
 5339      53656E64 
 5339      5F4D6F64 
 5339      656C00
 5340              	.LASF48:
 5341 0501 7072696F 		.ascii	"priority\000"
 5341      72697479 
 5341      00
 5342              	.LASF95:
 5343 050a 55415254 		.ascii	"UART_UartPutString\000"
ARM GAS  C:\Users\austc\AppData\Local\Temp\ccPDHU8c.s 			page 114


 5343      5F556172 
 5343      74507574 
 5343      53747269 
 5343      6E6700
 5344              	.LASF90:
 5345 051d 656D6572 		.ascii	"emergency\000"
 5345      67656E63 
 5345      7900
 5346              	.LASF66:
 5347 0527 6D657373 		.ascii	"message_id\000"
 5347      6167655F 
 5347      696400
 5348              	.LASF85:
 5349 0532 43616E5F 		.ascii	"Can_rx_angle\000"
 5349      72785F61 
 5349      6E676C65 
 5349      00
 5350              	.LASF87:
 5351 053f 636F6D6D 		.ascii	"command_failed\000"
 5351      616E645F 
 5351      6661696C 
 5351      656400
 5352              	.LASF106:
 5353 054e 55415254 		.ascii	"UART_Start\000"
 5353      5F537461 
 5353      727400
 5354              	.LASF20:
 5355 0559 73697A65 		.ascii	"sizetype\000"
 5355      74797065 
 5355      00
 5356              	.LASF5:
 5357 0562 6C6F6E67 		.ascii	"long unsigned int\000"
 5357      20756E73 
 5357      69676E65 
 5357      6420696E 
 5357      7400
 5358              	.LASF29:
 5359 0574 43414E5F 		.ascii	"CAN_REG_32\000"
 5359      5245475F 
 5359      333200
 5360              	.LASF101:
 5361 057f 50574D5F 		.ascii	"PWM_Motor_Start\000"
 5361      4D6F746F 
 5361      725F5374 
 5361      61727400 
 5362              	.LASF26:
 5363 058f 62797465 		.ascii	"byte\000"
 5363      00
 5364              	.LASF32:
 5365 0594 72786964 		.ascii	"rxid\000"
 5365      00
 5366              	.LASF1:
 5367 0599 756E7369 		.ascii	"unsigned char\000"
 5367      676E6564 
 5367      20636861 
 5367      7200
 5368              	.LASF96:
ARM GAS  C:\Users\austc\AppData\Local\Temp\ccPDHU8c.s 			page 115


 5369 05a7 50574D5F 		.ascii	"PWM_Motor_Stop\000"
 5369      4D6F746F 
 5369      725F5374 
 5369      6F7000
 5370              	.LASF73:
 5371 05b6 47454152 		.ascii	"GEAR_RATIO\000"
 5371      5F524154 
 5371      494F00
 5372              	.LASF31:
 5373 05c1 7278636D 		.ascii	"rxcmd\000"
 5373      6400
 5374              	.LASF119:
 5375 05c7 61646472 		.ascii	"addr\000"
 5375      00
 5376              	.LASF79:
 5377 05cc 6D617856 		.ascii	"maxV\000"
 5377      00
 5378              	.LASF99:
 5379 05d1 54696D65 		.ascii	"Timer_1_Start\000"
 5379      725F315F 
 5379      53746172 
 5379      7400
 5380              	.LASF0:
 5381 05df 7369676E 		.ascii	"signed char\000"
 5381      65642063 
 5381      68617200 
 5382              	.LASF3:
 5383 05eb 73686F72 		.ascii	"short unsigned int\000"
 5383      7420756E 
 5383      7369676E 
 5383      65642069 
 5383      6E7400
 5384              	.LASF121:
 5385 05fe 6D656D63 		.ascii	"memcpy\000"
 5385      707900
 5386              	.LASF120:
 5387 0605 6D61696E 		.ascii	"main\000"
 5387      00
 5388              	.LASF63:
 5389 060a 63757272 		.ascii	"current\000"
 5389      656E7400 
 5390              	.LASF9:
 5391 0612 75696E74 		.ascii	"uint8\000"
 5391      3800
 5392              	.LASF14:
 5393 0618 646F7562 		.ascii	"double\000"
 5393      6C6500
 5394              	.LASF97:
 5395 061f 43414E5F 		.ascii	"CAN_Start\000"
 5395      53746172 
 5395      7400
 5396              	.LASF52:
 5397 0629 74696D65 		.ascii	"timer\000"
 5397      7200
 5398              	.LASF104:
 5399 062f 6973725F 		.ascii	"isr_Limit_1_StartEx\000"
 5399      4C696D69 
ARM GAS  C:\Users\austc\AppData\Local\Temp\ccPDHU8c.s 			page 116


 5399      745F315F 
 5399      53746172 
 5399      74457800 
 5400              	.LASF89:
 5401 0643 6D61696C 		.ascii	"mailbox\000"
 5401      626F7800 
 5402              		.ident	"GCC: (GNU Tools for ARM Embedded Processors) 5.4.1 20160609 (release) [ARM/embedded-5-bran
