ARM GAS  C:\Users\austc\AppData\Local\Temp\ccPDHU8c.s 			page 1


   1              		.syntax unified
   2              		.cpu cortex-m0
   3              		.fpu softvfp
   4              		.eabi_attribute 20, 1
   5              		.eabi_attribute 21, 1
   6              		.eabi_attribute 23, 3
   7              		.eabi_attribute 24, 1
   8              		.eabi_attribute 25, 1
   9              		.eabi_attribute 26, 1
  10              		.eabi_attribute 30, 1
  11              		.eabi_attribute 34, 0
  12              		.eabi_attribute 18, 4
  13              		.thumb
  14              		.syntax unified
  15              		.file	"main.c"
  16              		.text
  17              	.Ltext0:
  18              		.cfi_sections	.debug_frame
  19              		.section	.text.ISR_CAN,"ax",%progbits
  20              		.align	2
  21              		.global	ISR_CAN
  22              		.code	16
  23              		.thumb_func
  24              		.type	ISR_CAN, %function
  25              	ISR_CAN:
  26              	.LFB47:
  27              		.file 1 "main.c"
   1:main.c        **** /* ========================================
   2:main.c        ****  *
   3:main.c        ****  * Copyright YOUR COMPANY, THE YEAR
   4:main.c        ****  * All Rights Reserved
   5:main.c        ****  * UNPUBLISHED, LICENSED SOFTWARE.
   6:main.c        ****  *
   7:main.c        ****  * CONFIDENTIAL AND PROPRIETARY INFORMATION
   8:main.c        ****  * WHICH IS THE PROPERTY OF your company.
   9:main.c        ****  *
  10:main.c        ****  * ========================================
  11:main.c        **** */
  12:main.c        **** #include <project.h>
  13:main.c        **** #include "cyapicallbacks.h"
  14:main.c        **** #include <stdio.h>
  15:main.c        **** 
  16:main.c        **** //CAN variables
  17:main.c        **** uint32 message_id = 0;
  18:main.c        **** #define MESSAGE_IDE             (0u)    /* Standard message */
  19:main.c        **** #define MESSAGE_IRQ             (0u)    /* No transmit IRQ */
  20:main.c        **** #define MESSAGE_RTR             (0u)    /* No RTR */
  21:main.c        **** uint16 CAN_RX_MAILBOX_1_SHIFT  = 0b1;
  22:main.c        **** uint32 CAN_RX_MAILBOX_0_SHIFT  = 0b10000000;
  23:main.c        **** uint16 CAN_RX_MAILBOX_1 = 0u;
  24:main.c        **** uint16 CAN_RX_MAILBOX_0 = 7u;
  25:main.c        **** int CAN_TIMEOUT;
  26:main.c        **** 
  27:main.c        **** CY_ISR_PROTO(ISR_CAN);
  28:main.c        **** 
  29:main.c        **** //Uart variables
  30:main.c        **** volatile uint8 uart_debug = 2;
ARM GAS  C:\Users\austc\AppData\Local\Temp\ccPDHU8c.s 			page 2


  31:main.c        **** #define TX_DATA_SIZE            (100u)
  32:main.c        **** #define PWM_PERIOD = 255;
  33:main.c        **** 
  34:main.c        **** 
  35:main.c        **** //drive varaible
  36:main.c        **** int GEAR_RATIO;
  37:main.c        **** int pwm_compare;
  38:main.c        **** uint8 invalidate = 0;
  39:main.c        **** 
  40:main.c        **** //PID varaibles
  41:main.c        **** int i = 0;
  42:main.c        **** int lastp = 0;
  43:main.c        **** int kp = 1;
  44:main.c        **** int ki = 1;
  45:main.c        **** int kd = 0;
  46:main.c        **** double ratio;
  47:main.c        **** uint8 complete = 0;
  48:main.c        **** uint8 maxV = 0;
  49:main.c        **** 
  50:main.c        **** //drive mode
  51:main.c        **** uint8 mode = 2;
  52:main.c        **** 
  53:main.c        **** //flags
  54:main.c        **** uint8 send_data = 1;
  55:main.c        **** uint8 model_req = 0;
  56:main.c        **** uint8 disable_limit = 0;
  57:main.c        **** 
  58:main.c        **** //Status and Data Structs
  59:main.c        **** struct Can_data Can_rx_pwm, Can_rx_angle;
  60:main.c        **** struct Error stall;
  61:main.c        **** struct Error command_failed;
  62:main.c        **** struct Error invalid_arg;
  63:main.c        **** 
  64:main.c        **** 
  65:main.c        **** int mailbox = 0x000;
  66:main.c        **** uint8 emergency = 0;
  67:main.c        **** char8 txData[TX_DATA_SIZE];
  68:main.c        **** /* Global variables used to store configuration and data for BASIC CAN mailbox */
  69:main.c        **** CAN_DATA_BYTES_MSG data;
  70:main.c        **** CAN_TX_MSG message;
  71:main.c        **** 
  72:main.c        **** volatile uint8 drive = 0;
  73:main.c        **** 
  74:main.c        **** 
  75:main.c        **** CY_ISR(Period_Reset_Handler) {
  76:main.c        ****     int timer = Timer_1_ReadStatusRegister();
  77:main.c        ****     if(uart_debug) {
  78:main.c        ****         sprintf(txData,"Period interupt triggerd %x\r\n", timer);
  79:main.c        ****         //UART_UartPutString(txData);
  80:main.c        ****     }
  81:main.c        ****     send_data = 1;
  82:main.c        ****     invalidate++;
  83:main.c        ****     if(invalidate >= 20){
  84:main.c        ****         set_PWM(0);   
  85:main.c        ****     }
  86:main.c        **** }
  87:main.c        **** 
ARM GAS  C:\Users\austc\AppData\Local\Temp\ccPDHU8c.s 			page 3


  88:main.c        **** CY_ISR(Pin_Limit_Handler){
  89:main.c        ****     if(uart_debug) {
  90:main.c        ****         sprintf(txData,"Limit interupt triggerd\r\n");
  91:main.c        ****         UART_UartPutString(txData);
  92:main.c        ****     }
  93:main.c        ****     set_PWM(pwm_compare);
  94:main.c        **** }
  95:main.c        **** 
  96:main.c        **** int main(void)
  97:main.c        **** {
  98:main.c        ****     stall.code = 0x01;
  99:main.c        ****     stall.done = 1;
 100:main.c        ****     command_failed.code = 0x02;
 101:main.c        ****     command_failed.done = 1;
 102:main.c        ****     invalid_arg.code = 0x03;
 103:main.c        ****     invalid_arg.done = 1;
 104:main.c        ****     uint8 error;
 105:main.c        ****         /* BASIC CAN mailbox configuration */
 106:main.c        ****     message.dlc = 5u;
 107:main.c        ****     message.ide = MESSAGE_IDE;
 108:main.c        ****     message.irq = MESSAGE_IRQ;
 109:main.c        ****     message.msg = &data;
 110:main.c        ****     message.rtr = MESSAGE_RTR;
 111:main.c        ****     
 112:main.c        ****     Can_rx_pwm.done = 1;
 113:main.c        ****     Can_rx_angle.done = 1;
 114:main.c        **** 
 115:main.c        ****     initialize();
 116:main.c        ****     initialize_can_addr();
 117:main.c        ****     int up = 0;
 118:main.c        ****     pwm_compare = 0;
 119:main.c        ****     set_PWM(0);
 120:main.c        ****     for(;;)
 121:main.c        ****     {
 122:main.c        ****         if(!emergency) {
 123:main.c        **** 
 124:main.c        ****             //Tests if there are still drive packets that still need to be done
 125:main.c        ****             drive = !Can_rx_pwm.done | !Can_rx_angle.done;
 126:main.c        ****             
 127:main.c        ****             //Handles Can drive recieve packets
 128:main.c        ****             if (drive)
 129:main.c        ****             {           
 130:main.c        ****                 //Mode 0 packets
 131:main.c        ****                 if(!Can_rx_pwm.done) {
 132:main.c        ****                     if(mode == 0) {
 133:main.c        ****                         if(uart_debug) {
 134:main.c        ****                             sprintf(txData, "B1: %d, B2: %d done %x\r\n",Can_rx_pwm.b1, Can_rx_pwm.
 135:main.c        ****                             UART_UartPutString(txData);
 136:main.c        ****                         }
 137:main.c        ****                         Can_rx_pwm.done = 1;
 138:main.c        ****                         if(Can_rx_pwm.b2 & 0b01) {
 139:main.c        ****                             set_PWM((int)Can_rx_pwm.b1);
 140:main.c        ****                         }
 141:main.c        ****                         else {
 142:main.c        ****                             set_PWM(-(int)Can_rx_pwm.b1);
 143:main.c        ****                         }
 144:main.c        ****                     } else {
ARM GAS  C:\Users\austc\AppData\Local\Temp\ccPDHU8c.s 			page 4


 145:main.c        ****                         command_failed.done = 0;
 146:main.c        ****                         command_failed.param = 0x02;
 147:main.c        ****                         if(uart_debug) {
 148:main.c        ****                             sprintf(txData, "Mode is not set to 0, mode is %d\r\n",mode);
 149:main.c        ****                             UART_UartPutString(txData);
 150:main.c        ****                         }
 151:main.c        ****                     }
 152:main.c        ****                 }
 153:main.c        ****                 
 154:main.c        ****                 // Mode 1 packets
 155:main.c        ****                 if(!Can_rx_angle.done){
 156:main.c        ****                     if(mode == 1){
 157:main.c        ****                         if(uart_debug) {
 158:main.c        ****                             sprintf(txData, "B1: %d, B3: %d done %x\r\n",Can_rx_angle.b1, Can_rx_an
 159:main.c        ****                             UART_UartPutString(txData);
 160:main.c        ****                         }
 161:main.c        ****                         Can_rx_angle.done = 1;
 162:main.c        ****                         complete = 0;
 163:main.c        ****                         maxV = Can_rx_angle.b3;
 164:main.c        ****                         i = 0;
 165:main.c        ****                         set_Position(Can_rx_angle.b1);
 166:main.c        ****                     }
 167:main.c        ****                     else {
 168:main.c        ****                         command_failed.done = 0;
 169:main.c        ****                         command_failed.param = 0x04;
 170:main.c        ****                         if(uart_debug) {
 171:main.c        ****                             sprintf(txData, "Mode is not set to 1, mode is %d\r\n", mode);
 172:main.c        ****                             UART_UartPutString(txData);
 173:main.c        ****                         }
 174:main.c        ****                     }
 175:main.c        ****                 }
 176:main.c        ****                 
 177:main.c        ****                 if(mode != 1 || mode != 0) {
 178:main.c        ****                     Can_rx_angle.done = 1;
 179:main.c        ****                     Can_rx_pwm.done = 1;
 180:main.c        ****                 }
 181:main.c        ****             }
 182:main.c        ****             
 183:main.c        ****             //Tests if there are any errors
 184:main.c        ****             error = !stall.done | !invalid_arg.done | !command_failed.done; 
 185:main.c        ****             
 186:main.c        ****             //sends errors over CAN
 187:main.c        ****             if(error){
 188:main.c        ****                 if(!stall.done) {
 189:main.c        ****                     CAN_Send_Error(stall.code, stall.param);
 190:main.c        ****                     stall.done = 1;
 191:main.c        ****                 }
 192:main.c        ****                 if(!invalid_arg.done) {
 193:main.c        ****                     CAN_Send_Error(invalid_arg.code, invalid_arg.param);
 194:main.c        ****                     invalid_arg.done = 1;
 195:main.c        ****                 }
 196:main.c        ****                 if(!command_failed.done) {
 197:main.c        ****                     CAN_Send_Error(command_failed.code, command_failed.param);
 198:main.c        ****                     command_failed.done = 1;
 199:main.c        ****                 }
 200:main.c        ****             }
 201:main.c        ****             
ARM GAS  C:\Users\austc\AppData\Local\Temp\ccPDHU8c.s 			page 5


 202:main.c        ****             //Sends periodic data
 203:main.c        ****             if(send_data) {
 204:main.c        ****                 if(uart_debug) {
 205:main.c        ****                     sprintf(txData,"\nSending Data... \r\n");
 206:main.c        ****                    // UART_UartPutString(txData);
 207:main.c        ****                 }
 208:main.c        ****                 CAN_Send_Encoder(); 
 209:main.c        ****                 send_data = 0;
 210:main.c        ****             }
 211:main.c        ****             
 212:main.c        ****             //Sends model
 213:main.c        ****             if(model_req) {
 214:main.c        ****                 CAN_Send_Model();
 215:main.c        ****                 model_req = 0;
 216:main.c        ****             }
 217:main.c        ****             //PWM test code
 218:main.c        ****            /* CyDelay(100);
 219:main.c        ****             if(up){
 220:main.c        ****                 pwm_compare += 10;
 221:main.c        ****             } else {
 222:main.c        ****                 pwm_compare -= 10;   
 223:main.c        ****             }
 224:main.c        ****             if(pwm_compare > 255) {
 225:main.c        ****                 up = 0;   
 226:main.c        ****             } else if (pwm_compare < -255) {
 227:main.c        ****                 up = 1;
 228:main.c        ****             }
 229:main.c        ****             set_PWM(pwm_compare);
 230:main.c        ****             */
 231:main.c        **** 
 232:main.c        ****         }
 233:main.c        ****     }
 234:main.c        **** }
 235:main.c        **** 
 236:main.c        **** void emergency_halt(void) {
 237:main.c        ****     PWM_Motor_Stop();
 238:main.c        ****     emergency = 1;
 239:main.c        ****     // stops all motors;
 240:main.c        ****     // waits for restart CAN signal.
 241:main.c        **** }
 242:main.c        **** 
 243:main.c        **** void initialize(void) {
 244:main.c        ****     int can_start = CAN_Start();
 245:main.c        ****     Status_Reg_Switches_InterruptEnable();
 246:main.c        ****     Timer_1_Start();
 247:main.c        ****    // ADC_SAR_Seq_1_Start();
 248:main.c        ****     //ADC_SAR_Seq_1_StartConvert();
 249:main.c        ****     QuadDec_Start();
 250:main.c        ****     PWM_Motor_Start();  
 251:main.c        ****     
 252:main.c        ****     CAN_GlobalIntEnable();
 253:main.c        ****     CyIntSetVector(CAN_ISR_NUMBER, ISR_CAN);
 254:main.c        ****     CyGlobalIntEnable; /* Enable global interrupts. */
 255:main.c        ****     isr_Limit_1_StartEx(Pin_Limit_Handler);
 256:main.c        ****     isr_period_StartEx(Period_Reset_Handler);
 257:main.c        ****     
 258:main.c        ****     if(uart_debug) {
ARM GAS  C:\Users\austc\AppData\Local\Temp\ccPDHU8c.s 			page 6


 259:main.c        ****         UART_Start();
 260:main.c        ****         sprintf(txData, "CAN_Start():  %u\r\n",can_start);
 261:main.c        ****         UART_UartPutString(txData); 
 262:main.c        ****     }
 263:main.c        **** }
 264:main.c        **** 
 265:main.c        **** //Recieve:
 266:main.c        **** //1 00010 10000 0x450 BBB to base rotation
 267:main.c        **** //1 00010 10001 0x451 
 268:main.c        **** //1 00010 10010 0x452
 269:main.c        **** //1 00010 10011 0x453
 270:main.c        **** //1 00010 10100 0x454
 271:main.c        **** //1 00010 10101 0x455
 272:main.c        **** //1 00010 10110 0x456
 273:main.c        **** //Send:
 274:main.c        **** //1 10000 00010 0x602 base rotation to BBB 
 275:main.c        **** //1 10001 00010 0x622 shoulder to BBB
 276:main.c        **** //1 10010 00010 0x642 elbow ""
 277:main.c        **** //1 10011 00010 0x662 forearm rotation ""
 278:main.c        **** //1 10100 00010 0x682 diff wrist 1 ""
 279:main.c        **** //1 10101 00010 0x6A2 diff wrist 2 ""
 280:main.c        **** //1 10110 00010 0x6C2 hand ""
 281:main.c        **** void initialize_can_addr(void) {
 282:main.c        ****     uint8 setting = Can_addr_Read();
 283:main.c        ****     uint8 shift = 0;
 284:main.c        ****     switch(Can_addr_Read()) {
 285:main.c        ****         case 0b000: //Base rotation
 286:main.c        ****             message_id = 0b10000;
 287:main.c        ****             shift = 0;
 288:main.c        ****             break;
 289:main.c        ****         case 0b001: // shoulder
 290:main.c        ****             message_id = 0b10001;
 291:main.c        ****             shift = 1;
 292:main.c        ****             break;
 293:main.c        ****         case 0b010: // elbow
 294:main.c        ****             message_id = 0b10010;
 295:main.c        ****             shift = 2;
 296:main.c        ****             ratio = 2.8;
 297:main.c        ****             break;
 298:main.c        ****         case 0b011: // forearm rotation
 299:main.c        ****             message_id = 0b10011;
 300:main.c        ****             disable_limit = 1;
 301:main.c        ****             shift = 3;
 302:main.c        ****             break;
 303:main.c        ****         case 0b100: // diff wrist 1
 304:main.c        ****             message_id = 0b10100;
 305:main.c        ****             disable_limit = 1;
 306:main.c        ****             shift = 4;
 307:main.c        ****             break;
 308:main.c        ****         case 0b101: // diff wrist 2
 309:main.c        ****             message_id = 0b10101;
 310:main.c        ****             disable_limit = 1;
 311:main.c        ****             shift = 5;
 312:main.c        ****             break;
 313:main.c        ****         case 0b110: // hand
 314:main.c        ****             message_id = 0b10110;
 315:main.c        ****             shift = 6;
ARM GAS  C:\Users\austc\AppData\Local\Temp\ccPDHU8c.s 			page 7


 316:main.c        ****             break;
 317:main.c        ****     }
 318:main.c        ****     
 319:main.c        ****     CAN_RX_MAILBOX_0_SHIFT = CAN_RX_MAILBOX_0_SHIFT << shift;
 320:main.c        ****     CAN_RX_MAILBOX_1_SHIFT = CAN_RX_MAILBOX_1_SHIFT << shift;
 321:main.c        ****     CAN_RX_MAILBOX_0 += shift;
 322:main.c        ****     CAN_RX_MAILBOX_1 += shift;
 323:main.c        ****     set_CAN_ID(0b1);
 324:main.c        ****     
 325:main.c        ****     if(uart_debug) {
 326:main.c        ****         sprintf(txData, "CAN dip setting:  %x Message ID: %ld\r\n",setting, message_id);
 327:main.c        ****         UART_UartPutString(txData); 
 328:main.c        ****         sprintf(txData, "Can shift: %d   P0Mailbox: %d P1Mailbox %d\r\n",shift, CAN_RX_MAILBOX_0, C
 329:main.c        ****         UART_UartPutString(txData); 
 330:main.c        ****     }
 331:main.c        **** }
 332:main.c        **** 
 333:main.c        **** void set_CAN_ID(uint32 priority) {
 334:main.c        ****     message.id = (priority << 10) | (message_id << 5) | 0b00010;
 335:main.c        **** }
 336:main.c        **** 
 337:main.c        ****     // takes between -255 and 255
 338:main.c        **** void set_PWM(int compare) {
 339:main.c        ****     invalidate = 0;
 340:main.c        ****     if (compare < -255 || compare > 255) { return; }
 341:main.c        ****     uint8 status = Status_Reg_Switches_Read();
 342:main.c        ****     if (compare < 0 ) {
 343:main.c        ****         if(!(status & 0b01) || disable_limit){
 344:main.c        ****             Pin_Direction_Write(0);
 345:main.c        ****             PWM_Motor_WriteCompare(-compare);
 346:main.c        ****         }
 347:main.c        ****     } else if (compare > 0 ){
 348:main.c        ****         if(!(status & 0b10) || disable_limit) {
 349:main.c        ****             Pin_Direction_Write(1);
 350:main.c        ****             PWM_Motor_WriteCompare(compare);
 351:main.c        ****         }
 352:main.c        ****     } else {
 353:main.c        ****         PWM_Motor_WriteCompare(0);   
 354:main.c        ****     }
 355:main.c        **** }
 356:main.c        **** 
 357:main.c        **** void CAN_Send_Encoder(void){
 358:main.c        ****     int16 ticks = QuadDec_GetCounter();
 359:main.c        ****     data.byte[0u] = 0x14u;
 360:main.c        ****     data.byte[1u] = LO8(ticks);
 361:main.c        ****     data.byte[2u] = HI8(ticks);
 362:main.c        ****     data.byte[3u] = 0;
 363:main.c        ****     data.byte[4u] = 0;
 364:main.c        ****     CAN_SendMsg(&message);
 365:main.c        ****     if(uart_debug == 2) {
 366:main.c        ****         sprintf(txData, "CAN_Send_Encoder: byte[0u] %x byte[1u] %x byte[2u] %x\n QuadDec Count %d\r
 367:main.c        ****             data.byte[0u],data.byte[1u],data.byte[2u],
 368:main.c        ****             QuadDec_GetCounter());
 369:main.c        ****         UART_UartPutString(txData);    
 370:main.c        ****     }
 371:main.c        **** }
 372:main.c        **** 
ARM GAS  C:\Users\austc\AppData\Local\Temp\ccPDHU8c.s 			page 8


 373:main.c        **** void CAN_Send_Telemetry(void) {
 374:main.c        ****     data.byte[0u] = 0x18u;
 375:main.c        ****     data.byte[1u] = 0;
 376:main.c        ****     data.byte[2u] = 0;
 377:main.c        ****     data.byte[3u] = 0;
 378:main.c        ****     data.byte[4u] = 0;
 379:main.c        ****     CAN_SendMsg(&message);
 380:main.c        ****     if(uart_debug == 2) {
 381:main.c        ****         sprintf(txData, "Telemerty: byte[0u] %x byte[1u] %x\r\n",(uint8)data.byte[0u],(uint8)data.b
 382:main.c        ****         UART_UartPutString(txData); 
 383:main.c        ****     }
 384:main.c        **** }
 385:main.c        **** 
 386:main.c        **** void CAN_Send_Model(void) {
 387:main.c        ****     data.byte[0u] = 0x12u;
 388:main.c        ****     data.byte[1u] = 0x00u;
 389:main.c        ****     data.byte[2u] = 0;
 390:main.c        ****     data.byte[3u] = 0;
 391:main.c        ****     data.byte[4u] = 0;
 392:main.c        ****     CAN_SendMsg(&message);
 393:main.c        ****     if(uart_debug == 2) {
 394:main.c        ****         sprintf(txData, "Model: byte[0u] %x byte[1u] %x\r\n",data.byte[0u],data.byte[1u]);
 395:main.c        ****         UART_UartPutString(txData); 
 396:main.c        ****     }
 397:main.c        **** }
 398:main.c        **** 
 399:main.c        **** void CAN_Send_Error(uint8 code, uint8 param) {
 400:main.c        ****     data.byte[0u] = 0xffu;
 401:main.c        ****     data.byte[1u] = code;
 402:main.c        ****     data.byte[2u] = param;
 403:main.c        ****     data.byte[3u] = 0;
 404:main.c        ****     data.byte[4u] = 0;
 405:main.c        ****     CAN_SendMsg(&message);
 406:main.c        ****     if(uart_debug == 2) {
 407:main.c        ****         sprintf(txData, "Error: byte[0u] %x byte[1u] %x byte[2u] %x\r\n",data.byte[0u],data.byte[1u
 408:main.c        ****         UART_UartPutString(txData); 
 409:main.c        ****     }
 410:main.c        **** }
 411:main.c        **** 
 412:main.c        **** CY_ISR(ISR_CAN)
 413:main.c        **** {
  28              		.loc 1 413 0
  29              		.cfi_startproc
  30              		@ args = 0, pretend = 0, frame = 0
  31              		@ frame_needed = 0, uses_anonymous_args = 0
  32 0000 10B5     		push	{r4, lr}
  33              		.cfi_def_cfa_offset 8
  34              		.cfi_offset 4, -8
  35              		.cfi_offset 14, -4
 414:main.c        ****     /* Clear Receive Message flag */
 415:main.c        ****     CAN_INT_SR_REG = CAN_RX_MESSAGE_MASK;
  36              		.loc 1 415 0
  37 0002 8022     		movs	r2, #128
  38 0004 5201     		lsls	r2, r2, #5
  39 0006 694B     		ldr	r3, .L19
  40 0008 1A60     		str	r2, [r3]
 416:main.c        ****     if(uart_debug) {
ARM GAS  C:\Users\austc\AppData\Local\Temp\ccPDHU8c.s 			page 9


  41              		.loc 1 416 0
  42 000a 694B     		ldr	r3, .L19+4
  43 000c 1B78     		ldrb	r3, [r3]
  44 000e 002B     		cmp	r3, #0
  45 0010 02D0     		beq	.L2
 417:main.c        ****         UART_UartPutString("\n Can rx triggered\n");   
  46              		.loc 1 417 0
  47 0012 6848     		ldr	r0, .L19+8
  48 0014 FFF7FEFF 		bl	UART_UartPutString
  49              	.LVL0:
  50              	.L2:
 418:main.c        ****     }
 419:main.c        ****     /* Switch status message received */
 420:main.c        ****     if ((CAN_BUF_SR_REG & CAN_RX_MAILBOX_0_SHIFT) != 0u)
  51              		.loc 1 420 0
  52 0018 674B     		ldr	r3, .L19+12
  53 001a 1B68     		ldr	r3, [r3]
  54 001c 644A     		ldr	r2, .L19+4
  55 001e 5268     		ldr	r2, [r2, #4]
  56 0020 1A42     		tst	r2, r3
  57 0022 5DD0     		beq	.L3
 421:main.c        ****     {   
 422:main.c        ****         if(uart_debug){
  58              		.loc 1 422 0
  59 0024 624B     		ldr	r3, .L19+4
  60 0026 1B78     		ldrb	r3, [r3]
  61 0028 002B     		cmp	r3, #0
  62 002a 02D0     		beq	.L4
 423:main.c        ****             UART_UartPutString("P0 recieved\n");    
  63              		.loc 1 423 0
  64 002c 6348     		ldr	r0, .L19+16
  65 002e FFF7FEFF 		bl	UART_UartPutString
  66              	.LVL1:
  67              	.L4:
 424:main.c        ****         }
 425:main.c        ****         set_data(CAN_RX_MAILBOX_0);
  68              		.loc 1 425 0
  69 0032 5F4B     		ldr	r3, .L19+4
  70 0034 1B89     		ldrh	r3, [r3, #8]
  71              	.LVL2:
  72              	.LBB6:
  73              	.LBB7:
 426:main.c        **** 
 427:main.c        ****         /* Acknowledges receipt of new message */
 428:main.c        ****         CAN_RX_ACK_MESSAGE(CAN_RX_MAILBOX_0);
 429:main.c        ****     }
 430:main.c        **** 
 431:main.c        ****     if ((CAN_BUF_SR_REG & CAN_RX_MAILBOX_1_SHIFT) != 0u)
 432:main.c        ****     {
 433:main.c        ****         if(uart_debug){
 434:main.c        ****             UART_UartPutString("P1 recieved\n\n");    
 435:main.c        ****         }
 436:main.c        ****         set_data(CAN_RX_MAILBOX_1);
 437:main.c        ****         
 438:main.c        ****         /* Acknowledges receipt of new message */
 439:main.c        ****         CAN_RX_ACK_MESSAGE(CAN_RX_MAILBOX_1);
 440:main.c        ****     }
ARM GAS  C:\Users\austc\AppData\Local\Temp\ccPDHU8c.s 			page 10


 441:main.c        ****     
 442:main.c        **** }
 443:main.c        **** 
 444:main.c        **** inline void set_data(uint16 addr){
 445:main.c        ****         //set mode
 446:main.c        ****         if(CAN_RX_DATA_BYTE1(addr) == 0x00) {
  74              		.loc 1 446 0
  75 0036 5B01     		lsls	r3, r3, #5
  76              	.LVL3:
  77 0038 614A     		ldr	r2, .L19+20
  78 003a 9446     		mov	ip, r2
  79 003c 6344     		add	r3, r3, ip
  80 003e 9A68     		ldr	r2, [r3, #8]
  81 0040 120E     		lsrs	r2, r2, #24
  82 0042 13D1     		bne	.L5
 447:main.c        ****             if(CAN_RX_DATA_BYTE2(addr) == 1 || CAN_RX_DATA_BYTE2(addr) == 0) {
  83              		.loc 1 447 0
  84 0044 9A68     		ldr	r2, [r3, #8]
  85 0046 120C     		lsrs	r2, r2, #16
  86 0048 FF21     		movs	r1, #255
  87 004a 0A40     		ands	r2, r1
  88 004c 012A     		cmp	r2, #1
  89 004e 03D0     		beq	.L6
  90 0050 9A68     		ldr	r2, [r3, #8]
  91 0052 120C     		lsrs	r2, r2, #16
  92 0054 1142     		tst	r1, r2
  93 0056 04D1     		bne	.L7
  94              	.L6:
 448:main.c        ****                 mode = CAN_RX_DATA_BYTE2(addr);
  95              		.loc 1 448 0
  96 0058 9B68     		ldr	r3, [r3, #8]
  97 005a 1B0C     		lsrs	r3, r3, #16
  98 005c 544A     		ldr	r2, .L19+4
  99 005e 9372     		strb	r3, [r2, #10]
 100 0060 34E0     		b	.L8
 101              	.L7:
 449:main.c        ****             }
 450:main.c        ****             else {
 451:main.c        ****                 invalid_arg.param = 0x00;
 102              		.loc 1 451 0
 103 0062 584B     		ldr	r3, .L19+24
 104 0064 0022     		movs	r2, #0
 105 0066 5A70     		strb	r2, [r3, #1]
 452:main.c        ****                 invalid_arg.done = 0;
 106              		.loc 1 452 0
 107 0068 9A70     		strb	r2, [r3, #2]
 108 006a 2FE0     		b	.L8
 109              	.L5:
 453:main.c        ****             }
 454:main.c        ****         } 
 455:main.c        ****         //pwm
 456:main.c        ****         else if(CAN_RX_DATA_BYTE1(addr) == 0x02) {
 110              		.loc 1 456 0
 111 006c 9A68     		ldr	r2, [r3, #8]
 112 006e 120E     		lsrs	r2, r2, #24
 113 0070 022A     		cmp	r2, #2
 114 0072 0ED1     		bne	.L9
ARM GAS  C:\Users\austc\AppData\Local\Temp\ccPDHU8c.s 			page 11


 457:main.c        ****             Can_rx_pwm.b1 = CAN_RX_DATA_BYTE2(addr);
 115              		.loc 1 457 0
 116 0074 9968     		ldr	r1, [r3, #8]
 117 0076 090C     		lsrs	r1, r1, #16
 118 0078 534A     		ldr	r2, .L19+28
 119 007a 5170     		strb	r1, [r2, #1]
 458:main.c        ****             Can_rx_pwm.b2 = CAN_RX_DATA_BYTE3(addr);
 120              		.loc 1 458 0
 121 007c 9968     		ldr	r1, [r3, #8]
 122 007e 090A     		lsrs	r1, r1, #8
 123 0080 9170     		strb	r1, [r2, #2]
 459:main.c        ****             Can_rx_pwm.b3 = CAN_RX_DATA_BYTE4(addr);
 124              		.loc 1 459 0
 125 0082 9968     		ldr	r1, [r3, #8]
 126 0084 D170     		strb	r1, [r2, #3]
 460:main.c        ****             Can_rx_pwm.b4 = CAN_RX_DATA_BYTE5(addr);
 127              		.loc 1 460 0
 128 0086 DB68     		ldr	r3, [r3, #12]
 129 0088 1B0E     		lsrs	r3, r3, #24
 130 008a 1371     		strb	r3, [r2, #4]
 461:main.c        ****             Can_rx_pwm.done = 0;
 131              		.loc 1 461 0
 132 008c 0023     		movs	r3, #0
 133 008e 5371     		strb	r3, [r2, #5]
 134 0090 1CE0     		b	.L8
 135              	.L9:
 462:main.c        ****         } 
 463:main.c        ****         //angle
 464:main.c        ****         else if(CAN_RX_DATA_BYTE1(addr) == 0x04) {
 136              		.loc 1 464 0
 137 0092 9A68     		ldr	r2, [r3, #8]
 138 0094 120E     		lsrs	r2, r2, #24
 139 0096 042A     		cmp	r2, #4
 140 0098 11D1     		bne	.L10
 465:main.c        ****             Can_rx_angle.b1 = CAN_RX_DATA_BYTE2(addr);
 141              		.loc 1 465 0
 142 009a 9968     		ldr	r1, [r3, #8]
 143 009c 090C     		lsrs	r1, r1, #16
 144 009e 4B4A     		ldr	r2, .L19+32
 145 00a0 5170     		strb	r1, [r2, #1]
 466:main.c        ****             Can_rx_angle.b2 = CAN_RX_DATA_BYTE3(addr);
 146              		.loc 1 466 0
 147 00a2 9968     		ldr	r1, [r3, #8]
 148 00a4 090A     		lsrs	r1, r1, #8
 149 00a6 9170     		strb	r1, [r2, #2]
 467:main.c        ****             Can_rx_angle.b3 = CAN_RX_DATA_BYTE4(addr);
 150              		.loc 1 467 0
 151 00a8 9968     		ldr	r1, [r3, #8]
 152 00aa D170     		strb	r1, [r2, #3]
 468:main.c        ****             Can_rx_angle.b4 = CAN_RX_DATA_BYTE5(addr);
 153              		.loc 1 468 0
 154 00ac DB68     		ldr	r3, [r3, #12]
 155 00ae 1B0E     		lsrs	r3, r3, #24
 156 00b0 1371     		strb	r3, [r2, #4]
 469:main.c        ****             Can_rx_angle.done = 0;
 157              		.loc 1 469 0
 158 00b2 0023     		movs	r3, #0
ARM GAS  C:\Users\austc\AppData\Local\Temp\ccPDHU8c.s 			page 12


 159 00b4 5371     		strb	r3, [r2, #5]
 470:main.c        ****             complete = 1;
 160              		.loc 1 470 0
 161 00b6 0122     		movs	r2, #1
 162 00b8 454B     		ldr	r3, .L19+36
 163 00ba 1A70     		strb	r2, [r3]
 164 00bc 06E0     		b	.L8
 165              	.L10:
 471:main.c        ****         } 
 472:main.c        ****         //model requst
 473:main.c        ****         else if (CAN_RX_DATA_BYTE1(addr) == 0x10){
 166              		.loc 1 473 0
 167 00be 9B68     		ldr	r3, [r3, #8]
 168 00c0 1B0E     		lsrs	r3, r3, #24
 169 00c2 102B     		cmp	r3, #16
 170 00c4 02D1     		bne	.L8
 474:main.c        ****             model_req = 1;
 171              		.loc 1 474 0
 172 00c6 0122     		movs	r2, #1
 173 00c8 414B     		ldr	r3, .L19+36
 174 00ca 5A70     		strb	r2, [r3, #1]
 175              	.L8:
 176              	.LVL4:
 177              	.LBE7:
 178              	.LBE6:
 428:main.c        ****     }
 179              		.loc 1 428 0
 180 00cc 384B     		ldr	r3, .L19+4
 181 00ce 1B89     		ldrh	r3, [r3, #8]
 182 00d0 5B01     		lsls	r3, r3, #5
 183 00d2 3B4A     		ldr	r2, .L19+20
 184 00d4 9446     		mov	ip, r2
 185 00d6 6344     		add	r3, r3, ip
 186 00d8 1968     		ldr	r1, [r3]
 187 00da 0122     		movs	r2, #1
 188 00dc 0A43     		orrs	r2, r1
 189 00de 1A60     		str	r2, [r3]
 190              	.L3:
 431:main.c        ****     {
 191              		.loc 1 431 0
 192 00e0 354B     		ldr	r3, .L19+12
 193 00e2 1A68     		ldr	r2, [r3]
 194 00e4 324B     		ldr	r3, .L19+4
 195 00e6 9B89     		ldrh	r3, [r3, #12]
 196 00e8 1A42     		tst	r2, r3
 197 00ea 5DD0     		beq	.L1
 433:main.c        ****             UART_UartPutString("P1 recieved\n\n");    
 198              		.loc 1 433 0
 199 00ec 304B     		ldr	r3, .L19+4
 200 00ee 1B78     		ldrb	r3, [r3]
 201 00f0 002B     		cmp	r3, #0
 202 00f2 02D0     		beq	.L12
 434:main.c        ****         }
 203              		.loc 1 434 0
 204 00f4 3748     		ldr	r0, .L19+40
 205 00f6 FFF7FEFF 		bl	UART_UartPutString
 206              	.LVL5:
ARM GAS  C:\Users\austc\AppData\Local\Temp\ccPDHU8c.s 			page 13


 207              	.L12:
 436:main.c        ****         
 208              		.loc 1 436 0
 209 00fa 354B     		ldr	r3, .L19+36
 210 00fc 5B88     		ldrh	r3, [r3, #2]
 211              	.LVL6:
 212              	.LBB8:
 213              	.LBB9:
 446:main.c        ****             if(CAN_RX_DATA_BYTE2(addr) == 1 || CAN_RX_DATA_BYTE2(addr) == 0) {
 214              		.loc 1 446 0
 215 00fe 5B01     		lsls	r3, r3, #5
 216              	.LVL7:
 217 0100 2F4A     		ldr	r2, .L19+20
 218 0102 9446     		mov	ip, r2
 219 0104 6344     		add	r3, r3, ip
 220 0106 9A68     		ldr	r2, [r3, #8]
 221 0108 120E     		lsrs	r2, r2, #24
 222 010a 13D1     		bne	.L13
 447:main.c        ****                 mode = CAN_RX_DATA_BYTE2(addr);
 223              		.loc 1 447 0
 224 010c 9A68     		ldr	r2, [r3, #8]
 225 010e 120C     		lsrs	r2, r2, #16
 226 0110 FF21     		movs	r1, #255
 227 0112 0A40     		ands	r2, r1
 228 0114 012A     		cmp	r2, #1
 229 0116 03D0     		beq	.L14
 230 0118 9A68     		ldr	r2, [r3, #8]
 231 011a 120C     		lsrs	r2, r2, #16
 232 011c 1142     		tst	r1, r2
 233 011e 04D1     		bne	.L15
 234              	.L14:
 448:main.c        ****             }
 235              		.loc 1 448 0
 236 0120 9B68     		ldr	r3, [r3, #8]
 237 0122 1B0C     		lsrs	r3, r3, #16
 238 0124 224A     		ldr	r2, .L19+4
 239 0126 9372     		strb	r3, [r2, #10]
 240 0128 34E0     		b	.L16
 241              	.L15:
 451:main.c        ****                 invalid_arg.done = 0;
 242              		.loc 1 451 0
 243 012a 264B     		ldr	r3, .L19+24
 244 012c 0022     		movs	r2, #0
 245 012e 5A70     		strb	r2, [r3, #1]
 452:main.c        ****             }
 246              		.loc 1 452 0
 247 0130 9A70     		strb	r2, [r3, #2]
 248 0132 2FE0     		b	.L16
 249              	.L13:
 456:main.c        ****             Can_rx_pwm.b1 = CAN_RX_DATA_BYTE2(addr);
 250              		.loc 1 456 0
 251 0134 9A68     		ldr	r2, [r3, #8]
 252 0136 120E     		lsrs	r2, r2, #24
 253 0138 022A     		cmp	r2, #2
 254 013a 0ED1     		bne	.L17
 457:main.c        ****             Can_rx_pwm.b2 = CAN_RX_DATA_BYTE3(addr);
 255              		.loc 1 457 0
ARM GAS  C:\Users\austc\AppData\Local\Temp\ccPDHU8c.s 			page 14


 256 013c 9968     		ldr	r1, [r3, #8]
 257 013e 090C     		lsrs	r1, r1, #16
 258 0140 214A     		ldr	r2, .L19+28
 259 0142 5170     		strb	r1, [r2, #1]
 458:main.c        ****             Can_rx_pwm.b3 = CAN_RX_DATA_BYTE4(addr);
 260              		.loc 1 458 0
 261 0144 9968     		ldr	r1, [r3, #8]
 262 0146 090A     		lsrs	r1, r1, #8
 263 0148 9170     		strb	r1, [r2, #2]
 459:main.c        ****             Can_rx_pwm.b4 = CAN_RX_DATA_BYTE5(addr);
 264              		.loc 1 459 0
 265 014a 9968     		ldr	r1, [r3, #8]
 266 014c D170     		strb	r1, [r2, #3]
 460:main.c        ****             Can_rx_pwm.done = 0;
 267              		.loc 1 460 0
 268 014e DB68     		ldr	r3, [r3, #12]
 269 0150 1B0E     		lsrs	r3, r3, #24
 270 0152 1371     		strb	r3, [r2, #4]
 461:main.c        ****         } 
 271              		.loc 1 461 0
 272 0154 0023     		movs	r3, #0
 273 0156 5371     		strb	r3, [r2, #5]
 274 0158 1CE0     		b	.L16
 275              	.L17:
 464:main.c        ****             Can_rx_angle.b1 = CAN_RX_DATA_BYTE2(addr);
 276              		.loc 1 464 0
 277 015a 9A68     		ldr	r2, [r3, #8]
 278 015c 120E     		lsrs	r2, r2, #24
 279 015e 042A     		cmp	r2, #4
 280 0160 11D1     		bne	.L18
 465:main.c        ****             Can_rx_angle.b2 = CAN_RX_DATA_BYTE3(addr);
 281              		.loc 1 465 0
 282 0162 9968     		ldr	r1, [r3, #8]
 283 0164 090C     		lsrs	r1, r1, #16
 284 0166 194A     		ldr	r2, .L19+32
 285 0168 5170     		strb	r1, [r2, #1]
 466:main.c        ****             Can_rx_angle.b3 = CAN_RX_DATA_BYTE4(addr);
 286              		.loc 1 466 0
 287 016a 9968     		ldr	r1, [r3, #8]
 288 016c 090A     		lsrs	r1, r1, #8
 289 016e 9170     		strb	r1, [r2, #2]
 467:main.c        ****             Can_rx_angle.b4 = CAN_RX_DATA_BYTE5(addr);
 290              		.loc 1 467 0
 291 0170 9968     		ldr	r1, [r3, #8]
 292 0172 D170     		strb	r1, [r2, #3]
 468:main.c        ****             Can_rx_angle.done = 0;
 293              		.loc 1 468 0
 294 0174 DB68     		ldr	r3, [r3, #12]
 295 0176 1B0E     		lsrs	r3, r3, #24
 296 0178 1371     		strb	r3, [r2, #4]
 469:main.c        ****             complete = 1;
 297              		.loc 1 469 0
 298 017a 0023     		movs	r3, #0
 299 017c 5371     		strb	r3, [r2, #5]
 470:main.c        ****         } 
 300              		.loc 1 470 0
 301 017e 0122     		movs	r2, #1
ARM GAS  C:\Users\austc\AppData\Local\Temp\ccPDHU8c.s 			page 15


 302 0180 134B     		ldr	r3, .L19+36
 303 0182 1A70     		strb	r2, [r3]
 304 0184 06E0     		b	.L16
 305              	.L18:
 473:main.c        ****             model_req = 1;
 306              		.loc 1 473 0
 307 0186 9B68     		ldr	r3, [r3, #8]
 308 0188 1B0E     		lsrs	r3, r3, #24
 309 018a 102B     		cmp	r3, #16
 310 018c 02D1     		bne	.L16
 311              		.loc 1 474 0
 312 018e 0122     		movs	r2, #1
 313 0190 0F4B     		ldr	r3, .L19+36
 314 0192 5A70     		strb	r2, [r3, #1]
 315              	.L16:
 316              	.LVL8:
 317              	.LBE9:
 318              	.LBE8:
 439:main.c        ****     }
 319              		.loc 1 439 0
 320 0194 0E4B     		ldr	r3, .L19+36
 321 0196 5B88     		ldrh	r3, [r3, #2]
 322 0198 5B01     		lsls	r3, r3, #5
 323 019a 094A     		ldr	r2, .L19+20
 324 019c 9446     		mov	ip, r2
 325 019e 6344     		add	r3, r3, ip
 326 01a0 1968     		ldr	r1, [r3]
 327 01a2 0122     		movs	r2, #1
 328 01a4 0A43     		orrs	r2, r1
 329 01a6 1A60     		str	r2, [r3]
 330              	.L1:
 442:main.c        **** 
 331              		.loc 1 442 0
 332              		@ sp needed
 333 01a8 10BD     		pop	{r4, pc}
 334              	.L20:
 335 01aa C046     		.align	2
 336              	.L19:
 337 01ac 00002F40 		.word	1076822016
 338 01b0 00000000 		.word	.LANCHOR0
 339 01b4 00000000 		.word	.LC1
 340 01b8 08002F40 		.word	1076822024
 341 01bc 14000000 		.word	.LC3
 342 01c0 A0002F40 		.word	1076822176
 343 01c4 00000000 		.word	invalid_arg
 344 01c8 00000000 		.word	Can_rx_pwm
 345 01cc 00000000 		.word	Can_rx_angle
 346 01d0 00000000 		.word	.LANCHOR1
 347 01d4 24000000 		.word	.LC9
 348              		.cfi_endproc
 349              	.LFE47:
 350              		.size	ISR_CAN, .-ISR_CAN
 351              		.section	.text.emergency_halt,"ax",%progbits
 352              		.align	2
 353              		.global	emergency_halt
 354              		.code	16
 355              		.thumb_func
ARM GAS  C:\Users\austc\AppData\Local\Temp\ccPDHU8c.s 			page 16


 356              		.type	emergency_halt, %function
 357              	emergency_halt:
 358              	.LFB38:
 236:main.c        ****     PWM_Motor_Stop();
 359              		.loc 1 236 0
 360              		.cfi_startproc
 361              		@ args = 0, pretend = 0, frame = 0
 362              		@ frame_needed = 0, uses_anonymous_args = 0
 363 0000 10B5     		push	{r4, lr}
 364              		.cfi_def_cfa_offset 8
 365              		.cfi_offset 4, -8
 366              		.cfi_offset 14, -4
 237:main.c        ****     emergency = 1;
 367              		.loc 1 237 0
 368 0002 FFF7FEFF 		bl	PWM_Motor_Stop
 369              	.LVL9:
 238:main.c        ****     // stops all motors;
 370              		.loc 1 238 0
 371 0006 0122     		movs	r2, #1
 372 0008 014B     		ldr	r3, .L22
 373 000a 1A71     		strb	r2, [r3, #4]
 241:main.c        **** 
 374              		.loc 1 241 0
 375              		@ sp needed
 376 000c 10BD     		pop	{r4, pc}
 377              	.L23:
 378 000e C046     		.align	2
 379              	.L22:
 380 0010 00000000 		.word	.LANCHOR1
 381              		.cfi_endproc
 382              	.LFE38:
 383              		.size	emergency_halt, .-emergency_halt
 384              		.section	.text.initialize,"ax",%progbits
 385              		.align	2
 386              		.global	initialize
 387              		.code	16
 388              		.thumb_func
 389              		.type	initialize, %function
 390              	initialize:
 391              	.LFB39:
 243:main.c        ****     int can_start = CAN_Start();
 392              		.loc 1 243 0
 393              		.cfi_startproc
 394              		@ args = 0, pretend = 0, frame = 0
 395              		@ frame_needed = 0, uses_anonymous_args = 0
 396 0000 70B5     		push	{r4, r5, r6, lr}
 397              		.cfi_def_cfa_offset 16
 398              		.cfi_offset 4, -16
 399              		.cfi_offset 5, -12
 400              		.cfi_offset 6, -8
 401              		.cfi_offset 14, -4
 244:main.c        ****     Status_Reg_Switches_InterruptEnable();
 402              		.loc 1 244 0
 403 0002 FFF7FEFF 		bl	CAN_Start
 404              	.LVL10:
 405 0006 0400     		movs	r4, r0
 406              	.LVL11:
ARM GAS  C:\Users\austc\AppData\Local\Temp\ccPDHU8c.s 			page 17


 245:main.c        ****     Timer_1_Start();
 407              		.loc 1 245 0
 408 0008 FFF7FEFF 		bl	Status_Reg_Switches_InterruptEnable
 409              	.LVL12:
 246:main.c        ****    // ADC_SAR_Seq_1_Start();
 410              		.loc 1 246 0
 411 000c FFF7FEFF 		bl	Timer_1_Start
 412              	.LVL13:
 249:main.c        ****     PWM_Motor_Start();  
 413              		.loc 1 249 0
 414 0010 FFF7FEFF 		bl	QuadDec_Start
 415              	.LVL14:
 250:main.c        ****     
 416              		.loc 1 250 0
 417 0014 FFF7FEFF 		bl	PWM_Motor_Start
 418              	.LVL15:
 252:main.c        ****     CyIntSetVector(CAN_ISR_NUMBER, ISR_CAN);
 419              		.loc 1 252 0
 420 0018 FFF7FEFF 		bl	CAN_GlobalIntEnable
 421              	.LVL16:
 253:main.c        ****     CyGlobalIntEnable; /* Enable global interrupts. */
 422              		.loc 1 253 0
 423 001c 0D49     		ldr	r1, .L26
 424 001e 1D20     		movs	r0, #29
 425 0020 FFF7FEFF 		bl	CyIntSetVector
 426              	.LVL17:
 254:main.c        ****     isr_Limit_1_StartEx(Pin_Limit_Handler);
 427              		.loc 1 254 0
 428              		.syntax divided
 429              	@ 254 "main.c" 1
 430 0024 62B6     		CPSIE   i
 431              	@ 0 "" 2
 255:main.c        ****     isr_period_StartEx(Period_Reset_Handler);
 432              		.loc 1 255 0
 433              		.thumb
 434              		.syntax unified
 435 0026 0C48     		ldr	r0, .L26+4
 436 0028 FFF7FEFF 		bl	isr_Limit_1_StartEx
 437              	.LVL18:
 256:main.c        ****     
 438              		.loc 1 256 0
 439 002c 0B48     		ldr	r0, .L26+8
 440 002e FFF7FEFF 		bl	isr_period_StartEx
 441              	.LVL19:
 258:main.c        ****         UART_Start();
 442              		.loc 1 258 0
 443 0032 0B4B     		ldr	r3, .L26+12
 444 0034 1B78     		ldrb	r3, [r3]
 445 0036 002B     		cmp	r3, #0
 446 0038 0AD0     		beq	.L24
 259:main.c        ****         sprintf(txData, "CAN_Start():  %u\r\n",can_start);
 447              		.loc 1 259 0
 448 003a FFF7FEFF 		bl	UART_Start
 449              	.LVL20:
 260:main.c        ****         UART_UartPutString(txData); 
 450              		.loc 1 260 0
 451 003e 094D     		ldr	r5, .L26+16
ARM GAS  C:\Users\austc\AppData\Local\Temp\ccPDHU8c.s 			page 18


 452 0040 2200     		movs	r2, r4
 453 0042 0949     		ldr	r1, .L26+20
 454 0044 2800     		movs	r0, r5
 455 0046 FFF7FEFF 		bl	sprintf
 456              	.LVL21:
 261:main.c        ****     }
 457              		.loc 1 261 0
 458 004a 2800     		movs	r0, r5
 459 004c FFF7FEFF 		bl	UART_UartPutString
 460              	.LVL22:
 461              	.L24:
 263:main.c        **** 
 462              		.loc 1 263 0
 463              		@ sp needed
 464              	.LVL23:
 465 0050 70BD     		pop	{r4, r5, r6, pc}
 466              	.L27:
 467 0052 C046     		.align	2
 468              	.L26:
 469 0054 00000000 		.word	ISR_CAN
 470 0058 00000000 		.word	Pin_Limit_Handler
 471 005c 00000000 		.word	Period_Reset_Handler
 472 0060 00000000 		.word	.LANCHOR0
 473 0064 00000000 		.word	txData
 474 0068 34000000 		.word	.LC16
 475              		.cfi_endproc
 476              	.LFE39:
 477              		.size	initialize, .-initialize
 478              		.section	.text.set_CAN_ID,"ax",%progbits
 479              		.align	2
 480              		.global	set_CAN_ID
 481              		.code	16
 482              		.thumb_func
 483              		.type	set_CAN_ID, %function
 484              	set_CAN_ID:
 485              	.LFB41:
 333:main.c        ****     message.id = (priority << 10) | (message_id << 5) | 0b00010;
 486              		.loc 1 333 0
 487              		.cfi_startproc
 488              		@ args = 0, pretend = 0, frame = 0
 489              		@ frame_needed = 0, uses_anonymous_args = 0
 490              		@ link register save eliminated.
 491              	.LVL24:
 334:main.c        **** }
 492              		.loc 1 334 0
 493 0000 8002     		lsls	r0, r0, #10
 494              	.LVL25:
 495 0002 044B     		ldr	r3, .L29
 496 0004 9B68     		ldr	r3, [r3, #8]
 497 0006 5B01     		lsls	r3, r3, #5
 498 0008 1843     		orrs	r0, r3
 499 000a 0223     		movs	r3, #2
 500 000c 1843     		orrs	r0, r3
 501 000e 024B     		ldr	r3, .L29+4
 502 0010 1860     		str	r0, [r3]
 335:main.c        **** 
 503              		.loc 1 335 0
ARM GAS  C:\Users\austc\AppData\Local\Temp\ccPDHU8c.s 			page 19


 504              		@ sp needed
 505 0012 7047     		bx	lr
 506              	.L30:
 507              		.align	2
 508              	.L29:
 509 0014 00000000 		.word	.LANCHOR1
 510 0018 00000000 		.word	message
 511              		.cfi_endproc
 512              	.LFE41:
 513              		.size	set_CAN_ID, .-set_CAN_ID
 514              		.section	.text.initialize_can_addr,"ax",%progbits
 515              		.align	2
 516              		.global	initialize_can_addr
 517              		.code	16
 518              		.thumb_func
 519              		.type	initialize_can_addr, %function
 520              	initialize_can_addr:
 521              	.LFB40:
 281:main.c        ****     uint8 setting = Can_addr_Read();
 522              		.loc 1 281 0
 523              		.cfi_startproc
 524              		@ args = 0, pretend = 0, frame = 0
 525              		@ frame_needed = 0, uses_anonymous_args = 0
 526 0000 F0B5     		push	{r4, r5, r6, r7, lr}
 527              		.cfi_def_cfa_offset 20
 528              		.cfi_offset 4, -20
 529              		.cfi_offset 5, -16
 530              		.cfi_offset 6, -12
 531              		.cfi_offset 7, -8
 532              		.cfi_offset 14, -4
 533 0002 83B0     		sub	sp, sp, #12
 534              		.cfi_def_cfa_offset 32
 282:main.c        ****     uint8 shift = 0;
 535              		.loc 1 282 0
 536 0004 FFF7FEFF 		bl	Can_addr_Read
 537              	.LVL26:
 538 0008 0500     		movs	r5, r0
 539              	.LVL27:
 284:main.c        ****         case 0b000: //Base rotation
 540              		.loc 1 284 0
 541 000a FFF7FEFF 		bl	Can_addr_Read
 542              	.LVL28:
 543 000e 0628     		cmp	r0, #6
 544 0010 31D8     		bhi	.L42
 545 0012 8000     		lsls	r0, r0, #2
 546 0014 2F4B     		ldr	r3, .L43
 547 0016 1B58     		ldr	r3, [r3, r0]
 548 0018 9F46     		mov	pc, r3
 549              		.section	.rodata
 550              		.align	2
 551              	.L34:
 552 0000 1A000000 		.word	.L33
 553 0004 24000000 		.word	.L35
 554 0008 2E000000 		.word	.L36
 555 000c 42000000 		.word	.L37
 556 0010 50000000 		.word	.L38
 557 0014 5E000000 		.word	.L39
ARM GAS  C:\Users\austc\AppData\Local\Temp\ccPDHU8c.s 			page 20


 558 0018 6C000000 		.word	.L40
 559              		.section	.text.initialize_can_addr
 560              	.L33:
 286:main.c        ****             shift = 0;
 561              		.loc 1 286 0
 562 001a 1022     		movs	r2, #16
 563 001c 2E4B     		ldr	r3, .L43+4
 564 001e 9A60     		str	r2, [r3, #8]
 287:main.c        ****             break;
 565              		.loc 1 287 0
 566 0020 0026     		movs	r6, #0
 288:main.c        ****         case 0b001: // shoulder
 567              		.loc 1 288 0
 568 0022 29E0     		b	.L32
 569              	.L35:
 290:main.c        ****             shift = 1;
 570              		.loc 1 290 0
 571 0024 1122     		movs	r2, #17
 572 0026 2C4B     		ldr	r3, .L43+4
 573 0028 9A60     		str	r2, [r3, #8]
 574              	.LVL29:
 291:main.c        ****             break;
 575              		.loc 1 291 0
 576 002a 0126     		movs	r6, #1
 292:main.c        ****         case 0b010: // elbow
 577              		.loc 1 292 0
 578 002c 24E0     		b	.L32
 579              	.LVL30:
 580              	.L36:
 294:main.c        ****             shift = 2;
 581              		.loc 1 294 0
 582 002e 1222     		movs	r2, #18
 583 0030 294B     		ldr	r3, .L43+4
 584 0032 9A60     		str	r2, [r3, #8]
 585              	.LVL31:
 296:main.c        ****             break;
 586              		.loc 1 296 0
 587 0034 2948     		ldr	r0, .L43+8
 588 0036 2A49     		ldr	r1, .L43+12
 589 0038 2A4B     		ldr	r3, .L43+16
 590 003a 1860     		str	r0, [r3]
 591 003c 5960     		str	r1, [r3, #4]
 295:main.c        ****             ratio = 2.8;
 592              		.loc 1 295 0
 593 003e 0226     		movs	r6, #2
 297:main.c        ****         case 0b011: // forearm rotation
 594              		.loc 1 297 0
 595 0040 1AE0     		b	.L32
 596              	.LVL32:
 597              	.L37:
 299:main.c        ****             disable_limit = 1;
 598              		.loc 1 299 0
 599 0042 254B     		ldr	r3, .L43+4
 600 0044 1322     		movs	r2, #19
 601 0046 9A60     		str	r2, [r3, #8]
 300:main.c        ****             shift = 3;
 602              		.loc 1 300 0
ARM GAS  C:\Users\austc\AppData\Local\Temp\ccPDHU8c.s 			page 21


 603 0048 123A     		subs	r2, r2, #18
 604 004a 1A73     		strb	r2, [r3, #12]
 605              	.LVL33:
 301:main.c        ****             break;
 606              		.loc 1 301 0
 607 004c 0326     		movs	r6, #3
 302:main.c        ****         case 0b100: // diff wrist 1
 608              		.loc 1 302 0
 609 004e 13E0     		b	.L32
 610              	.LVL34:
 611              	.L38:
 304:main.c        ****             disable_limit = 1;
 612              		.loc 1 304 0
 613 0050 214B     		ldr	r3, .L43+4
 614 0052 1422     		movs	r2, #20
 615 0054 9A60     		str	r2, [r3, #8]
 305:main.c        ****             shift = 4;
 616              		.loc 1 305 0
 617 0056 133A     		subs	r2, r2, #19
 618 0058 1A73     		strb	r2, [r3, #12]
 619              	.LVL35:
 306:main.c        ****             break;
 620              		.loc 1 306 0
 621 005a 0426     		movs	r6, #4
 307:main.c        ****         case 0b101: // diff wrist 2
 622              		.loc 1 307 0
 623 005c 0CE0     		b	.L32
 624              	.LVL36:
 625              	.L39:
 309:main.c        ****             disable_limit = 1;
 626              		.loc 1 309 0
 627 005e 1E4B     		ldr	r3, .L43+4
 628 0060 1522     		movs	r2, #21
 629 0062 9A60     		str	r2, [r3, #8]
 310:main.c        ****             shift = 5;
 630              		.loc 1 310 0
 631 0064 143A     		subs	r2, r2, #20
 632 0066 1A73     		strb	r2, [r3, #12]
 633              	.LVL37:
 311:main.c        ****             break;
 634              		.loc 1 311 0
 635 0068 0526     		movs	r6, #5
 312:main.c        ****         case 0b110: // hand
 636              		.loc 1 312 0
 637 006a 05E0     		b	.L32
 638              	.LVL38:
 639              	.L40:
 314:main.c        ****             shift = 6;
 640              		.loc 1 314 0
 641 006c 1622     		movs	r2, #22
 642 006e 1A4B     		ldr	r3, .L43+4
 643 0070 9A60     		str	r2, [r3, #8]
 644              	.LVL39:
 315:main.c        ****             break;
 645              		.loc 1 315 0
 646 0072 0626     		movs	r6, #6
 316:main.c        ****     }
ARM GAS  C:\Users\austc\AppData\Local\Temp\ccPDHU8c.s 			page 22


 647              		.loc 1 316 0
 648 0074 00E0     		b	.L32
 649              	.LVL40:
 650              	.L42:
 283:main.c        ****     switch(Can_addr_Read()) {
 651              		.loc 1 283 0
 652 0076 0026     		movs	r6, #0
 653              	.LVL41:
 654              	.L32:
 319:main.c        ****     CAN_RX_MAILBOX_1_SHIFT = CAN_RX_MAILBOX_1_SHIFT << shift;
 655              		.loc 1 319 0
 656 0078 1B4C     		ldr	r4, .L43+20
 657 007a 6368     		ldr	r3, [r4, #4]
 658 007c B340     		lsls	r3, r3, r6
 659 007e 6360     		str	r3, [r4, #4]
 320:main.c        ****     CAN_RX_MAILBOX_0 += shift;
 660              		.loc 1 320 0
 661 0080 A389     		ldrh	r3, [r4, #12]
 662 0082 B340     		lsls	r3, r3, r6
 663 0084 A381     		strh	r3, [r4, #12]
 321:main.c        ****     CAN_RX_MAILBOX_1 += shift;
 664              		.loc 1 321 0
 665 0086 B3B2     		uxth	r3, r6
 666 0088 2289     		ldrh	r2, [r4, #8]
 667 008a 9A18     		adds	r2, r3, r2
 668 008c 2281     		strh	r2, [r4, #8]
 322:main.c        ****     set_CAN_ID(0b1);
 669              		.loc 1 322 0
 670 008e 1249     		ldr	r1, .L43+4
 671 0090 4A88     		ldrh	r2, [r1, #2]
 672 0092 9B18     		adds	r3, r3, r2
 673 0094 4B80     		strh	r3, [r1, #2]
 323:main.c        ****     
 674              		.loc 1 323 0
 675 0096 0120     		movs	r0, #1
 676 0098 FFF7FEFF 		bl	set_CAN_ID
 677              	.LVL42:
 325:main.c        ****         sprintf(txData, "CAN dip setting:  %x Message ID: %ld\r\n",setting, message_id);
 678              		.loc 1 325 0
 679 009c 2378     		ldrb	r3, [r4]
 680 009e 002B     		cmp	r3, #0
 681 00a0 16D0     		beq	.L31
 326:main.c        ****         UART_UartPutString(txData); 
 682              		.loc 1 326 0
 683 00a2 0D4F     		ldr	r7, .L43+4
 684 00a4 114C     		ldr	r4, .L43+24
 685 00a6 BB68     		ldr	r3, [r7, #8]
 686 00a8 2A00     		movs	r2, r5
 687 00aa 1149     		ldr	r1, .L43+28
 688 00ac 2000     		movs	r0, r4
 689 00ae FFF7FEFF 		bl	sprintf
 690              	.LVL43:
 327:main.c        ****         sprintf(txData, "Can shift: %d   P0Mailbox: %d P1Mailbox %d\r\n",shift, CAN_RX_MAILBOX_0, C
 691              		.loc 1 327 0
 692 00b2 2000     		movs	r0, r4
 693 00b4 FFF7FEFF 		bl	UART_UartPutString
 694              	.LVL44:
ARM GAS  C:\Users\austc\AppData\Local\Temp\ccPDHU8c.s 			page 23


 328:main.c        ****         UART_UartPutString(txData); 
 695              		.loc 1 328 0
 696 00b8 0B4B     		ldr	r3, .L43+20
 697 00ba 1B89     		ldrh	r3, [r3, #8]
 698 00bc 7A88     		ldrh	r2, [r7, #2]
 699 00be 0092     		str	r2, [sp]
 700 00c0 3200     		movs	r2, r6
 701 00c2 0C49     		ldr	r1, .L43+32
 702 00c4 2000     		movs	r0, r4
 703 00c6 FFF7FEFF 		bl	sprintf
 704              	.LVL45:
 329:main.c        ****     }
 705              		.loc 1 329 0
 706 00ca 2000     		movs	r0, r4
 707 00cc FFF7FEFF 		bl	UART_UartPutString
 708              	.LVL46:
 709              	.L31:
 331:main.c        **** 
 710              		.loc 1 331 0
 711 00d0 03B0     		add	sp, sp, #12
 712              		@ sp needed
 713              	.LVL47:
 714              	.LVL48:
 715 00d2 F0BD     		pop	{r4, r5, r6, r7, pc}
 716              	.L44:
 717              		.align	2
 718              	.L43:
 719 00d4 00000000 		.word	.L34
 720 00d8 00000000 		.word	.LANCHOR1
 721 00dc 66666666 		.word	1717986918
 722 00e0 66660640 		.word	1074161254
 723 00e4 00000000 		.word	ratio
 724 00e8 00000000 		.word	.LANCHOR0
 725 00ec 00000000 		.word	txData
 726 00f0 48000000 		.word	.LC25
 727 00f4 70000000 		.word	.LC28
 728              		.cfi_endproc
 729              	.LFE40:
 730              		.size	initialize_can_addr, .-initialize_can_addr
 731              		.section	.text.set_PWM,"ax",%progbits
 732              		.align	2
 733              		.global	set_PWM
 734              		.code	16
 735              		.thumb_func
 736              		.type	set_PWM, %function
 737              	set_PWM:
 738              	.LFB42:
 338:main.c        ****     invalidate = 0;
 739              		.loc 1 338 0
 740              		.cfi_startproc
 741              		@ args = 0, pretend = 0, frame = 0
 742              		@ frame_needed = 0, uses_anonymous_args = 0
 743              	.LVL49:
 744 0000 10B5     		push	{r4, lr}
 745              		.cfi_def_cfa_offset 8
 746              		.cfi_offset 4, -8
 747              		.cfi_offset 14, -4
ARM GAS  C:\Users\austc\AppData\Local\Temp\ccPDHU8c.s 			page 24


 748 0002 0400     		movs	r4, r0
 339:main.c        ****     if (compare < -255 || compare > 255) { return; }
 749              		.loc 1 339 0
 750 0004 0022     		movs	r2, #0
 751 0006 164B     		ldr	r3, .L51
 752 0008 5A73     		strb	r2, [r3, #13]
 340:main.c        ****     uint8 status = Status_Reg_Switches_Read();
 753              		.loc 1 340 0
 754 000a 0200     		movs	r2, r0
 755 000c FF32     		adds	r2, r2, #255
 756 000e FF23     		movs	r3, #255
 757 0010 5B00     		lsls	r3, r3, #1
 758 0012 9A42     		cmp	r2, r3
 759 0014 22D8     		bhi	.L45
 341:main.c        ****     if (compare < 0 ) {
 760              		.loc 1 341 0
 761 0016 FFF7FEFF 		bl	Status_Reg_Switches_Read
 762              	.LVL50:
 342:main.c        ****         if(!(status & 0b01) || disable_limit){
 763              		.loc 1 342 0
 764 001a 002C     		cmp	r4, #0
 765 001c 0CDA     		bge	.L47
 343:main.c        ****             Pin_Direction_Write(0);
 766              		.loc 1 343 0
 767 001e C307     		lsls	r3, r0, #31
 768 0020 03D5     		bpl	.L48
 343:main.c        ****             Pin_Direction_Write(0);
 769              		.loc 1 343 0 is_stmt 0 discriminator 1
 770 0022 0F4B     		ldr	r3, .L51
 771 0024 1B7B     		ldrb	r3, [r3, #12]
 772 0026 002B     		cmp	r3, #0
 773 0028 18D0     		beq	.L45
 774              	.L48:
 344:main.c        ****             PWM_Motor_WriteCompare(-compare);
 775              		.loc 1 344 0 is_stmt 1
 776 002a 0020     		movs	r0, #0
 777              	.LVL51:
 778 002c FFF7FEFF 		bl	Pin_Direction_Write
 779              	.LVL52:
 345:main.c        ****         }
 780              		.loc 1 345 0
 781 0030 6042     		rsbs	r0, r4, #0
 782 0032 FFF7FEFF 		bl	PWM_Motor_WriteCompare
 783              	.LVL53:
 784 0036 11E0     		b	.L45
 785              	.LVL54:
 786              	.L47:
 347:main.c        ****         if(!(status & 0b10) || disable_limit) {
 787              		.loc 1 347 0
 788 0038 002C     		cmp	r4, #0
 789 003a 0CDD     		ble	.L49
 348:main.c        ****             Pin_Direction_Write(1);
 790              		.loc 1 348 0
 791 003c 8307     		lsls	r3, r0, #30
 792 003e 03D5     		bpl	.L50
 348:main.c        ****             Pin_Direction_Write(1);
 793              		.loc 1 348 0 is_stmt 0 discriminator 1
ARM GAS  C:\Users\austc\AppData\Local\Temp\ccPDHU8c.s 			page 25


 794 0040 074B     		ldr	r3, .L51
 795 0042 1B7B     		ldrb	r3, [r3, #12]
 796 0044 002B     		cmp	r3, #0
 797 0046 09D0     		beq	.L45
 798              	.L50:
 349:main.c        ****             PWM_Motor_WriteCompare(compare);
 799              		.loc 1 349 0 is_stmt 1
 800 0048 0120     		movs	r0, #1
 801              	.LVL55:
 802 004a FFF7FEFF 		bl	Pin_Direction_Write
 803              	.LVL56:
 350:main.c        ****         }
 804              		.loc 1 350 0
 805 004e 2000     		movs	r0, r4
 806 0050 FFF7FEFF 		bl	PWM_Motor_WriteCompare
 807              	.LVL57:
 808 0054 02E0     		b	.L45
 809              	.LVL58:
 810              	.L49:
 353:main.c        ****     }
 811              		.loc 1 353 0
 812 0056 0020     		movs	r0, #0
 813              	.LVL59:
 814 0058 FFF7FEFF 		bl	PWM_Motor_WriteCompare
 815              	.LVL60:
 816              	.L45:
 355:main.c        **** 
 817              		.loc 1 355 0
 818              		@ sp needed
 819              	.LVL61:
 820 005c 10BD     		pop	{r4, pc}
 821              	.L52:
 822 005e C046     		.align	2
 823              	.L51:
 824 0060 00000000 		.word	.LANCHOR1
 825              		.cfi_endproc
 826              	.LFE42:
 827              		.size	set_PWM, .-set_PWM
 828              		.section	.text.Period_Reset_Handler,"ax",%progbits
 829              		.align	2
 830              		.global	Period_Reset_Handler
 831              		.code	16
 832              		.thumb_func
 833              		.type	Period_Reset_Handler, %function
 834              	Period_Reset_Handler:
 835              	.LFB35:
  75:main.c        ****     int timer = Timer_1_ReadStatusRegister();
 836              		.loc 1 75 0
 837              		.cfi_startproc
 838              		@ args = 0, pretend = 0, frame = 0
 839              		@ frame_needed = 0, uses_anonymous_args = 0
 840 0000 10B5     		push	{r4, lr}
 841              		.cfi_def_cfa_offset 8
 842              		.cfi_offset 4, -8
 843              		.cfi_offset 14, -4
  76:main.c        ****     if(uart_debug) {
 844              		.loc 1 76 0
ARM GAS  C:\Users\austc\AppData\Local\Temp\ccPDHU8c.s 			page 26


 845 0002 FFF7FEFF 		bl	Timer_1_ReadStatusRegister
 846              	.LVL62:
  77:main.c        ****         sprintf(txData,"Period interupt triggerd %x\r\n", timer);
 847              		.loc 1 77 0
 848 0006 0B4B     		ldr	r3, .L56
 849 0008 1B78     		ldrb	r3, [r3]
 850 000a 002B     		cmp	r3, #0
 851 000c 04D0     		beq	.L54
  78:main.c        ****         //UART_UartPutString(txData);
 852              		.loc 1 78 0
 853 000e 0200     		movs	r2, r0
 854 0010 0949     		ldr	r1, .L56+4
 855 0012 0A48     		ldr	r0, .L56+8
 856              	.LVL63:
 857 0014 FFF7FEFF 		bl	sprintf
 858              	.LVL64:
 859              	.L54:
  81:main.c        ****     invalidate++;
 860              		.loc 1 81 0
 861 0018 0122     		movs	r2, #1
 862 001a 064B     		ldr	r3, .L56
 863 001c 9A73     		strb	r2, [r3, #14]
  82:main.c        ****     if(invalidate >= 20){
 864              		.loc 1 82 0
 865 001e 084A     		ldr	r2, .L56+12
 866 0020 537B     		ldrb	r3, [r2, #13]
 867 0022 0133     		adds	r3, r3, #1
 868 0024 DBB2     		uxtb	r3, r3
 869 0026 5373     		strb	r3, [r2, #13]
  83:main.c        ****         set_PWM(0);   
 870              		.loc 1 83 0
 871 0028 132B     		cmp	r3, #19
 872 002a 02D9     		bls	.L53
  84:main.c        ****     }
 873              		.loc 1 84 0
 874 002c 0020     		movs	r0, #0
 875 002e FFF7FEFF 		bl	set_PWM
 876              	.LVL65:
 877              	.L53:
  86:main.c        **** 
 878              		.loc 1 86 0
 879              		@ sp needed
 880 0032 10BD     		pop	{r4, pc}
 881              	.L57:
 882              		.align	2
 883              	.L56:
 884 0034 00000000 		.word	.LANCHOR0
 885 0038 A0000000 		.word	.LC32
 886 003c 00000000 		.word	txData
 887 0040 00000000 		.word	.LANCHOR1
 888              		.cfi_endproc
 889              	.LFE35:
 890              		.size	Period_Reset_Handler, .-Period_Reset_Handler
 891              		.section	.text.Pin_Limit_Handler,"ax",%progbits
 892              		.align	2
 893              		.global	Pin_Limit_Handler
 894              		.code	16
ARM GAS  C:\Users\austc\AppData\Local\Temp\ccPDHU8c.s 			page 27


 895              		.thumb_func
 896              		.type	Pin_Limit_Handler, %function
 897              	Pin_Limit_Handler:
 898              	.LFB36:
  88:main.c        ****     if(uart_debug) {
 899              		.loc 1 88 0
 900              		.cfi_startproc
 901              		@ args = 0, pretend = 0, frame = 0
 902              		@ frame_needed = 0, uses_anonymous_args = 0
 903 0000 10B5     		push	{r4, lr}
 904              		.cfi_def_cfa_offset 8
 905              		.cfi_offset 4, -8
 906              		.cfi_offset 14, -4
  89:main.c        ****         sprintf(txData,"Limit interupt triggerd\r\n");
 907              		.loc 1 89 0
 908 0002 094B     		ldr	r3, .L60
 909 0004 1B78     		ldrb	r3, [r3]
 910 0006 002B     		cmp	r3, #0
 911 0008 08D0     		beq	.L59
  90:main.c        ****         UART_UartPutString(txData);
 912              		.loc 1 90 0
 913 000a 084C     		ldr	r4, .L60+4
 914 000c 1A22     		movs	r2, #26
 915 000e 0849     		ldr	r1, .L60+8
 916 0010 2000     		movs	r0, r4
 917 0012 FFF7FEFF 		bl	memcpy
 918              	.LVL66:
  91:main.c        ****     }
 919              		.loc 1 91 0
 920 0016 2000     		movs	r0, r4
 921 0018 FFF7FEFF 		bl	UART_UartPutString
 922              	.LVL67:
 923              	.L59:
  93:main.c        **** }
 924              		.loc 1 93 0
 925 001c 054B     		ldr	r3, .L60+12
 926 001e 1868     		ldr	r0, [r3]
 927 0020 FFF7FEFF 		bl	set_PWM
 928              	.LVL68:
  94:main.c        **** 
 929              		.loc 1 94 0
 930              		@ sp needed
 931 0024 10BD     		pop	{r4, pc}
 932              	.L61:
 933 0026 C046     		.align	2
 934              	.L60:
 935 0028 00000000 		.word	.LANCHOR0
 936 002c 00000000 		.word	txData
 937 0030 C0000000 		.word	.LC38
 938 0034 00000000 		.word	pwm_compare
 939              		.cfi_endproc
 940              	.LFE36:
 941              		.size	Pin_Limit_Handler, .-Pin_Limit_Handler
 942              		.section	.text.CAN_Send_Encoder,"ax",%progbits
 943              		.align	2
 944              		.global	CAN_Send_Encoder
 945              		.code	16
ARM GAS  C:\Users\austc\AppData\Local\Temp\ccPDHU8c.s 			page 28


 946              		.thumb_func
 947              		.type	CAN_Send_Encoder, %function
 948              	CAN_Send_Encoder:
 949              	.LFB43:
 357:main.c        ****     int16 ticks = QuadDec_GetCounter();
 950              		.loc 1 357 0
 951              		.cfi_startproc
 952              		@ args = 0, pretend = 0, frame = 0
 953              		@ frame_needed = 0, uses_anonymous_args = 0
 954 0000 F0B5     		push	{r4, r5, r6, r7, lr}
 955              		.cfi_def_cfa_offset 20
 956              		.cfi_offset 4, -20
 957              		.cfi_offset 5, -16
 958              		.cfi_offset 6, -12
 959              		.cfi_offset 7, -8
 960              		.cfi_offset 14, -4
 961 0002 83B0     		sub	sp, sp, #12
 962              		.cfi_def_cfa_offset 32
 358:main.c        ****     data.byte[0u] = 0x14u;
 963              		.loc 1 358 0
 964 0004 FFF7FEFF 		bl	QuadDec_GetCounter
 965              	.LVL69:
 359:main.c        ****     data.byte[1u] = LO8(ticks);
 966              		.loc 1 359 0
 967 0008 124B     		ldr	r3, .L64
 968 000a 1422     		movs	r2, #20
 969 000c 1A70     		strb	r2, [r3]
 360:main.c        ****     data.byte[2u] = HI8(ticks);
 970              		.loc 1 360 0
 971 000e 5870     		strb	r0, [r3, #1]
 361:main.c        ****     data.byte[3u] = 0;
 972              		.loc 1 361 0
 973 0010 80B2     		uxth	r0, r0
 974 0012 000A     		lsrs	r0, r0, #8
 975              	.LVL70:
 976 0014 9870     		strb	r0, [r3, #2]
 362:main.c        ****     data.byte[4u] = 0;
 977              		.loc 1 362 0
 978 0016 0022     		movs	r2, #0
 979 0018 DA70     		strb	r2, [r3, #3]
 363:main.c        ****     CAN_SendMsg(&message);
 980              		.loc 1 363 0
 981 001a 1A71     		strb	r2, [r3, #4]
 364:main.c        ****     if(uart_debug == 2) {
 982              		.loc 1 364 0
 983 001c 0E48     		ldr	r0, .L64+4
 984 001e FFF7FEFF 		bl	CAN_SendMsg
 985              	.LVL71:
 365:main.c        ****         sprintf(txData, "CAN_Send_Encoder: byte[0u] %x byte[1u] %x byte[2u] %x\n QuadDec Count %d\r
 986              		.loc 1 365 0
 987 0022 0E4B     		ldr	r3, .L64+8
 988 0024 1B78     		ldrb	r3, [r3]
 989 0026 022B     		cmp	r3, #2
 990 0028 11D1     		bne	.L62
 367:main.c        ****             QuadDec_GetCounter());
 991              		.loc 1 367 0
 992 002a 0A4B     		ldr	r3, .L64
ARM GAS  C:\Users\austc\AppData\Local\Temp\ccPDHU8c.s 			page 29


 993 002c 1D78     		ldrb	r5, [r3]
 994 002e 5E78     		ldrb	r6, [r3, #1]
 995 0030 9F78     		ldrb	r7, [r3, #2]
 368:main.c        ****         UART_UartPutString(txData);    
 996              		.loc 1 368 0
 997 0032 FFF7FEFF 		bl	QuadDec_GetCounter
 998              	.LVL72:
 366:main.c        ****             data.byte[0u],data.byte[1u],data.byte[2u],
 999              		.loc 1 366 0
 1000 0036 0A4C     		ldr	r4, .L64+12
 1001 0038 0190     		str	r0, [sp, #4]
 1002 003a 0097     		str	r7, [sp]
 1003 003c 3300     		movs	r3, r6
 1004 003e 2A00     		movs	r2, r5
 1005 0040 0849     		ldr	r1, .L64+16
 1006 0042 2000     		movs	r0, r4
 1007 0044 FFF7FEFF 		bl	sprintf
 1008              	.LVL73:
 369:main.c        ****     }
 1009              		.loc 1 369 0
 1010 0048 2000     		movs	r0, r4
 1011 004a FFF7FEFF 		bl	UART_UartPutString
 1012              	.LVL74:
 1013              	.L62:
 371:main.c        **** 
 1014              		.loc 1 371 0
 1015 004e 03B0     		add	sp, sp, #12
 1016              		@ sp needed
 1017 0050 F0BD     		pop	{r4, r5, r6, r7, pc}
 1018              	.L65:
 1019 0052 C046     		.align	2
 1020              	.L64:
 1021 0054 00000000 		.word	data
 1022 0058 00000000 		.word	message
 1023 005c 00000000 		.word	.LANCHOR0
 1024 0060 00000000 		.word	txData
 1025 0064 DC000000 		.word	.LC44
 1026              		.cfi_endproc
 1027              	.LFE43:
 1028              		.size	CAN_Send_Encoder, .-CAN_Send_Encoder
 1029              		.section	.text.CAN_Send_Telemetry,"ax",%progbits
 1030              		.align	2
 1031              		.global	CAN_Send_Telemetry
 1032              		.code	16
 1033              		.thumb_func
 1034              		.type	CAN_Send_Telemetry, %function
 1035              	CAN_Send_Telemetry:
 1036              	.LFB44:
 373:main.c        ****     data.byte[0u] = 0x18u;
 1037              		.loc 1 373 0
 1038              		.cfi_startproc
 1039              		@ args = 0, pretend = 0, frame = 0
 1040              		@ frame_needed = 0, uses_anonymous_args = 0
 1041 0000 10B5     		push	{r4, lr}
 1042              		.cfi_def_cfa_offset 8
 1043              		.cfi_offset 4, -8
 1044              		.cfi_offset 14, -4
ARM GAS  C:\Users\austc\AppData\Local\Temp\ccPDHU8c.s 			page 30


 374:main.c        ****     data.byte[1u] = 0;
 1045              		.loc 1 374 0
 1046 0002 0D4B     		ldr	r3, .L68
 1047 0004 1822     		movs	r2, #24
 1048 0006 1A70     		strb	r2, [r3]
 375:main.c        ****     data.byte[2u] = 0;
 1049              		.loc 1 375 0
 1050 0008 0022     		movs	r2, #0
 1051 000a 5A70     		strb	r2, [r3, #1]
 376:main.c        ****     data.byte[3u] = 0;
 1052              		.loc 1 376 0
 1053 000c 9A70     		strb	r2, [r3, #2]
 377:main.c        ****     data.byte[4u] = 0;
 1054              		.loc 1 377 0
 1055 000e DA70     		strb	r2, [r3, #3]
 378:main.c        ****     CAN_SendMsg(&message);
 1056              		.loc 1 378 0
 1057 0010 1A71     		strb	r2, [r3, #4]
 379:main.c        ****     if(uart_debug == 2) {
 1058              		.loc 1 379 0
 1059 0012 0A48     		ldr	r0, .L68+4
 1060 0014 FFF7FEFF 		bl	CAN_SendMsg
 1061              	.LVL75:
 380:main.c        ****         sprintf(txData, "Telemerty: byte[0u] %x byte[1u] %x\r\n",(uint8)data.byte[0u],(uint8)data.b
 1062              		.loc 1 380 0
 1063 0018 094B     		ldr	r3, .L68+8
 1064 001a 1B78     		ldrb	r3, [r3]
 1065 001c 022B     		cmp	r3, #2
 1066 001e 0AD1     		bne	.L66
 381:main.c        ****         UART_UartPutString(txData); 
 1067              		.loc 1 381 0
 1068 0020 054B     		ldr	r3, .L68
 1069 0022 1A78     		ldrb	r2, [r3]
 1070 0024 5B78     		ldrb	r3, [r3, #1]
 1071 0026 074C     		ldr	r4, .L68+12
 1072 0028 0749     		ldr	r1, .L68+16
 1073 002a 2000     		movs	r0, r4
 1074 002c FFF7FEFF 		bl	sprintf
 1075              	.LVL76:
 382:main.c        ****     }
 1076              		.loc 1 382 0
 1077 0030 2000     		movs	r0, r4
 1078 0032 FFF7FEFF 		bl	UART_UartPutString
 1079              	.LVL77:
 1080              	.L66:
 384:main.c        **** 
 1081              		.loc 1 384 0
 1082              		@ sp needed
 1083 0036 10BD     		pop	{r4, pc}
 1084              	.L69:
 1085              		.align	2
 1086              	.L68:
 1087 0038 00000000 		.word	data
 1088 003c 00000000 		.word	message
 1089 0040 00000000 		.word	.LANCHOR0
 1090 0044 00000000 		.word	txData
 1091 0048 28010000 		.word	.LC50
ARM GAS  C:\Users\austc\AppData\Local\Temp\ccPDHU8c.s 			page 31


 1092              		.cfi_endproc
 1093              	.LFE44:
 1094              		.size	CAN_Send_Telemetry, .-CAN_Send_Telemetry
 1095              		.section	.text.CAN_Send_Model,"ax",%progbits
 1096              		.align	2
 1097              		.global	CAN_Send_Model
 1098              		.code	16
 1099              		.thumb_func
 1100              		.type	CAN_Send_Model, %function
 1101              	CAN_Send_Model:
 1102              	.LFB45:
 386:main.c        ****     data.byte[0u] = 0x12u;
 1103              		.loc 1 386 0
 1104              		.cfi_startproc
 1105              		@ args = 0, pretend = 0, frame = 0
 1106              		@ frame_needed = 0, uses_anonymous_args = 0
 1107 0000 10B5     		push	{r4, lr}
 1108              		.cfi_def_cfa_offset 8
 1109              		.cfi_offset 4, -8
 1110              		.cfi_offset 14, -4
 387:main.c        ****     data.byte[1u] = 0x00u;
 1111              		.loc 1 387 0
 1112 0002 0D4B     		ldr	r3, .L72
 1113 0004 1222     		movs	r2, #18
 1114 0006 1A70     		strb	r2, [r3]
 388:main.c        ****     data.byte[2u] = 0;
 1115              		.loc 1 388 0
 1116 0008 0022     		movs	r2, #0
 1117 000a 5A70     		strb	r2, [r3, #1]
 389:main.c        ****     data.byte[3u] = 0;
 1118              		.loc 1 389 0
 1119 000c 9A70     		strb	r2, [r3, #2]
 390:main.c        ****     data.byte[4u] = 0;
 1120              		.loc 1 390 0
 1121 000e DA70     		strb	r2, [r3, #3]
 391:main.c        ****     CAN_SendMsg(&message);
 1122              		.loc 1 391 0
 1123 0010 1A71     		strb	r2, [r3, #4]
 392:main.c        ****     if(uart_debug == 2) {
 1124              		.loc 1 392 0
 1125 0012 0A48     		ldr	r0, .L72+4
 1126 0014 FFF7FEFF 		bl	CAN_SendMsg
 1127              	.LVL78:
 393:main.c        ****         sprintf(txData, "Model: byte[0u] %x byte[1u] %x\r\n",data.byte[0u],data.byte[1u]);
 1128              		.loc 1 393 0
 1129 0018 094B     		ldr	r3, .L72+8
 1130 001a 1B78     		ldrb	r3, [r3]
 1131 001c 022B     		cmp	r3, #2
 1132 001e 0AD1     		bne	.L70
 394:main.c        ****         UART_UartPutString(txData); 
 1133              		.loc 1 394 0
 1134 0020 054B     		ldr	r3, .L72
 1135 0022 1A78     		ldrb	r2, [r3]
 1136 0024 5B78     		ldrb	r3, [r3, #1]
 1137 0026 074C     		ldr	r4, .L72+12
 1138 0028 0749     		ldr	r1, .L72+16
 1139 002a 2000     		movs	r0, r4
ARM GAS  C:\Users\austc\AppData\Local\Temp\ccPDHU8c.s 			page 32


 1140 002c FFF7FEFF 		bl	sprintf
 1141              	.LVL79:
 395:main.c        ****     }
 1142              		.loc 1 395 0
 1143 0030 2000     		movs	r0, r4
 1144 0032 FFF7FEFF 		bl	UART_UartPutString
 1145              	.LVL80:
 1146              	.L70:
 397:main.c        **** 
 1147              		.loc 1 397 0
 1148              		@ sp needed
 1149 0036 10BD     		pop	{r4, pc}
 1150              	.L73:
 1151              		.align	2
 1152              	.L72:
 1153 0038 00000000 		.word	data
 1154 003c 00000000 		.word	message
 1155 0040 00000000 		.word	.LANCHOR0
 1156 0044 00000000 		.word	txData
 1157 0048 50010000 		.word	.LC56
 1158              		.cfi_endproc
 1159              	.LFE45:
 1160              		.size	CAN_Send_Model, .-CAN_Send_Model
 1161              		.section	.text.CAN_Send_Error,"ax",%progbits
 1162              		.align	2
 1163              		.global	CAN_Send_Error
 1164              		.code	16
 1165              		.thumb_func
 1166              		.type	CAN_Send_Error, %function
 1167              	CAN_Send_Error:
 1168              	.LFB46:
 399:main.c        ****     data.byte[0u] = 0xffu;
 1169              		.loc 1 399 0
 1170              		.cfi_startproc
 1171              		@ args = 0, pretend = 0, frame = 0
 1172              		@ frame_needed = 0, uses_anonymous_args = 0
 1173              	.LVL81:
 1174 0000 10B5     		push	{r4, lr}
 1175              		.cfi_def_cfa_offset 8
 1176              		.cfi_offset 4, -8
 1177              		.cfi_offset 14, -4
 1178 0002 82B0     		sub	sp, sp, #8
 1179              		.cfi_def_cfa_offset 16
 400:main.c        ****     data.byte[1u] = code;
 1180              		.loc 1 400 0
 1181 0004 0E4B     		ldr	r3, .L76
 1182 0006 FF22     		movs	r2, #255
 1183 0008 1A70     		strb	r2, [r3]
 401:main.c        ****     data.byte[2u] = param;
 1184              		.loc 1 401 0
 1185 000a 5870     		strb	r0, [r3, #1]
 402:main.c        ****     data.byte[3u] = 0;
 1186              		.loc 1 402 0
 1187 000c 9970     		strb	r1, [r3, #2]
 403:main.c        ****     data.byte[4u] = 0;
 1188              		.loc 1 403 0
 1189 000e 0022     		movs	r2, #0
ARM GAS  C:\Users\austc\AppData\Local\Temp\ccPDHU8c.s 			page 33


 1190 0010 DA70     		strb	r2, [r3, #3]
 404:main.c        ****     CAN_SendMsg(&message);
 1191              		.loc 1 404 0
 1192 0012 1A71     		strb	r2, [r3, #4]
 405:main.c        ****     if(uart_debug == 2) {
 1193              		.loc 1 405 0
 1194 0014 0B48     		ldr	r0, .L76+4
 1195              	.LVL82:
 1196 0016 FFF7FEFF 		bl	CAN_SendMsg
 1197              	.LVL83:
 406:main.c        ****         sprintf(txData, "Error: byte[0u] %x byte[1u] %x byte[2u] %x\r\n",data.byte[0u],data.byte[1u
 1198              		.loc 1 406 0
 1199 001a 0B4B     		ldr	r3, .L76+8
 1200 001c 1B78     		ldrb	r3, [r3]
 1201 001e 022B     		cmp	r3, #2
 1202 0020 0CD1     		bne	.L74
 407:main.c        ****         UART_UartPutString(txData); 
 1203              		.loc 1 407 0
 1204 0022 0749     		ldr	r1, .L76
 1205 0024 0A78     		ldrb	r2, [r1]
 1206 0026 4B78     		ldrb	r3, [r1, #1]
 1207 0028 8978     		ldrb	r1, [r1, #2]
 1208 002a 084C     		ldr	r4, .L76+12
 1209 002c 0091     		str	r1, [sp]
 1210 002e 0849     		ldr	r1, .L76+16
 1211 0030 2000     		movs	r0, r4
 1212 0032 FFF7FEFF 		bl	sprintf
 1213              	.LVL84:
 408:main.c        ****     }
 1214              		.loc 1 408 0
 1215 0036 2000     		movs	r0, r4
 1216 0038 FFF7FEFF 		bl	UART_UartPutString
 1217              	.LVL85:
 1218              	.L74:
 410:main.c        **** 
 1219              		.loc 1 410 0
 1220 003c 02B0     		add	sp, sp, #8
 1221              		@ sp needed
 1222 003e 10BD     		pop	{r4, pc}
 1223              	.L77:
 1224              		.align	2
 1225              	.L76:
 1226 0040 00000000 		.word	data
 1227 0044 00000000 		.word	message
 1228 0048 00000000 		.word	.LANCHOR0
 1229 004c 00000000 		.word	txData
 1230 0050 74010000 		.word	.LC62
 1231              		.cfi_endproc
 1232              	.LFE46:
 1233              		.size	CAN_Send_Error, .-CAN_Send_Error
 1234              		.section	.text.set_data,"ax",%progbits
 1235              		.align	2
 1236              		.global	set_data
 1237              		.code	16
 1238              		.thumb_func
 1239              		.type	set_data, %function
 1240              	set_data:
ARM GAS  C:\Users\austc\AppData\Local\Temp\ccPDHU8c.s 			page 34


 1241              	.LFB48:
 444:main.c        ****         //set mode
 1242              		.loc 1 444 0
 1243              		.cfi_startproc
 1244              		@ args = 0, pretend = 0, frame = 0
 1245              		@ frame_needed = 0, uses_anonymous_args = 0
 1246              		@ link register save eliminated.
 1247              	.LVL86:
 446:main.c        ****             if(CAN_RX_DATA_BYTE2(addr) == 1 || CAN_RX_DATA_BYTE2(addr) == 0) {
 1248              		.loc 1 446 0
 1249 0000 4001     		lsls	r0, r0, #5
 1250              	.LVL87:
 1251 0002 254B     		ldr	r3, .L85
 1252 0004 9C46     		mov	ip, r3
 1253 0006 6044     		add	r0, r0, ip
 1254 0008 8368     		ldr	r3, [r0, #8]
 1255 000a 1B0E     		lsrs	r3, r3, #24
 1256 000c 13D1     		bne	.L79
 447:main.c        ****                 mode = CAN_RX_DATA_BYTE2(addr);
 1257              		.loc 1 447 0
 1258 000e 8368     		ldr	r3, [r0, #8]
 1259 0010 1B0C     		lsrs	r3, r3, #16
 1260 0012 FF22     		movs	r2, #255
 1261 0014 1340     		ands	r3, r2
 1262 0016 012B     		cmp	r3, #1
 1263 0018 03D0     		beq	.L80
 447:main.c        ****                 mode = CAN_RX_DATA_BYTE2(addr);
 1264              		.loc 1 447 0 is_stmt 0 discriminator 1
 1265 001a 8368     		ldr	r3, [r0, #8]
 1266 001c 1B0C     		lsrs	r3, r3, #16
 1267 001e 1A42     		tst	r2, r3
 1268 0020 04D1     		bne	.L81
 1269              	.L80:
 448:main.c        ****             }
 1270              		.loc 1 448 0 is_stmt 1
 1271 0022 8368     		ldr	r3, [r0, #8]
 1272 0024 1B0C     		lsrs	r3, r3, #16
 1273 0026 1D4A     		ldr	r2, .L85+4
 1274 0028 9372     		strb	r3, [r2, #10]
 1275 002a 34E0     		b	.L78
 1276              	.L81:
 451:main.c        ****                 invalid_arg.done = 0;
 1277              		.loc 1 451 0
 1278 002c 1C4B     		ldr	r3, .L85+8
 1279 002e 0022     		movs	r2, #0
 1280 0030 5A70     		strb	r2, [r3, #1]
 452:main.c        ****             }
 1281              		.loc 1 452 0
 1282 0032 9A70     		strb	r2, [r3, #2]
 1283 0034 2FE0     		b	.L78
 1284              	.L79:
 456:main.c        ****             Can_rx_pwm.b1 = CAN_RX_DATA_BYTE2(addr);
 1285              		.loc 1 456 0
 1286 0036 8368     		ldr	r3, [r0, #8]
 1287 0038 1B0E     		lsrs	r3, r3, #24
 1288 003a 022B     		cmp	r3, #2
 1289 003c 0ED1     		bne	.L83
ARM GAS  C:\Users\austc\AppData\Local\Temp\ccPDHU8c.s 			page 35


 457:main.c        ****             Can_rx_pwm.b2 = CAN_RX_DATA_BYTE3(addr);
 1290              		.loc 1 457 0
 1291 003e 8268     		ldr	r2, [r0, #8]
 1292 0040 120C     		lsrs	r2, r2, #16
 1293 0042 184B     		ldr	r3, .L85+12
 1294 0044 5A70     		strb	r2, [r3, #1]
 458:main.c        ****             Can_rx_pwm.b3 = CAN_RX_DATA_BYTE4(addr);
 1295              		.loc 1 458 0
 1296 0046 8268     		ldr	r2, [r0, #8]
 1297 0048 120A     		lsrs	r2, r2, #8
 1298 004a 9A70     		strb	r2, [r3, #2]
 459:main.c        ****             Can_rx_pwm.b4 = CAN_RX_DATA_BYTE5(addr);
 1299              		.loc 1 459 0
 1300 004c 8268     		ldr	r2, [r0, #8]
 1301 004e DA70     		strb	r2, [r3, #3]
 460:main.c        ****             Can_rx_pwm.done = 0;
 1302              		.loc 1 460 0
 1303 0050 C268     		ldr	r2, [r0, #12]
 1304 0052 120E     		lsrs	r2, r2, #24
 1305 0054 1A71     		strb	r2, [r3, #4]
 461:main.c        ****         } 
 1306              		.loc 1 461 0
 1307 0056 0022     		movs	r2, #0
 1308 0058 5A71     		strb	r2, [r3, #5]
 1309 005a 1CE0     		b	.L78
 1310              	.L83:
 464:main.c        ****             Can_rx_angle.b1 = CAN_RX_DATA_BYTE2(addr);
 1311              		.loc 1 464 0
 1312 005c 8368     		ldr	r3, [r0, #8]
 1313 005e 1B0E     		lsrs	r3, r3, #24
 1314 0060 042B     		cmp	r3, #4
 1315 0062 11D1     		bne	.L84
 465:main.c        ****             Can_rx_angle.b2 = CAN_RX_DATA_BYTE3(addr);
 1316              		.loc 1 465 0
 1317 0064 8268     		ldr	r2, [r0, #8]
 1318 0066 120C     		lsrs	r2, r2, #16
 1319 0068 0F4B     		ldr	r3, .L85+16
 1320 006a 5A70     		strb	r2, [r3, #1]
 466:main.c        ****             Can_rx_angle.b3 = CAN_RX_DATA_BYTE4(addr);
 1321              		.loc 1 466 0
 1322 006c 8268     		ldr	r2, [r0, #8]
 1323 006e 120A     		lsrs	r2, r2, #8
 1324 0070 9A70     		strb	r2, [r3, #2]
 467:main.c        ****             Can_rx_angle.b4 = CAN_RX_DATA_BYTE5(addr);
 1325              		.loc 1 467 0
 1326 0072 8268     		ldr	r2, [r0, #8]
 1327 0074 DA70     		strb	r2, [r3, #3]
 468:main.c        ****             Can_rx_angle.done = 0;
 1328              		.loc 1 468 0
 1329 0076 C268     		ldr	r2, [r0, #12]
 1330 0078 120E     		lsrs	r2, r2, #24
 1331 007a 1A71     		strb	r2, [r3, #4]
 469:main.c        ****             complete = 1;
 1332              		.loc 1 469 0
 1333 007c 0022     		movs	r2, #0
 1334 007e 5A71     		strb	r2, [r3, #5]
 470:main.c        ****         } 
ARM GAS  C:\Users\austc\AppData\Local\Temp\ccPDHU8c.s 			page 36


 1335              		.loc 1 470 0
 1336 0080 0132     		adds	r2, r2, #1
 1337 0082 0A4B     		ldr	r3, .L85+20
 1338 0084 1A70     		strb	r2, [r3]
 1339 0086 06E0     		b	.L78
 1340              	.L84:
 473:main.c        ****             model_req = 1;
 1341              		.loc 1 473 0
 1342 0088 8368     		ldr	r3, [r0, #8]
 1343 008a 1B0E     		lsrs	r3, r3, #24
 1344 008c 102B     		cmp	r3, #16
 1345 008e 02D1     		bne	.L78
 1346              		.loc 1 474 0
 1347 0090 0122     		movs	r2, #1
 1348 0092 064B     		ldr	r3, .L85+20
 1349 0094 5A70     		strb	r2, [r3, #1]
 1350              	.L78:
 475:main.c        ****         }
 476:main.c        **** }
 1351              		.loc 1 476 0
 1352              		@ sp needed
 1353 0096 7047     		bx	lr
 1354              	.L86:
 1355              		.align	2
 1356              	.L85:
 1357 0098 A0002F40 		.word	1076822176
 1358 009c 00000000 		.word	.LANCHOR0
 1359 00a0 00000000 		.word	invalid_arg
 1360 00a4 00000000 		.word	Can_rx_pwm
 1361 00a8 00000000 		.word	Can_rx_angle
 1362 00ac 00000000 		.word	.LANCHOR1
 1363              		.cfi_endproc
 1364              	.LFE48:
 1365              		.size	set_data, .-set_data
 1366              		.global	__aeabi_i2d
 1367              		.global	__aeabi_dmul
 1368              		.global	__aeabi_d2iz
 1369              		.section	.text.degrees_to_tick,"ax",%progbits
 1370              		.align	2
 1371              		.global	degrees_to_tick
 1372              		.code	16
 1373              		.thumb_func
 1374              		.type	degrees_to_tick, %function
 1375              	degrees_to_tick:
 1376              	.LFB50:
 477:main.c        **** 
 478:main.c        **** void set_Position(int degrees) {
 479:main.c        ****     if(uart_debug) {
 480:main.c        ****         sprintf(txData, "complete: %d\r\n",complete);
 481:main.c        ****         UART_UartPutString(txData);
 482:main.c        ****     }
 483:main.c        ****     while(!complete) {
 484:main.c        ****         int PWM = position_PID(degrees_to_tick(degrees));
 485:main.c        ****         if(uart_debug) {
 486:main.c        ****             sprintf(txData, "PWM: %d\r\n",PWM);
 487:main.c        ****             UART_UartPutString(txData);
 488:main.c        ****         }
ARM GAS  C:\Users\austc\AppData\Local\Temp\ccPDHU8c.s 			page 37


 489:main.c        ****         if(PWM > maxV){
 490:main.c        ****             set_PWM(maxV);   
 491:main.c        ****         } else if(PWM < -maxV) {
 492:main.c        ****             set_PWM(-maxV);
 493:main.c        ****         } else {
 494:main.c        ****             set_PWM(PWM);   
 495:main.c        ****         }
 496:main.c        ****     }
 497:main.c        **** }
 498:main.c        **** 
 499:main.c        **** int degrees_to_tick(int degrees){
 1377              		.loc 1 499 0
 1378              		.cfi_startproc
 1379              		@ args = 0, pretend = 0, frame = 0
 1380              		@ frame_needed = 0, uses_anonymous_args = 0
 1381              	.LVL88:
 1382 0000 70B5     		push	{r4, r5, r6, lr}
 1383              		.cfi_def_cfa_offset 16
 1384              		.cfi_offset 4, -16
 1385              		.cfi_offset 5, -12
 1386              		.cfi_offset 6, -8
 1387              		.cfi_offset 14, -4
 1388 0002 0500     		movs	r5, r0
 500:main.c        ****     int ticks = (int)((double)degrees * ratio);
 1389              		.loc 1 500 0
 1390 0004 FFF7FEFF 		bl	__aeabi_i2d
 1391              	.LVL89:
 1392 0008 0B4B     		ldr	r3, .L89
 1393 000a 1A68     		ldr	r2, [r3]
 1394 000c 5B68     		ldr	r3, [r3, #4]
 1395 000e FFF7FEFF 		bl	__aeabi_dmul
 1396              	.LVL90:
 1397 0012 FFF7FEFF 		bl	__aeabi_d2iz
 1398              	.LVL91:
 1399 0016 0400     		movs	r4, r0
 1400              	.LVL92:
 501:main.c        ****     if(uart_debug) {
 1401              		.loc 1 501 0
 1402 0018 084B     		ldr	r3, .L89+4
 1403 001a 1B78     		ldrb	r3, [r3]
 1404 001c 002B     		cmp	r3, #0
 1405 001e 09D0     		beq	.L88
 502:main.c        ****         sprintf(txData, "degree: %d ticks: %d\r\n", degrees, ticks);
 1406              		.loc 1 502 0
 1407 0020 074E     		ldr	r6, .L89+8
 1408 0022 0300     		movs	r3, r0
 1409 0024 2A00     		movs	r2, r5
 1410 0026 0749     		ldr	r1, .L89+12
 1411 0028 3000     		movs	r0, r6
 1412              	.LVL93:
 1413 002a FFF7FEFF 		bl	sprintf
 1414              	.LVL94:
 503:main.c        ****         UART_UartPutString(txData);
 1415              		.loc 1 503 0
 1416 002e 3000     		movs	r0, r6
 1417 0030 FFF7FEFF 		bl	UART_UartPutString
 1418              	.LVL95:
ARM GAS  C:\Users\austc\AppData\Local\Temp\ccPDHU8c.s 			page 38


 1419              	.L88:
 504:main.c        ****     }
 505:main.c        ****     return(ticks);
 506:main.c        **** }
 1420              		.loc 1 506 0
 1421 0034 2000     		movs	r0, r4
 1422              		@ sp needed
 1423              	.LVL96:
 1424              	.LVL97:
 1425 0036 70BD     		pop	{r4, r5, r6, pc}
 1426              	.L90:
 1427              		.align	2
 1428              	.L89:
 1429 0038 00000000 		.word	ratio
 1430 003c 00000000 		.word	.LANCHOR0
 1431 0040 00000000 		.word	txData
 1432 0044 A4010000 		.word	.LC72
 1433              		.cfi_endproc
 1434              	.LFE50:
 1435              		.size	degrees_to_tick, .-degrees_to_tick
 1436              		.section	.text.position_PID,"ax",%progbits
 1437              		.align	2
 1438              		.global	position_PID
 1439              		.code	16
 1440              		.thumb_func
 1441              		.type	position_PID, %function
 1442              	position_PID:
 1443              	.LFB51:
 507:main.c        **** 
 508:main.c        **** int position_PID(int target){
 1444              		.loc 1 508 0
 1445              		.cfi_startproc
 1446              		@ args = 0, pretend = 0, frame = 0
 1447              		@ frame_needed = 0, uses_anonymous_args = 0
 1448              	.LVL98:
 1449 0000 70B5     		push	{r4, r5, r6, lr}
 1450              		.cfi_def_cfa_offset 16
 1451              		.cfi_offset 4, -16
 1452              		.cfi_offset 5, -12
 1453              		.cfi_offset 6, -8
 1454              		.cfi_offset 14, -4
 1455 0002 82B0     		sub	sp, sp, #8
 1456              		.cfi_def_cfa_offset 24
 1457 0004 0400     		movs	r4, r0
 509:main.c        ****     int16 current =  QuadDec_GetCounter();
 1458              		.loc 1 509 0
 1459 0006 FFF7FEFF 		bl	QuadDec_GetCounter
 1460              	.LVL99:
 510:main.c        ****     int p = target - current;
 1461              		.loc 1 510 0
 1462 000a 241A     		subs	r4, r4, r0
 1463              	.LVL100:
 511:main.c        ****    /* if(p) {
 512:main.c        ****       complete =  1;
 513:main.c        ****     }*/
 514:main.c        ****     i = i + p;
 1464              		.loc 1 514 0
ARM GAS  C:\Users\austc\AppData\Local\Temp\ccPDHU8c.s 			page 39


 1465 000c 114A     		ldr	r2, .L93
 1466 000e 1369     		ldr	r3, [r2, #16]
 1467 0010 E318     		adds	r3, r4, r3
 1468 0012 1361     		str	r3, [r2, #16]
 515:main.c        ****     int d = p - lastp;
 1469              		.loc 1 515 0
 1470 0014 5169     		ldr	r1, [r2, #20]
 1471 0016 651A     		subs	r5, r4, r1
 1472              	.LVL101:
 516:main.c        ****     lastp = current;
 1473              		.loc 1 516 0
 1474 0018 5061     		str	r0, [r2, #20]
 517:main.c        ****     if(uart_debug) {
 1475              		.loc 1 517 0
 1476 001a 0F4A     		ldr	r2, .L93+4
 1477 001c 1278     		ldrb	r2, [r2]
 1478 001e 002A     		cmp	r2, #0
 1479 0020 0AD0     		beq	.L92
 518:main.c        ****         sprintf(txData, "p: %d, i: %d d %d current %d\r\n",p, i, d, current);
 1480              		.loc 1 518 0
 1481 0022 0E4E     		ldr	r6, .L93+8
 1482 0024 0190     		str	r0, [sp, #4]
 1483 0026 0095     		str	r5, [sp]
 1484 0028 2200     		movs	r2, r4
 1485 002a 0D49     		ldr	r1, .L93+12
 1486 002c 3000     		movs	r0, r6
 1487              	.LVL102:
 1488 002e FFF7FEFF 		bl	sprintf
 1489              	.LVL103:
 519:main.c        ****         UART_UartPutString(txData);
 1490              		.loc 1 519 0
 1491 0032 3000     		movs	r0, r6
 1492 0034 FFF7FEFF 		bl	UART_UartPutString
 1493              	.LVL104:
 1494              	.L92:
 520:main.c        ****     }
 521:main.c        ****     return (p*kp + i*ki + d*kd);
 1495              		.loc 1 521 0
 1496 0038 074A     		ldr	r2, .L93+4
 1497 003a 1369     		ldr	r3, [r2, #16]
 1498 003c 5C43     		muls	r4, r3
 1499              	.LVL105:
 1500 003e 054B     		ldr	r3, .L93
 1501 0040 5069     		ldr	r0, [r2, #20]
 1502 0042 1A69     		ldr	r2, [r3, #16]
 1503 0044 5043     		muls	r0, r2
 1504 0046 2018     		adds	r0, r4, r0
 1505 0048 9B69     		ldr	r3, [r3, #24]
 1506 004a 6B43     		muls	r3, r5
 1507 004c C018     		adds	r0, r0, r3
 522:main.c        **** }
 1508              		.loc 1 522 0
 1509 004e 02B0     		add	sp, sp, #8
 1510              		@ sp needed
 1511              	.LVL106:
 1512 0050 70BD     		pop	{r4, r5, r6, pc}
 1513              	.L94:
ARM GAS  C:\Users\austc\AppData\Local\Temp\ccPDHU8c.s 			page 40


 1514 0052 C046     		.align	2
 1515              	.L93:
 1516 0054 00000000 		.word	.LANCHOR1
 1517 0058 00000000 		.word	.LANCHOR0
 1518 005c 00000000 		.word	txData
 1519 0060 BC010000 		.word	.LC77
 1520              		.cfi_endproc
 1521              	.LFE51:
 1522              		.size	position_PID, .-position_PID
 1523              		.section	.text.set_Position,"ax",%progbits
 1524              		.align	2
 1525              		.global	set_Position
 1526              		.code	16
 1527              		.thumb_func
 1528              		.type	set_Position, %function
 1529              	set_Position:
 1530              	.LFB49:
 478:main.c        ****     if(uart_debug) {
 1531              		.loc 1 478 0
 1532              		.cfi_startproc
 1533              		@ args = 0, pretend = 0, frame = 0
 1534              		@ frame_needed = 0, uses_anonymous_args = 0
 1535              	.LVL107:
 1536 0000 70B5     		push	{r4, r5, r6, lr}
 1537              		.cfi_def_cfa_offset 16
 1538              		.cfi_offset 4, -16
 1539              		.cfi_offset 5, -12
 1540              		.cfi_offset 6, -8
 1541              		.cfi_offset 14, -4
 1542 0002 0500     		movs	r5, r0
 479:main.c        ****         sprintf(txData, "complete: %d\r\n",complete);
 1543              		.loc 1 479 0
 1544 0004 1B4B     		ldr	r3, .L103
 1545 0006 1B78     		ldrb	r3, [r3]
 1546 0008 002B     		cmp	r3, #0
 1547 000a 2DD0     		beq	.L97
 480:main.c        ****         UART_UartPutString(txData);
 1548              		.loc 1 480 0
 1549 000c 1A4B     		ldr	r3, .L103+4
 1550 000e 1A78     		ldrb	r2, [r3]
 1551 0010 1A4C     		ldr	r4, .L103+8
 1552 0012 1B49     		ldr	r1, .L103+12
 1553 0014 2000     		movs	r0, r4
 1554              	.LVL108:
 1555 0016 FFF7FEFF 		bl	sprintf
 1556              	.LVL109:
 481:main.c        ****     }
 1557              		.loc 1 481 0
 1558 001a 2000     		movs	r0, r4
 1559 001c FFF7FEFF 		bl	UART_UartPutString
 1560              	.LVL110:
 1561 0020 22E0     		b	.L97
 1562              	.L102:
 1563              	.LBB10:
 484:main.c        ****         if(uart_debug) {
 1564              		.loc 1 484 0
 1565 0022 2800     		movs	r0, r5
ARM GAS  C:\Users\austc\AppData\Local\Temp\ccPDHU8c.s 			page 41


 1566 0024 FFF7FEFF 		bl	degrees_to_tick
 1567              	.LVL111:
 1568 0028 FFF7FEFF 		bl	position_PID
 1569              	.LVL112:
 1570 002c 0400     		movs	r4, r0
 1571              	.LVL113:
 485:main.c        ****             sprintf(txData, "PWM: %d\r\n",PWM);
 1572              		.loc 1 485 0
 1573 002e 114B     		ldr	r3, .L103
 1574 0030 1B78     		ldrb	r3, [r3]
 1575 0032 002B     		cmp	r3, #0
 1576 0034 08D0     		beq	.L98
 486:main.c        ****             UART_UartPutString(txData);
 1577              		.loc 1 486 0
 1578 0036 114E     		ldr	r6, .L103+8
 1579 0038 0200     		movs	r2, r0
 1580 003a 1249     		ldr	r1, .L103+16
 1581 003c 3000     		movs	r0, r6
 1582              	.LVL114:
 1583 003e FFF7FEFF 		bl	sprintf
 1584              	.LVL115:
 487:main.c        ****         }
 1585              		.loc 1 487 0
 1586 0042 3000     		movs	r0, r6
 1587 0044 FFF7FEFF 		bl	UART_UartPutString
 1588              	.LVL116:
 1589              	.L98:
 489:main.c        ****             set_PWM(maxV);   
 1590              		.loc 1 489 0
 1591 0048 0B4B     		ldr	r3, .L103+4
 1592 004a 187F     		ldrb	r0, [r3, #28]
 1593 004c 8442     		cmp	r4, r0
 1594 004e 02DD     		ble	.L99
 490:main.c        ****         } else if(PWM < -maxV) {
 1595              		.loc 1 490 0
 1596 0050 FFF7FEFF 		bl	set_PWM
 1597              	.LVL117:
 1598 0054 08E0     		b	.L97
 1599              	.L99:
 491:main.c        ****             set_PWM(-maxV);
 1600              		.loc 1 491 0
 1601 0056 4042     		rsbs	r0, r0, #0
 1602 0058 8442     		cmp	r4, r0
 1603 005a 02DA     		bge	.L101
 492:main.c        ****         } else {
 1604              		.loc 1 492 0
 1605 005c FFF7FEFF 		bl	set_PWM
 1606              	.LVL118:
 1607 0060 02E0     		b	.L97
 1608              	.L101:
 494:main.c        ****         }
 1609              		.loc 1 494 0
 1610 0062 2000     		movs	r0, r4
 1611 0064 FFF7FEFF 		bl	set_PWM
 1612              	.LVL119:
 1613              	.L97:
 1614              	.LBE10:
ARM GAS  C:\Users\austc\AppData\Local\Temp\ccPDHU8c.s 			page 42


 483:main.c        ****         int PWM = position_PID(degrees_to_tick(degrees));
 1615              		.loc 1 483 0
 1616 0068 034B     		ldr	r3, .L103+4
 1617 006a 1B78     		ldrb	r3, [r3]
 1618 006c 002B     		cmp	r3, #0
 1619 006e D8D0     		beq	.L102
 497:main.c        **** 
 1620              		.loc 1 497 0
 1621              		@ sp needed
 1622              	.LVL120:
 1623 0070 70BD     		pop	{r4, r5, r6, pc}
 1624              	.L104:
 1625 0072 C046     		.align	2
 1626              	.L103:
 1627 0074 00000000 		.word	.LANCHOR0
 1628 0078 00000000 		.word	.LANCHOR1
 1629 007c 00000000 		.word	txData
 1630 0080 DC010000 		.word	.LC82
 1631 0084 EC010000 		.word	.LC85
 1632              		.cfi_endproc
 1633              	.LFE49:
 1634              		.size	set_Position, .-set_Position
 1635              		.section	.text.main,"ax",%progbits
 1636              		.align	2
 1637              		.global	main
 1638              		.code	16
 1639              		.thumb_func
 1640              		.type	main, %function
 1641              	main:
 1642              	.LFB37:
  97:main.c        ****     stall.code = 0x01;
 1643              		.loc 1 97 0
 1644              		.cfi_startproc
 1645              		@ args = 0, pretend = 0, frame = 0
 1646              		@ frame_needed = 0, uses_anonymous_args = 0
 1647 0000 10B5     		push	{r4, lr}
 1648              		.cfi_def_cfa_offset 8
 1649              		.cfi_offset 4, -8
 1650              		.cfi_offset 14, -4
 1651 0002 82B0     		sub	sp, sp, #8
 1652              		.cfi_def_cfa_offset 16
  98:main.c        ****     stall.done = 1;
 1653              		.loc 1 98 0
 1654 0004 7A4A     		ldr	r2, .L124
 1655 0006 0123     		movs	r3, #1
 1656 0008 1370     		strb	r3, [r2]
  99:main.c        ****     command_failed.code = 0x02;
 1657              		.loc 1 99 0
 1658 000a 9370     		strb	r3, [r2, #2]
 100:main.c        ****     command_failed.done = 1;
 1659              		.loc 1 100 0
 1660 000c 794A     		ldr	r2, .L124+4
 1661 000e 0221     		movs	r1, #2
 1662 0010 1170     		strb	r1, [r2]
 101:main.c        ****     invalid_arg.code = 0x03;
 1663              		.loc 1 101 0
 1664 0012 9370     		strb	r3, [r2, #2]
ARM GAS  C:\Users\austc\AppData\Local\Temp\ccPDHU8c.s 			page 43


 102:main.c        ****     invalid_arg.done = 1;
 1665              		.loc 1 102 0
 1666 0014 784A     		ldr	r2, .L124+8
 1667 0016 0131     		adds	r1, r1, #1
 1668 0018 1170     		strb	r1, [r2]
 103:main.c        ****     uint8 error;
 1669              		.loc 1 103 0
 1670 001a 9370     		strb	r3, [r2, #2]
 106:main.c        ****     message.ide = MESSAGE_IDE;
 1671              		.loc 1 106 0
 1672 001c 774A     		ldr	r2, .L124+12
 1673 001e 0231     		adds	r1, r1, #2
 1674 0020 9171     		strb	r1, [r2, #6]
 107:main.c        ****     message.irq = MESSAGE_IRQ;
 1675              		.loc 1 107 0
 1676 0022 0024     		movs	r4, #0
 1677 0024 5471     		strb	r4, [r2, #5]
 108:main.c        ****     message.msg = &data;
 1678              		.loc 1 108 0
 1679 0026 D471     		strb	r4, [r2, #7]
 109:main.c        ****     message.rtr = MESSAGE_RTR;
 1680              		.loc 1 109 0
 1681 0028 7549     		ldr	r1, .L124+16
 1682 002a D160     		str	r1, [r2, #12]
 110:main.c        ****     
 1683              		.loc 1 110 0
 1684 002c 1471     		strb	r4, [r2, #4]
 112:main.c        ****     Can_rx_angle.done = 1;
 1685              		.loc 1 112 0
 1686 002e 754A     		ldr	r2, .L124+20
 1687 0030 5371     		strb	r3, [r2, #5]
 113:main.c        **** 
 1688              		.loc 1 113 0
 1689 0032 754A     		ldr	r2, .L124+24
 1690 0034 5371     		strb	r3, [r2, #5]
 115:main.c        ****     initialize_can_addr();
 1691              		.loc 1 115 0
 1692 0036 FFF7FEFF 		bl	initialize
 1693              	.LVL121:
 116:main.c        ****     int up = 0;
 1694              		.loc 1 116 0
 1695 003a FFF7FEFF 		bl	initialize_can_addr
 1696              	.LVL122:
 118:main.c        ****     set_PWM(0);
 1697              		.loc 1 118 0
 1698 003e 734B     		ldr	r3, .L124+28
 1699 0040 1C60     		str	r4, [r3]
 119:main.c        ****     for(;;)
 1700              		.loc 1 119 0
 1701 0042 0020     		movs	r0, #0
 1702 0044 FFF7FEFF 		bl	set_PWM
 1703              	.LVL123:
 1704              	.L106:
 122:main.c        **** 
 1705              		.loc 1 122 0
 1706 0048 714B     		ldr	r3, .L124+32
 1707 004a 1B79     		ldrb	r3, [r3, #4]
ARM GAS  C:\Users\austc\AppData\Local\Temp\ccPDHU8c.s 			page 44


 1708 004c 002B     		cmp	r3, #0
 1709 004e FBD1     		bne	.L106
 125:main.c        ****             
 1710              		.loc 1 125 0
 1711 0050 6C4B     		ldr	r3, .L124+20
 1712 0052 5979     		ldrb	r1, [r3, #5]
 1713 0054 6C4B     		ldr	r3, .L124+24
 1714 0056 5A79     		ldrb	r2, [r3, #5]
 1715 0058 4B42     		rsbs	r3, r1, #0
 1716 005a 4B41     		adcs	r3, r3, r1
 1717 005c 5042     		rsbs	r0, r2, #0
 1718 005e 4241     		adcs	r2, r2, r0
 1719 0060 1343     		orrs	r3, r2
 1720 0062 6B4A     		ldr	r2, .L124+32
 1721 0064 5377     		strb	r3, [r2, #29]
 128:main.c        ****             {           
 1722              		.loc 1 128 0
 1723 0066 537F     		ldrb	r3, [r2, #29]
 1724 0068 002B     		cmp	r3, #0
 1725 006a 72D0     		beq	.L107
 131:main.c        ****                     if(mode == 0) {
 1726              		.loc 1 131 0
 1727 006c 0029     		cmp	r1, #0
 1728 006e 34D1     		bne	.L108
 132:main.c        ****                         if(uart_debug) {
 1729              		.loc 1 132 0
 1730 0070 684B     		ldr	r3, .L124+36
 1731 0072 9A7A     		ldrb	r2, [r3, #10]
 1732 0074 002A     		cmp	r2, #0
 1733 0076 1FD1     		bne	.L109
 133:main.c        ****                             sprintf(txData, "B1: %d, B2: %d done %x\r\n",Can_rx_pwm.b1, Can_rx_pwm.
 1734              		.loc 1 133 0
 1735 0078 1B78     		ldrb	r3, [r3]
 1736 007a 002B     		cmp	r3, #0
 1737 007c 0BD0     		beq	.L110
 134:main.c        ****                             UART_UartPutString(txData);
 1738              		.loc 1 134 0
 1739 007e 614B     		ldr	r3, .L124+20
 1740 0080 5A78     		ldrb	r2, [r3, #1]
 1741 0082 9B78     		ldrb	r3, [r3, #2]
 1742 0084 644C     		ldr	r4, .L124+40
 1743 0086 0091     		str	r1, [sp]
 1744 0088 6449     		ldr	r1, .L124+44
 1745 008a 2000     		movs	r0, r4
 1746 008c FFF7FEFF 		bl	sprintf
 1747              	.LVL124:
 135:main.c        ****                         }
 1748              		.loc 1 135 0
 1749 0090 2000     		movs	r0, r4
 1750 0092 FFF7FEFF 		bl	UART_UartPutString
 1751              	.LVL125:
 1752              	.L110:
 137:main.c        ****                         if(Can_rx_pwm.b2 & 0b01) {
 1753              		.loc 1 137 0
 1754 0096 5B4B     		ldr	r3, .L124+20
 1755 0098 0122     		movs	r2, #1
 1756 009a 5A71     		strb	r2, [r3, #5]
ARM GAS  C:\Users\austc\AppData\Local\Temp\ccPDHU8c.s 			page 45


 138:main.c        ****                             set_PWM((int)Can_rx_pwm.b1);
 1757              		.loc 1 138 0
 1758 009c 9B78     		ldrb	r3, [r3, #2]
 1759 009e DB07     		lsls	r3, r3, #31
 1760 00a0 04D5     		bpl	.L111
 139:main.c        ****                         }
 1761              		.loc 1 139 0
 1762 00a2 584B     		ldr	r3, .L124+20
 1763 00a4 5878     		ldrb	r0, [r3, #1]
 1764 00a6 FFF7FEFF 		bl	set_PWM
 1765              	.LVL126:
 1766 00aa 16E0     		b	.L108
 1767              	.L111:
 142:main.c        ****                         }
 1768              		.loc 1 142 0
 1769 00ac 554B     		ldr	r3, .L124+20
 1770 00ae 5878     		ldrb	r0, [r3, #1]
 1771 00b0 4042     		rsbs	r0, r0, #0
 1772 00b2 FFF7FEFF 		bl	set_PWM
 1773              	.LVL127:
 1774 00b6 10E0     		b	.L108
 1775              	.L109:
 145:main.c        ****                         command_failed.param = 0x02;
 1776              		.loc 1 145 0
 1777 00b8 4E4B     		ldr	r3, .L124+4
 1778 00ba 0021     		movs	r1, #0
 1779 00bc 9970     		strb	r1, [r3, #2]
 146:main.c        ****                         if(uart_debug) {
 1780              		.loc 1 146 0
 1781 00be 0231     		adds	r1, r1, #2
 1782 00c0 5970     		strb	r1, [r3, #1]
 147:main.c        ****                             sprintf(txData, "Mode is not set to 0, mode is %d\r\n",mode);
 1783              		.loc 1 147 0
 1784 00c2 544B     		ldr	r3, .L124+36
 1785 00c4 1B78     		ldrb	r3, [r3]
 1786 00c6 002B     		cmp	r3, #0
 1787 00c8 07D0     		beq	.L108
 148:main.c        ****                             UART_UartPutString(txData);
 1788              		.loc 1 148 0
 1789 00ca 534C     		ldr	r4, .L124+40
 1790 00cc 5449     		ldr	r1, .L124+48
 1791 00ce 2000     		movs	r0, r4
 1792 00d0 FFF7FEFF 		bl	sprintf
 1793              	.LVL128:
 149:main.c        ****                         }
 1794              		.loc 1 149 0
 1795 00d4 2000     		movs	r0, r4
 1796 00d6 FFF7FEFF 		bl	UART_UartPutString
 1797              	.LVL129:
 1798              	.L108:
 155:main.c        ****                     if(mode == 1){
 1799              		.loc 1 155 0
 1800 00da 4B4B     		ldr	r3, .L124+24
 1801 00dc 5B79     		ldrb	r3, [r3, #5]
 1802 00de 002B     		cmp	r3, #0
 1803 00e0 32D1     		bne	.L112
 156:main.c        ****                         if(uart_debug) {
ARM GAS  C:\Users\austc\AppData\Local\Temp\ccPDHU8c.s 			page 46


 1804              		.loc 1 156 0
 1805 00e2 4C4B     		ldr	r3, .L124+36
 1806 00e4 9A7A     		ldrb	r2, [r3, #10]
 1807 00e6 012A     		cmp	r2, #1
 1808 00e8 1DD1     		bne	.L113
 157:main.c        ****                             sprintf(txData, "B1: %d, B3: %d done %x\r\n",Can_rx_angle.b1, Can_rx_an
 1809              		.loc 1 157 0
 1810 00ea 1B78     		ldrb	r3, [r3]
 1811 00ec 002B     		cmp	r3, #0
 1812 00ee 0DD0     		beq	.L114
 158:main.c        ****                             UART_UartPutString(txData);
 1813              		.loc 1 158 0
 1814 00f0 454B     		ldr	r3, .L124+24
 1815 00f2 5A78     		ldrb	r2, [r3, #1]
 1816 00f4 DB78     		ldrb	r3, [r3, #3]
 1817 00f6 4349     		ldr	r1, .L124+20
 1818 00f8 4979     		ldrb	r1, [r1, #5]
 1819 00fa 474C     		ldr	r4, .L124+40
 1820 00fc 0091     		str	r1, [sp]
 1821 00fe 4949     		ldr	r1, .L124+52
 1822 0100 2000     		movs	r0, r4
 1823 0102 FFF7FEFF 		bl	sprintf
 1824              	.LVL130:
 159:main.c        ****                         }
 1825              		.loc 1 159 0
 1826 0106 2000     		movs	r0, r4
 1827 0108 FFF7FEFF 		bl	UART_UartPutString
 1828              	.LVL131:
 1829              	.L114:
 161:main.c        ****                         complete = 0;
 1830              		.loc 1 161 0
 1831 010c 3E4B     		ldr	r3, .L124+24
 1832 010e 0122     		movs	r2, #1
 1833 0110 5A71     		strb	r2, [r3, #5]
 162:main.c        ****                         maxV = Can_rx_angle.b3;
 1834              		.loc 1 162 0
 1835 0112 3F4A     		ldr	r2, .L124+32
 1836 0114 0021     		movs	r1, #0
 1837 0116 1170     		strb	r1, [r2]
 163:main.c        ****                         i = 0;
 1838              		.loc 1 163 0
 1839 0118 D878     		ldrb	r0, [r3, #3]
 1840 011a 1077     		strb	r0, [r2, #28]
 164:main.c        ****                         set_Position(Can_rx_angle.b1);
 1841              		.loc 1 164 0
 1842 011c 1161     		str	r1, [r2, #16]
 165:main.c        ****                     }
 1843              		.loc 1 165 0
 1844 011e 5878     		ldrb	r0, [r3, #1]
 1845 0120 FFF7FEFF 		bl	set_Position
 1846              	.LVL132:
 1847 0124 10E0     		b	.L112
 1848              	.L113:
 168:main.c        ****                         command_failed.param = 0x04;
 1849              		.loc 1 168 0
 1850 0126 334B     		ldr	r3, .L124+4
 1851 0128 0021     		movs	r1, #0
ARM GAS  C:\Users\austc\AppData\Local\Temp\ccPDHU8c.s 			page 47


 1852 012a 9970     		strb	r1, [r3, #2]
 169:main.c        ****                         if(uart_debug) {
 1853              		.loc 1 169 0
 1854 012c 0431     		adds	r1, r1, #4
 1855 012e 5970     		strb	r1, [r3, #1]
 170:main.c        ****                             sprintf(txData, "Mode is not set to 1, mode is %d\r\n", mode);
 1856              		.loc 1 170 0
 1857 0130 384B     		ldr	r3, .L124+36
 1858 0132 1B78     		ldrb	r3, [r3]
 1859 0134 002B     		cmp	r3, #0
 1860 0136 07D0     		beq	.L112
 171:main.c        ****                             UART_UartPutString(txData);
 1861              		.loc 1 171 0
 1862 0138 374C     		ldr	r4, .L124+40
 1863 013a 3B49     		ldr	r1, .L124+56
 1864 013c 2000     		movs	r0, r4
 1865 013e FFF7FEFF 		bl	sprintf
 1866              	.LVL133:
 172:main.c        ****                         }
 1867              		.loc 1 172 0
 1868 0142 2000     		movs	r0, r4
 1869 0144 FFF7FEFF 		bl	UART_UartPutString
 1870              	.LVL134:
 1871              	.L112:
 178:main.c        ****                     Can_rx_pwm.done = 1;
 1872              		.loc 1 178 0
 1873 0148 0123     		movs	r3, #1
 1874 014a 2F4A     		ldr	r2, .L124+24
 1875 014c 5371     		strb	r3, [r2, #5]
 179:main.c        ****                 }
 1876              		.loc 1 179 0
 1877 014e 2D4A     		ldr	r2, .L124+20
 1878 0150 5371     		strb	r3, [r2, #5]
 1879              	.L107:
 184:main.c        ****             
 1880              		.loc 1 184 0
 1881 0152 274B     		ldr	r3, .L124
 1882 0154 9978     		ldrb	r1, [r3, #2]
 1883 0156 284B     		ldr	r3, .L124+8
 1884 0158 9A78     		ldrb	r2, [r3, #2]
 1885 015a 4B42     		rsbs	r3, r1, #0
 1886 015c 4B41     		adcs	r3, r3, r1
 1887 015e 5042     		rsbs	r0, r2, #0
 1888 0160 4241     		adcs	r2, r2, r0
 1889 0162 1343     		orrs	r3, r2
 1890 0164 234A     		ldr	r2, .L124+4
 1891 0166 9278     		ldrb	r2, [r2, #2]
 1892 0168 5042     		rsbs	r0, r2, #0
 1893 016a 4241     		adcs	r2, r2, r0
 1894 016c D2B2     		uxtb	r2, r2
 1895              	.LVL135:
 187:main.c        ****                 if(!stall.done) {
 1896              		.loc 1 187 0
 1897 016e 002B     		cmp	r3, #0
 1898 0170 01D1     		bne	.L123
 1899 0172 002A     		cmp	r2, #0
 1900 0174 1ED0     		beq	.L115
ARM GAS  C:\Users\austc\AppData\Local\Temp\ccPDHU8c.s 			page 48


 1901              	.L123:
 188:main.c        ****                     CAN_Send_Error(stall.code, stall.param);
 1902              		.loc 1 188 0
 1903 0176 0029     		cmp	r1, #0
 1904 0178 06D1     		bne	.L117
 189:main.c        ****                     stall.done = 1;
 1905              		.loc 1 189 0
 1906 017a 1D4C     		ldr	r4, .L124
 1907 017c 6178     		ldrb	r1, [r4, #1]
 1908 017e 2078     		ldrb	r0, [r4]
 1909 0180 FFF7FEFF 		bl	CAN_Send_Error
 1910              	.LVL136:
 190:main.c        ****                 }
 1911              		.loc 1 190 0
 1912 0184 0123     		movs	r3, #1
 1913 0186 A370     		strb	r3, [r4, #2]
 1914              	.L117:
 192:main.c        ****                     CAN_Send_Error(invalid_arg.code, invalid_arg.param);
 1915              		.loc 1 192 0
 1916 0188 1B4B     		ldr	r3, .L124+8
 1917 018a 9B78     		ldrb	r3, [r3, #2]
 1918 018c 002B     		cmp	r3, #0
 1919 018e 06D1     		bne	.L118
 193:main.c        ****                     invalid_arg.done = 1;
 1920              		.loc 1 193 0
 1921 0190 194C     		ldr	r4, .L124+8
 1922 0192 6178     		ldrb	r1, [r4, #1]
 1923 0194 2078     		ldrb	r0, [r4]
 1924 0196 FFF7FEFF 		bl	CAN_Send_Error
 1925              	.LVL137:
 194:main.c        ****                 }
 1926              		.loc 1 194 0
 1927 019a 0123     		movs	r3, #1
 1928 019c A370     		strb	r3, [r4, #2]
 1929              	.L118:
 196:main.c        ****                     CAN_Send_Error(command_failed.code, command_failed.param);
 1930              		.loc 1 196 0
 1931 019e 154B     		ldr	r3, .L124+4
 1932 01a0 9B78     		ldrb	r3, [r3, #2]
 1933 01a2 002B     		cmp	r3, #0
 1934 01a4 06D1     		bne	.L115
 197:main.c        ****                     command_failed.done = 1;
 1935              		.loc 1 197 0
 1936 01a6 134C     		ldr	r4, .L124+4
 1937 01a8 6178     		ldrb	r1, [r4, #1]
 1938 01aa 2078     		ldrb	r0, [r4]
 1939 01ac FFF7FEFF 		bl	CAN_Send_Error
 1940              	.LVL138:
 198:main.c        ****                 }
 1941              		.loc 1 198 0
 1942 01b0 0123     		movs	r3, #1
 1943 01b2 A370     		strb	r3, [r4, #2]
 1944              	.L115:
 203:main.c        ****                 if(uart_debug) {
 1945              		.loc 1 203 0
 1946 01b4 174B     		ldr	r3, .L124+36
 1947 01b6 9B7B     		ldrb	r3, [r3, #14]
ARM GAS  C:\Users\austc\AppData\Local\Temp\ccPDHU8c.s 			page 49


 1948 01b8 002B     		cmp	r3, #0
 1949 01ba 0DD0     		beq	.L119
 204:main.c        ****                     sprintf(txData,"\nSending Data... \r\n");
 1950              		.loc 1 204 0
 1951 01bc 154B     		ldr	r3, .L124+36
 1952 01be 1B78     		ldrb	r3, [r3]
 1953 01c0 002B     		cmp	r3, #0
 1954 01c2 04D0     		beq	.L120
 205:main.c        ****                    // UART_UartPutString(txData);
 1955              		.loc 1 205 0
 1956 01c4 1422     		movs	r2, #20
 1957 01c6 1949     		ldr	r1, .L124+60
 1958 01c8 1348     		ldr	r0, .L124+40
 1959 01ca FFF7FEFF 		bl	memcpy
 1960              	.LVL139:
 1961              	.L120:
 208:main.c        ****                 send_data = 0;
 1962              		.loc 1 208 0
 1963 01ce FFF7FEFF 		bl	CAN_Send_Encoder
 1964              	.LVL140:
 209:main.c        ****             }
 1965              		.loc 1 209 0
 1966 01d2 0022     		movs	r2, #0
 1967 01d4 0F4B     		ldr	r3, .L124+36
 1968 01d6 9A73     		strb	r2, [r3, #14]
 1969              	.L119:
 213:main.c        ****                 CAN_Send_Model();
 1970              		.loc 1 213 0
 1971 01d8 0D4B     		ldr	r3, .L124+32
 1972 01da 5B78     		ldrb	r3, [r3, #1]
 1973 01dc 002B     		cmp	r3, #0
 1974 01de 00D1     		bne	.LCB1747
 1975 01e0 32E7     		b	.L106	@long jump
 1976              	.LCB1747:
 214:main.c        ****                 model_req = 0;
 1977              		.loc 1 214 0
 1978 01e2 FFF7FEFF 		bl	CAN_Send_Model
 1979              	.LVL141:
 215:main.c        ****             }
 1980              		.loc 1 215 0
 1981 01e6 0022     		movs	r2, #0
 1982 01e8 094B     		ldr	r3, .L124+32
 1983 01ea 5A70     		strb	r2, [r3, #1]
 1984 01ec 2CE7     		b	.L106
 1985              	.L125:
 1986 01ee C046     		.align	2
 1987              	.L124:
 1988 01f0 00000000 		.word	stall
 1989 01f4 00000000 		.word	command_failed
 1990 01f8 00000000 		.word	invalid_arg
 1991 01fc 00000000 		.word	message
 1992 0200 00000000 		.word	data
 1993 0204 00000000 		.word	Can_rx_pwm
 1994 0208 00000000 		.word	Can_rx_angle
 1995 020c 00000000 		.word	pwm_compare
 1996 0210 00000000 		.word	.LANCHOR1
 1997 0214 00000000 		.word	.LANCHOR0
ARM GAS  C:\Users\austc\AppData\Local\Temp\ccPDHU8c.s 			page 50


 1998 0218 00000000 		.word	txData
 1999 021c F8010000 		.word	.LC97
 2000 0220 14020000 		.word	.LC100
 2001 0224 38020000 		.word	.LC102
 2002 0228 54020000 		.word	.LC104
 2003 022c 78020000 		.word	.LC106
 2004              		.cfi_endproc
 2005              	.LFE37:
 2006              		.size	main, .-main
 2007              		.global	drive
 2008              		.comm	message,16,4
 2009              		.comm	data,8,4
 2010              		.comm	txData,100,4
 2011              		.global	emergency
 2012              		.global	mailbox
 2013              		.comm	invalid_arg,3,4
 2014              		.comm	command_failed,3,4
 2015              		.comm	stall,3,4
 2016              		.comm	Can_rx_angle,6,4
 2017              		.comm	Can_rx_pwm,6,4
 2018              		.global	disable_limit
 2019              		.global	model_req
 2020              		.global	send_data
 2021              		.global	mode
 2022              		.global	maxV
 2023              		.global	complete
 2024              		.comm	ratio,8,8
 2025              		.global	kd
 2026              		.global	ki
 2027              		.global	kp
 2028              		.global	lastp
 2029              		.global	i
 2030              		.global	invalidate
 2031              		.comm	pwm_compare,4,4
 2032              		.comm	GEAR_RATIO,4,4
 2033              		.global	uart_debug
 2034              		.comm	CAN_TIMEOUT,4,4
 2035              		.global	CAN_RX_MAILBOX_0
 2036              		.global	CAN_RX_MAILBOX_1
 2037              		.global	CAN_RX_MAILBOX_0_SHIFT
 2038              		.global	CAN_RX_MAILBOX_1_SHIFT
 2039              		.global	message_id
 2040              		.data
 2041              		.align	2
 2042              		.set	.LANCHOR0,. + 0
 2043              		.type	uart_debug, %object
 2044              		.size	uart_debug, 1
 2045              	uart_debug:
 2046 0000 02       		.byte	2
 2047 0001 000000   		.space	3
 2048              		.type	CAN_RX_MAILBOX_0_SHIFT, %object
 2049              		.size	CAN_RX_MAILBOX_0_SHIFT, 4
 2050              	CAN_RX_MAILBOX_0_SHIFT:
 2051 0004 80000000 		.word	128
 2052              		.type	CAN_RX_MAILBOX_0, %object
 2053              		.size	CAN_RX_MAILBOX_0, 2
 2054              	CAN_RX_MAILBOX_0:
ARM GAS  C:\Users\austc\AppData\Local\Temp\ccPDHU8c.s 			page 51


 2055 0008 0700     		.short	7
 2056              		.type	mode, %object
 2057              		.size	mode, 1
 2058              	mode:
 2059 000a 02       		.byte	2
 2060 000b 00       		.space	1
 2061              		.type	CAN_RX_MAILBOX_1_SHIFT, %object
 2062              		.size	CAN_RX_MAILBOX_1_SHIFT, 2
 2063              	CAN_RX_MAILBOX_1_SHIFT:
 2064 000c 0100     		.short	1
 2065              		.type	send_data, %object
 2066              		.size	send_data, 1
 2067              	send_data:
 2068 000e 01       		.byte	1
 2069 000f 00       		.space	1
 2070              		.type	kp, %object
 2071              		.size	kp, 4
 2072              	kp:
 2073 0010 01000000 		.word	1
 2074              		.type	ki, %object
 2075              		.size	ki, 4
 2076              	ki:
 2077 0014 01000000 		.word	1
 2078              		.section	.rodata.str1.4,"aMS",%progbits,1
 2079              		.align	2
 2080              	.LC1:
 2081 0000 0A204361 		.ascii	"\012 Can rx triggered\012\000"
 2081      6E207278 
 2081      20747269 
 2081      67676572 
 2081      65640A00 
 2082              	.LC3:
 2083 0014 50302072 		.ascii	"P0 recieved\012\000"
 2083      65636965 
 2083      7665640A 
 2083      00
 2084 0021 000000   		.space	3
 2085              	.LC9:
 2086 0024 50312072 		.ascii	"P1 recieved\012\012\000"
 2086      65636965 
 2086      7665640A 
 2086      0A00
 2087 0032 0000     		.space	2
 2088              	.LC16:
 2089 0034 43414E5F 		.ascii	"CAN_Start():  %u\015\012\000"
 2089      53746172 
 2089      7428293A 
 2089      20202575 
 2089      0D0A00
 2090 0047 00       		.space	1
 2091              	.LC25:
 2092 0048 43414E20 		.ascii	"CAN dip setting:  %x Message ID: %ld\015\012\000"
 2092      64697020 
 2092      73657474 
 2092      696E673A 
 2092      20202578 
 2093 006f 00       		.space	1
ARM GAS  C:\Users\austc\AppData\Local\Temp\ccPDHU8c.s 			page 52


 2094              	.LC28:
 2095 0070 43616E20 		.ascii	"Can shift: %d   P0Mailbox: %d P1Mailbox %d\015\012\000"
 2095      73686966 
 2095      743A2025 
 2095      64202020 
 2095      50304D61 
 2096 009d 000000   		.space	3
 2097              	.LC32:
 2098 00a0 50657269 		.ascii	"Period interupt triggerd %x\015\012\000"
 2098      6F642069 
 2098      6E746572 
 2098      75707420 
 2098      74726967 
 2099 00be 0000     		.space	2
 2100              	.LC38:
 2101 00c0 4C696D69 		.ascii	"Limit interupt triggerd\015\012\000"
 2101      7420696E 
 2101      74657275 
 2101      70742074 
 2101      72696767 
 2102 00da 0000     		.space	2
 2103              	.LC44:
 2104 00dc 43414E5F 		.ascii	"CAN_Send_Encoder: byte[0u] %x byte[1u] %x byte[2u] "
 2104      53656E64 
 2104      5F456E63 
 2104      6F646572 
 2104      3A206279 
 2105 010f 25780A20 		.ascii	"%x\012 QuadDec Count %d\015\012\000"
 2105      51756164 
 2105      44656320 
 2105      436F756E 
 2105      74202564 
 2106 0126 0000     		.space	2
 2107              	.LC50:
 2108 0128 54656C65 		.ascii	"Telemerty: byte[0u] %x byte[1u] %x\015\012\000"
 2108      6D657274 
 2108      793A2062 
 2108      7974655B 
 2108      30755D20 
 2109 014d 000000   		.space	3
 2110              	.LC56:
 2111 0150 4D6F6465 		.ascii	"Model: byte[0u] %x byte[1u] %x\015\012\000"
 2111      6C3A2062 
 2111      7974655B 
 2111      30755D20 
 2111      25782062 
 2112 0171 000000   		.space	3
 2113              	.LC62:
 2114 0174 4572726F 		.ascii	"Error: byte[0u] %x byte[1u] %x byte[2u] %x\015\012\000"
 2114      723A2062 
 2114      7974655B 
 2114      30755D20 
 2114      25782062 
 2115 01a1 000000   		.space	3
 2116              	.LC72:
 2117 01a4 64656772 		.ascii	"degree: %d ticks: %d\015\012\000"
 2117      65653A20 
ARM GAS  C:\Users\austc\AppData\Local\Temp\ccPDHU8c.s 			page 53


 2117      25642074 
 2117      69636B73 
 2117      3A202564 
 2118 01bb 00       		.space	1
 2119              	.LC77:
 2120 01bc 703A2025 		.ascii	"p: %d, i: %d d %d current %d\015\012\000"
 2120      642C2069 
 2120      3A202564 
 2120      20642025 
 2120      64206375 
 2121 01db 00       		.space	1
 2122              	.LC82:
 2123 01dc 636F6D70 		.ascii	"complete: %d\015\012\000"
 2123      6C657465 
 2123      3A202564 
 2123      0D0A00
 2124 01eb 00       		.space	1
 2125              	.LC85:
 2126 01ec 50574D3A 		.ascii	"PWM: %d\015\012\000"
 2126      2025640D 
 2126      0A00
 2127 01f6 0000     		.space	2
 2128              	.LC97:
 2129 01f8 42313A20 		.ascii	"B1: %d, B2: %d done %x\015\012\000"
 2129      25642C20 
 2129      42323A20 
 2129      25642064 
 2129      6F6E6520 
 2130 0211 000000   		.space	3
 2131              	.LC100:
 2132 0214 4D6F6465 		.ascii	"Mode is not set to 0, mode is %d\015\012\000"
 2132      20697320 
 2132      6E6F7420 
 2132      73657420 
 2132      746F2030 
 2133 0237 00       		.space	1
 2134              	.LC102:
 2135 0238 42313A20 		.ascii	"B1: %d, B3: %d done %x\015\012\000"
 2135      25642C20 
 2135      42333A20 
 2135      25642064 
 2135      6F6E6520 
 2136 0251 000000   		.space	3
 2137              	.LC104:
 2138 0254 4D6F6465 		.ascii	"Mode is not set to 1, mode is %d\015\012\000"
 2138      20697320 
 2138      6E6F7420 
 2138      73657420 
 2138      746F2031 
 2139 0277 00       		.space	1
 2140              	.LC106:
 2141 0278 0A53656E 		.ascii	"\012Sending Data... \015\012\000"
 2141      64696E67 
 2141      20446174 
 2141      612E2E2E 
 2141      200D0A00 
 2142              		.bss
ARM GAS  C:\Users\austc\AppData\Local\Temp\ccPDHU8c.s 			page 54


 2143              		.align	2
 2144              		.set	.LANCHOR1,. + 0
 2145              		.type	complete, %object
 2146              		.size	complete, 1
 2147              	complete:
 2148 0000 00       		.space	1
 2149              		.type	model_req, %object
 2150              		.size	model_req, 1
 2151              	model_req:
 2152 0001 00       		.space	1
 2153              		.type	CAN_RX_MAILBOX_1, %object
 2154              		.size	CAN_RX_MAILBOX_1, 2
 2155              	CAN_RX_MAILBOX_1:
 2156 0002 0000     		.space	2
 2157              		.type	emergency, %object
 2158              		.size	emergency, 1
 2159              	emergency:
 2160 0004 00       		.space	1
 2161 0005 000000   		.space	3
 2162              		.type	message_id, %object
 2163              		.size	message_id, 4
 2164              	message_id:
 2165 0008 00000000 		.space	4
 2166              		.type	disable_limit, %object
 2167              		.size	disable_limit, 1
 2168              	disable_limit:
 2169 000c 00       		.space	1
 2170              		.type	invalidate, %object
 2171              		.size	invalidate, 1
 2172              	invalidate:
 2173 000d 00       		.space	1
 2174 000e 0000     		.space	2
 2175              		.type	i, %object
 2176              		.size	i, 4
 2177              	i:
 2178 0010 00000000 		.space	4
 2179              		.type	lastp, %object
 2180              		.size	lastp, 4
 2181              	lastp:
 2182 0014 00000000 		.space	4
 2183              		.type	kd, %object
 2184              		.size	kd, 4
 2185              	kd:
 2186 0018 00000000 		.space	4
 2187              		.type	maxV, %object
 2188              		.size	maxV, 1
 2189              	maxV:
 2190 001c 00       		.space	1
 2191              		.type	drive, %object
 2192              		.size	drive, 1
 2193              	drive:
 2194 001d 00       		.space	1
 2195 001e 0000     		.space	2
 2196              		.type	mailbox, %object
 2197              		.size	mailbox, 4
 2198              	mailbox:
 2199 0020 00000000 		.space	4
ARM GAS  C:\Users\austc\AppData\Local\Temp\ccPDHU8c.s 			page 55


 2200              		.text
 2201              	.Letext0:
 2202              		.file 2 "Generated_Source\\PSoC4/cytypes.h"
 2203              		.file 3 "./cyapicallbacks.h"
 2204              		.file 4 "Generated_Source\\PSoC4/CAN.h"
 2205              		.file 5 "Generated_Source\\PSoC4/UART_SPI_UART.h"
 2206              		.file 6 "Generated_Source\\PSoC4/PWM_Motor.h"
 2207              		.file 7 "Generated_Source\\PSoC4/Status_Reg_Switches.h"
 2208              		.file 8 "Generated_Source\\PSoC4/Timer_1.h"
 2209              		.file 9 "Generated_Source\\PSoC4/QuadDec.h"
 2210              		.file 10 "Generated_Source\\PSoC4/CyLib.h"
 2211              		.file 11 "Generated_Source\\PSoC4/isr_Limit_1.h"
 2212              		.file 12 "Generated_Source\\PSoC4/isr_period.h"
 2213              		.file 13 "Generated_Source\\PSoC4/UART.h"
 2214              		.file 14 "c:\\program files (x86)\\cypress\\psoc creator\\4.2\\psoc creator\\import\\gnu\\arm\\5.4
 2215              		.file 15 "Generated_Source\\PSoC4/Can_addr.h"
 2216              		.file 16 "Generated_Source\\PSoC4/Pin_Direction.h"