ARM GAS  C:\Users\austc\AppData\Local\Temp\cchZ69nT.s 			page 1


   1              		.syntax unified
   2              		.cpu cortex-m0
   3              		.fpu softvfp
   4              		.eabi_attribute 20, 1
   5              		.eabi_attribute 21, 1
   6              		.eabi_attribute 23, 3
   7              		.eabi_attribute 24, 1
   8              		.eabi_attribute 25, 1
   9              		.eabi_attribute 26, 1
  10              		.eabi_attribute 30, 1
  11              		.eabi_attribute 34, 0
  12              		.eabi_attribute 18, 4
  13              		.thumb
  14              		.syntax unified
  15              		.file	"CAN_TX_RX_func.c"
  16              		.text
  17              	.Ltext0:
  18              		.cfi_sections	.debug_frame
  19              		.section	.text.CAN_SendMsg,"ax",%progbits
  20              		.align	2
  21              		.global	CAN_SendMsg
  22              		.code	16
  23              		.thumb_func
  24              		.type	CAN_SendMsg, %function
  25              	CAN_SendMsg:
  26              	.LFB1:
  27              		.file 1 "Generated_Source\\PSoC4\\CAN_TX_RX_func.c"
   1:Generated_Source\PSoC4/CAN_TX_RX_func.c **** /*******************************************************************************
   2:Generated_Source\PSoC4/CAN_TX_RX_func.c **** * File Name: CAN_TX_RX_func.c
   3:Generated_Source\PSoC4/CAN_TX_RX_func.c **** * Version 3.0
   4:Generated_Source\PSoC4/CAN_TX_RX_func.c **** *
   5:Generated_Source\PSoC4/CAN_TX_RX_func.c **** * Description:
   6:Generated_Source\PSoC4/CAN_TX_RX_func.c **** *  There are functions process "Full" Receive and Transmit mailboxes:
   7:Generated_Source\PSoC4/CAN_TX_RX_func.c **** *     - CAN_SendMsg0-7();
   8:Generated_Source\PSoC4/CAN_TX_RX_func.c **** *     - CAN_ReceiveMsg0-15();
   9:Generated_Source\PSoC4/CAN_TX_RX_func.c **** *  Transmission of message, and receive routine for "Basic" mailboxes:
  10:Generated_Source\PSoC4/CAN_TX_RX_func.c **** *     - CAN_SendMsg();
  11:Generated_Source\PSoC4/CAN_TX_RX_func.c **** *     - CAN_TxCancel();
  12:Generated_Source\PSoC4/CAN_TX_RX_func.c **** *     - CAN_ReceiveMsg();
  13:Generated_Source\PSoC4/CAN_TX_RX_func.c **** *
  14:Generated_Source\PSoC4/CAN_TX_RX_func.c **** *  Note:
  15:Generated_Source\PSoC4/CAN_TX_RX_func.c **** *   None
  16:Generated_Source\PSoC4/CAN_TX_RX_func.c **** *
  17:Generated_Source\PSoC4/CAN_TX_RX_func.c **** ********************************************************************************
  18:Generated_Source\PSoC4/CAN_TX_RX_func.c **** * Copyright 2008-2015, Cypress Semiconductor Corporation.  All rights reserved.
  19:Generated_Source\PSoC4/CAN_TX_RX_func.c **** * You may use this file only in accordance with the license, terms, conditions,
  20:Generated_Source\PSoC4/CAN_TX_RX_func.c **** * disclaimers, and limitations in the end user license agreement accompanying
  21:Generated_Source\PSoC4/CAN_TX_RX_func.c **** * the software package with which this file was provided.
  22:Generated_Source\PSoC4/CAN_TX_RX_func.c **** *******************************************************************************/
  23:Generated_Source\PSoC4/CAN_TX_RX_func.c **** 
  24:Generated_Source\PSoC4/CAN_TX_RX_func.c **** #include "CAN.h"
  25:Generated_Source\PSoC4/CAN_TX_RX_func.c **** #include "cyapicallbacks.h"
  26:Generated_Source\PSoC4/CAN_TX_RX_func.c **** 
  27:Generated_Source\PSoC4/CAN_TX_RX_func.c **** /* `#START TX_RX_FUNCTION` */
  28:Generated_Source\PSoC4/CAN_TX_RX_func.c **** 
  29:Generated_Source\PSoC4/CAN_TX_RX_func.c **** /* `#END` */
  30:Generated_Source\PSoC4/CAN_TX_RX_func.c **** 
ARM GAS  C:\Users\austc\AppData\Local\Temp\cchZ69nT.s 			page 2


  31:Generated_Source\PSoC4/CAN_TX_RX_func.c **** 
  32:Generated_Source\PSoC4/CAN_TX_RX_func.c **** /*******************************************************************************
  33:Generated_Source\PSoC4/CAN_TX_RX_func.c **** * FUNCTION NAME:   CAN_SendMsg
  34:Generated_Source\PSoC4/CAN_TX_RX_func.c **** ********************************************************************************
  35:Generated_Source\PSoC4/CAN_TX_RX_func.c **** *
  36:Generated_Source\PSoC4/CAN_TX_RX_func.c **** * Summary:
  37:Generated_Source\PSoC4/CAN_TX_RX_func.c **** *  This function is Send Message from one of Basic mailboxes. The function loops
  38:Generated_Source\PSoC4/CAN_TX_RX_func.c **** *  through the transmit message buffer designed as Basic CAN mailboxes for the
  39:Generated_Source\PSoC4/CAN_TX_RX_func.c **** *  first free available and sends from it. The number of retries is limited.
  40:Generated_Source\PSoC4/CAN_TX_RX_func.c **** *
  41:Generated_Source\PSoC4/CAN_TX_RX_func.c **** * Parameters:
  42:Generated_Source\PSoC4/CAN_TX_RX_func.c **** *  message: The pointer to a structure that contains all required data to send
  43:Generated_Source\PSoC4/CAN_TX_RX_func.c **** *           messages.
  44:Generated_Source\PSoC4/CAN_TX_RX_func.c **** *
  45:Generated_Source\PSoC4/CAN_TX_RX_func.c **** * Return:
  46:Generated_Source\PSoC4/CAN_TX_RX_func.c **** *  Indication if message has been sent.
  47:Generated_Source\PSoC4/CAN_TX_RX_func.c **** *   Define                             Description
  48:Generated_Source\PSoC4/CAN_TX_RX_func.c **** *    CYRET_SUCCESS                      The function passed successfully
  49:Generated_Source\PSoC4/CAN_TX_RX_func.c **** *    CAN_FAIL              The function failed
  50:Generated_Source\PSoC4/CAN_TX_RX_func.c **** *
  51:Generated_Source\PSoC4/CAN_TX_RX_func.c **** *******************************************************************************/
  52:Generated_Source\PSoC4/CAN_TX_RX_func.c **** uint8 CAN_SendMsg(const CAN_TX_MSG *message) 
  53:Generated_Source\PSoC4/CAN_TX_RX_func.c **** {
  28              		.loc 1 53 0
  29              		.cfi_startproc
  30              		@ args = 0, pretend = 0, frame = 0
  31              		@ frame_needed = 0, uses_anonymous_args = 0
  32              	.LVL0:
  33 0000 F8B5     		push	{r3, r4, r5, r6, r7, lr}
  34              		.cfi_def_cfa_offset 24
  35              		.cfi_offset 3, -24
  36              		.cfi_offset 4, -20
  37              		.cfi_offset 5, -16
  38              		.cfi_offset 6, -12
  39              		.cfi_offset 7, -8
  40              		.cfi_offset 14, -4
  41 0002 4F46     		mov	r7, r9
  42 0004 4646     		mov	r6, r8
  43 0006 C0B4     		push	{r6, r7}
  44              		.cfi_def_cfa_offset 32
  45              		.cfi_offset 8, -32
  46              		.cfi_offset 9, -28
  47 0008 0600     		movs	r6, r0
  48              	.LVL1:
  54:Generated_Source\PSoC4/CAN_TX_RX_func.c ****     uint8 i, j, shift;
  55:Generated_Source\PSoC4/CAN_TX_RX_func.c ****     uint8 retry = 0u;
  56:Generated_Source\PSoC4/CAN_TX_RX_func.c ****     uint8 result = CAN_FAIL;
  49              		.loc 1 56 0
  50 000a 0120     		movs	r0, #1
  51              	.LVL2:
  55:Generated_Source\PSoC4/CAN_TX_RX_func.c ****     uint8 result = CAN_FAIL;
  52              		.loc 1 55 0
  53 000c 0023     		movs	r3, #0
  54 000e 9846     		mov	r8, r3
  57:Generated_Source\PSoC4/CAN_TX_RX_func.c ****     uint32 regTemp;
  58:Generated_Source\PSoC4/CAN_TX_RX_func.c **** 
  59:Generated_Source\PSoC4/CAN_TX_RX_func.c ****     while (retry < CAN_RETRY_NUMBER)
ARM GAS  C:\Users\austc\AppData\Local\Temp\cchZ69nT.s 			page 3


  55              		.loc 1 59 0
  56 0010 93E0     		b	.L2
  57              	.LVL3:
  58              	.L18:
  60:Generated_Source\PSoC4/CAN_TX_RX_func.c ****     {
  61:Generated_Source\PSoC4/CAN_TX_RX_func.c ****         shift = 1u;    /* Start from first mailbox */
  62:Generated_Source\PSoC4/CAN_TX_RX_func.c ****         for (i = 0u; i < CAN_NUMBER_OF_TX_MAILBOXES; i++)
  63:Generated_Source\PSoC4/CAN_TX_RX_func.c ****         {
  64:Generated_Source\PSoC4/CAN_TX_RX_func.c ****             /* Find Basic TX mailboxes */
  65:Generated_Source\PSoC4/CAN_TX_RX_func.c ****             if ((CAN_TX_MAILBOX_TYPE & shift) == 0u)
  59              		.loc 1 65 0
  60 0012 AB07     		lsls	r3, r5, #30
  61 0014 7FD1     		bne	.L3
  66:Generated_Source\PSoC4/CAN_TX_RX_func.c ****             {
  67:Generated_Source\PSoC4/CAN_TX_RX_func.c ****                 /* Find free mailbox */
  68:Generated_Source\PSoC4/CAN_TX_RX_func.c ****                 #if (CY_PSOC3 || CY_PSOC5)
  69:Generated_Source\PSoC4/CAN_TX_RX_func.c ****                     if ((CAN_BUF_SR_REG.byte[2] & shift) == 0u)
  70:Generated_Source\PSoC4/CAN_TX_RX_func.c ****                 #else  /* CY_PSOC4 */
  71:Generated_Source\PSoC4/CAN_TX_RX_func.c ****                     if ((CAN_BUF_SR_REG &
  62              		.loc 1 71 0
  63 0016 4C4B     		ldr	r3, .L23
  64 0018 1B68     		ldr	r3, [r3]
  72:Generated_Source\PSoC4/CAN_TX_RX_func.c ****                         (uint32) ((uint32) shift << CAN_TWO_BYTE_OFFSET)) == 0u)
  65              		.loc 1 72 0
  66 001a 2A04     		lsls	r2, r5, #16
  71:Generated_Source\PSoC4/CAN_TX_RX_func.c ****                         (uint32) ((uint32) shift << CAN_TWO_BYTE_OFFSET)) == 0u)
  67              		.loc 1 71 0
  68 001c 1A42     		tst	r2, r3
  69 001e 7AD1     		bne	.L3
  70              	.LVL4:
  73:Generated_Source\PSoC4/CAN_TX_RX_func.c ****                 #endif /* CY_PSOC3 || CY_PSOC5 */
  74:Generated_Source\PSoC4/CAN_TX_RX_func.c ****                     {
  75:Generated_Source\PSoC4/CAN_TX_RX_func.c ****                         regTemp = 0u;
  76:Generated_Source\PSoC4/CAN_TX_RX_func.c **** 
  77:Generated_Source\PSoC4/CAN_TX_RX_func.c ****                         /* Set message parameters */
  78:Generated_Source\PSoC4/CAN_TX_RX_func.c ****                         if (message->rtr != CAN_STANDARD_MESSAGE)
  71              		.loc 1 78 0
  72 0020 3379     		ldrb	r3, [r6, #4]
  73 0022 002B     		cmp	r3, #0
  74 0024 01D1     		bne	.L21
  75:Generated_Source\PSoC4/CAN_TX_RX_func.c **** 
  75              		.loc 1 75 0
  76 0026 0027     		movs	r7, #0
  77 0028 01E0     		b	.L4
  78              	.L21:
  79:Generated_Source\PSoC4/CAN_TX_RX_func.c ****                         {
  80:Generated_Source\PSoC4/CAN_TX_RX_func.c ****                             regTemp = CAN_TX_RTR_MASK;    /* RTR message Enable */
  79              		.loc 1 80 0
  80 002a 8027     		movs	r7, #128
  81 002c BF03     		lsls	r7, r7, #14
  82              	.L4:
  83              	.LVL5:
  81:Generated_Source\PSoC4/CAN_TX_RX_func.c ****                         }
  82:Generated_Source\PSoC4/CAN_TX_RX_func.c **** 
  83:Generated_Source\PSoC4/CAN_TX_RX_func.c ****                         if (message->ide == CAN_STANDARD_MESSAGE)
  84              		.loc 1 83 0
  85 002e 7379     		ldrb	r3, [r6, #5]
ARM GAS  C:\Users\austc\AppData\Local\Temp\cchZ69nT.s 			page 4


  86 0030 002B     		cmp	r3, #0
  87 0032 07D1     		bne	.L5
  84:Generated_Source\PSoC4/CAN_TX_RX_func.c ****                         {
  85:Generated_Source\PSoC4/CAN_TX_RX_func.c ****                             CAN_SET_TX_ID_STANDARD_MSG(i, message->id);
  88              		.loc 1 85 0
  89 0034 2301     		lsls	r3, r4, #4
  90 0036 454A     		ldr	r2, .L23+4
  91 0038 9446     		mov	ip, r2
  92 003a 6344     		add	r3, r3, ip
  93 003c 3268     		ldr	r2, [r6]
  94 003e 5205     		lsls	r2, r2, #21
  95 0040 5A60     		str	r2, [r3, #4]
  96 0042 09E0     		b	.L6
  97              	.L5:
  86:Generated_Source\PSoC4/CAN_TX_RX_func.c ****                         }
  87:Generated_Source\PSoC4/CAN_TX_RX_func.c ****                         else
  88:Generated_Source\PSoC4/CAN_TX_RX_func.c ****                         {
  89:Generated_Source\PSoC4/CAN_TX_RX_func.c ****                             regTemp |= CAN_TX_IDE_MASK;
  98              		.loc 1 89 0
  99 0044 8023     		movs	r3, #128
 100 0046 5B03     		lsls	r3, r3, #13
 101 0048 1F43     		orrs	r7, r3
 102              	.LVL6:
  90:Generated_Source\PSoC4/CAN_TX_RX_func.c ****                             CAN_SET_TX_ID_EXTENDED_MSG(i, message->id);
 103              		.loc 1 90 0
 104 004a 2301     		lsls	r3, r4, #4
 105 004c 3F4A     		ldr	r2, .L23+4
 106 004e 9446     		mov	ip, r2
 107 0050 6344     		add	r3, r3, ip
 108 0052 3268     		ldr	r2, [r6]
 109 0054 D200     		lsls	r2, r2, #3
 110 0056 5A60     		str	r2, [r3, #4]
 111              	.L6:
  91:Generated_Source\PSoC4/CAN_TX_RX_func.c ****                         }
  92:Generated_Source\PSoC4/CAN_TX_RX_func.c **** 
  93:Generated_Source\PSoC4/CAN_TX_RX_func.c ****                         if (message->dlc < CAN_TX_DLC_MAX_VALUE)
 112              		.loc 1 93 0
 113 0058 B379     		ldrb	r3, [r6, #6]
 114 005a 072B     		cmp	r3, #7
 115 005c 03D8     		bhi	.L7
  94:Generated_Source\PSoC4/CAN_TX_RX_func.c ****                         {
  95:Generated_Source\PSoC4/CAN_TX_RX_func.c ****                             regTemp |= ((uint32) message->dlc) << CAN_TWO_BYTE_OFFSET;
 116              		.loc 1 95 0
 117 005e 1B04     		lsls	r3, r3, #16
 118 0060 1F43     		orrs	r7, r3
 119              	.LVL7:
 120 0062 B946     		mov	r9, r7
 121              	.LVL8:
 122 0064 03E0     		b	.L8
 123              	.L7:
  96:Generated_Source\PSoC4/CAN_TX_RX_func.c ****                         }
  97:Generated_Source\PSoC4/CAN_TX_RX_func.c ****                         else
  98:Generated_Source\PSoC4/CAN_TX_RX_func.c ****                         {
  99:Generated_Source\PSoC4/CAN_TX_RX_func.c ****                             regTemp |= CAN_TX_DLC_UPPER_VALUE;
 124              		.loc 1 99 0
 125 0066 8023     		movs	r3, #128
 126 0068 1B03     		lsls	r3, r3, #12
ARM GAS  C:\Users\austc\AppData\Local\Temp\cchZ69nT.s 			page 5


 127 006a 1F43     		orrs	r7, r3
 128              	.LVL9:
 129 006c B946     		mov	r9, r7
 130              	.LVL10:
 131              	.L8:
 100:Generated_Source\PSoC4/CAN_TX_RX_func.c ****                         }
 101:Generated_Source\PSoC4/CAN_TX_RX_func.c **** 
 102:Generated_Source\PSoC4/CAN_TX_RX_func.c ****                         if (message->irq != CAN_TRANSMIT_INT_DISABLE)
 132              		.loc 1 102 0
 133 006e F379     		ldrb	r3, [r6, #7]
 134 0070 002B     		cmp	r3, #0
 135 0072 03D0     		beq	.L9
 103:Generated_Source\PSoC4/CAN_TX_RX_func.c ****                         {
 104:Generated_Source\PSoC4/CAN_TX_RX_func.c ****                             regTemp |= CAN_TX_INT_ENABLE_MASK;    /* Transmit Interrupt Enable */
 136              		.loc 1 104 0
 137 0074 0423     		movs	r3, #4
 138 0076 4A46     		mov	r2, r9
 139 0078 1A43     		orrs	r2, r3
 140 007a 9146     		mov	r9, r2
 141              	.LVL11:
 142              	.L9:
 105:Generated_Source\PSoC4/CAN_TX_RX_func.c ****                         }
 106:Generated_Source\PSoC4/CAN_TX_RX_func.c **** 
 107:Generated_Source\PSoC4/CAN_TX_RX_func.c ****                         for (j = 0u; (j < message->dlc) && (j < CAN_TX_DLC_MAX_VALUE); j++)
 143              		.loc 1 107 0
 144 007c 0023     		movs	r3, #0
 145 007e 2AE0     		b	.L10
 146              	.LVL12:
 147              	.L14:
 108:Generated_Source\PSoC4/CAN_TX_RX_func.c ****                         {
 109:Generated_Source\PSoC4/CAN_TX_RX_func.c ****                             #if (CY_PSOC3 || CY_PSOC5)
 110:Generated_Source\PSoC4/CAN_TX_RX_func.c ****                                 CAN_TX_DATA_BYTE(i, j) = message->msg->byte[j];
 111:Generated_Source\PSoC4/CAN_TX_RX_func.c ****                             #else /* CY_PSOC4 */
 112:Generated_Source\PSoC4/CAN_TX_RX_func.c ****                                 CAN_TX_DATA_BYTE(i, j, message->msg->byte[j]);
 148              		.loc 1 112 0
 149 0080 032B     		cmp	r3, #3
 150 0082 13D9     		bls	.L11
 151              		.loc 1 112 0 is_stmt 0 discriminator 1
 152 0084 2001     		lsls	r0, r4, #4
 153 0086 324A     		ldr	r2, .L23+8
 154 0088 9446     		mov	ip, r2
 155 008a 6044     		add	r0, r0, ip
 156 008c 0268     		ldr	r2, [r0]
 157 008e 9446     		mov	ip, r2
 158 0090 5907     		lsls	r1, r3, #29
 159 0092 CA1A     		subs	r2, r1, r3
 160 0094 D100     		lsls	r1, r2, #3
 161 0096 3831     		adds	r1, r1, #56
 162 0098 FF22     		movs	r2, #255
 163 009a 8A40     		lsls	r2, r2, r1
 164 009c 6746     		mov	r7, ip
 165 009e 9743     		bics	r7, r2
 166 00a0 F268     		ldr	r2, [r6, #12]
 167 00a2 D25C     		ldrb	r2, [r2, r3]
 168 00a4 8A40     		lsls	r2, r2, r1
 169 00a6 3A43     		orrs	r2, r7
 170 00a8 0260     		str	r2, [r0]
ARM GAS  C:\Users\austc\AppData\Local\Temp\cchZ69nT.s 			page 6


 171 00aa 12E0     		b	.L12
 172              	.L11:
 173              		.loc 1 112 0 discriminator 2
 174 00ac 2001     		lsls	r0, r4, #4
 175 00ae 274A     		ldr	r2, .L23+4
 176 00b0 9446     		mov	ip, r2
 177 00b2 6044     		add	r0, r0, ip
 178 00b4 8268     		ldr	r2, [r0, #8]
 179 00b6 9446     		mov	ip, r2
 180 00b8 5907     		lsls	r1, r3, #29
 181 00ba CA1A     		subs	r2, r1, r3
 182 00bc D100     		lsls	r1, r2, #3
 183 00be 1831     		adds	r1, r1, #24
 184 00c0 FF22     		movs	r2, #255
 185 00c2 8A40     		lsls	r2, r2, r1
 186 00c4 6746     		mov	r7, ip
 187 00c6 9743     		bics	r7, r2
 188 00c8 F268     		ldr	r2, [r6, #12]
 189 00ca D25C     		ldrb	r2, [r2, r3]
 190 00cc 8A40     		lsls	r2, r2, r1
 191 00ce 3A43     		orrs	r2, r7
 192 00d0 8260     		str	r2, [r0, #8]
 193              	.L12:
 107:Generated_Source\PSoC4/CAN_TX_RX_func.c ****                         {
 194              		.loc 1 107 0 is_stmt 1 discriminator 2
 195 00d2 0133     		adds	r3, r3, #1
 196              	.LVL13:
 197 00d4 DBB2     		uxtb	r3, r3
 198              	.LVL14:
 199              	.L10:
 107:Generated_Source\PSoC4/CAN_TX_RX_func.c ****                         {
 200              		.loc 1 107 0 is_stmt 0 discriminator 1
 201 00d6 B279     		ldrb	r2, [r6, #6]
 202 00d8 9342     		cmp	r3, r2
 203 00da 01D2     		bcs	.L13
 107:Generated_Source\PSoC4/CAN_TX_RX_func.c ****                         {
 204              		.loc 1 107 0 discriminator 3
 205 00dc 072B     		cmp	r3, #7
 206 00de CFD9     		bls	.L14
 207              	.L13:
 113:Generated_Source\PSoC4/CAN_TX_RX_func.c ****                             #endif /* CY_PSOC3 || CY_PSOC5 */
 114:Generated_Source\PSoC4/CAN_TX_RX_func.c ****                         }
 115:Generated_Source\PSoC4/CAN_TX_RX_func.c **** 
 116:Generated_Source\PSoC4/CAN_TX_RX_func.c ****                         /* Disable isr */
 117:Generated_Source\PSoC4/CAN_TX_RX_func.c ****     CyIntDisable(CAN_ISR_NUMBER);
 208              		.loc 1 117 0 is_stmt 1
 209 00e0 1D20     		movs	r0, #29
 210 00e2 FFF7FEFF 		bl	CyIntDisable
 211              	.LVL15:
 118:Generated_Source\PSoC4/CAN_TX_RX_func.c **** 
 119:Generated_Source\PSoC4/CAN_TX_RX_func.c ****                         /* WPN[23] and WPN[3] set to 1 for write to CAN Control reg */
 120:Generated_Source\PSoC4/CAN_TX_RX_func.c ****                         CY_SET_REG32(CAN_TX_CMD_PTR(i), (regTemp | CAN_TX_WPN_SET));
 212              		.loc 1 120 0
 213 00e6 2301     		lsls	r3, r4, #4
 214 00e8 184A     		ldr	r2, .L23+4
 215 00ea 9446     		mov	ip, r2
 216 00ec 6344     		add	r3, r3, ip
ARM GAS  C:\Users\austc\AppData\Local\Temp\cchZ69nT.s 			page 7


 217 00ee 194A     		ldr	r2, .L23+12
 218 00f0 4F46     		mov	r7, r9
 219 00f2 1743     		orrs	r7, r2
 220 00f4 1F60     		str	r7, [r3]
 121:Generated_Source\PSoC4/CAN_TX_RX_func.c **** 
 122:Generated_Source\PSoC4/CAN_TX_RX_func.c ****                         #if (CY_PSOC3 || CY_PSOC5)
 123:Generated_Source\PSoC4/CAN_TX_RX_func.c ****                             CY_SET_REG32(CAN_TX_CMD_PTR(i), CAN_SEND_MESSAGE);
 124:Generated_Source\PSoC4/CAN_TX_RX_func.c ****                         #else /* CY_PSOC4 */
 125:Generated_Source\PSoC4/CAN_TX_RX_func.c ****                             if (message->sst != CAN_STANDARD_MESSAGE)
 221              		.loc 1 125 0
 222 00f6 327A     		ldrb	r2, [r6, #8]
 223 00f8 002A     		cmp	r2, #0
 224 00fa 04D0     		beq	.L15
 126:Generated_Source\PSoC4/CAN_TX_RX_func.c ****                             {
 127:Generated_Source\PSoC4/CAN_TX_RX_func.c ****                                 /* Single Shot Transmission */
 128:Generated_Source\PSoC4/CAN_TX_RX_func.c ****                                 CAN_TX_CMD_REG(i) |= CAN_SEND_MESSAGE |
 225              		.loc 1 128 0
 226 00fc 1968     		ldr	r1, [r3]
 227 00fe 0322     		movs	r2, #3
 228 0100 0A43     		orrs	r2, r1
 229 0102 1A60     		str	r2, [r3]
 230 0104 03E0     		b	.L16
 231              	.L15:
 129:Generated_Source\PSoC4/CAN_TX_RX_func.c ****                                 CAN_TX_ABORT_MASK;
 130:Generated_Source\PSoC4/CAN_TX_RX_func.c ****                             }
 131:Generated_Source\PSoC4/CAN_TX_RX_func.c ****                             else
 132:Generated_Source\PSoC4/CAN_TX_RX_func.c ****                             {
 133:Generated_Source\PSoC4/CAN_TX_RX_func.c ****                                 CAN_TX_CMD_REG(i) |= CAN_SEND_MESSAGE;
 232              		.loc 1 133 0
 233 0106 1968     		ldr	r1, [r3]
 234 0108 0122     		movs	r2, #1
 235 010a 0A43     		orrs	r2, r1
 236 010c 1A60     		str	r2, [r3]
 237              	.L16:
 134:Generated_Source\PSoC4/CAN_TX_RX_func.c ****                             }
 135:Generated_Source\PSoC4/CAN_TX_RX_func.c ****                         #endif /* CY_PSOC3 || CY_PSOC5 */
 136:Generated_Source\PSoC4/CAN_TX_RX_func.c **** 
 137:Generated_Source\PSoC4/CAN_TX_RX_func.c ****                         /* Enable isr */
 138:Generated_Source\PSoC4/CAN_TX_RX_func.c ****     CyIntEnable(CAN_ISR_NUMBER);
 238              		.loc 1 138 0
 239 010e 1D20     		movs	r0, #29
 240 0110 FFF7FEFF 		bl	CyIntEnable
 241              	.LVL16:
 139:Generated_Source\PSoC4/CAN_TX_RX_func.c **** 
 140:Generated_Source\PSoC4/CAN_TX_RX_func.c ****                         result = CYRET_SUCCESS;
 242              		.loc 1 140 0
 243 0114 0020     		movs	r0, #0
 244              	.LVL17:
 245              	.L3:
 141:Generated_Source\PSoC4/CAN_TX_RX_func.c ****                     }
 142:Generated_Source\PSoC4/CAN_TX_RX_func.c ****             }
 143:Generated_Source\PSoC4/CAN_TX_RX_func.c ****             shift <<= 1u;
 246              		.loc 1 143 0
 247 0116 6D00     		lsls	r5, r5, #1
 248              	.LVL18:
 249 0118 EDB2     		uxtb	r5, r5
 250              	.LVL19:
ARM GAS  C:\Users\austc\AppData\Local\Temp\cchZ69nT.s 			page 8


 144:Generated_Source\PSoC4/CAN_TX_RX_func.c ****             if (result == CYRET_SUCCESS)
 251              		.loc 1 144 0
 252 011a 0028     		cmp	r0, #0
 253 011c 07D0     		beq	.L17
  62:Generated_Source\PSoC4/CAN_TX_RX_func.c ****         {
 254              		.loc 1 62 0 discriminator 2
 255 011e 0134     		adds	r4, r4, #1
 256              	.LVL20:
 257 0120 E4B2     		uxtb	r4, r4
 258              	.LVL21:
 259 0122 01E0     		b	.L20
 260              	.LVL22:
 261              	.L22:
 262 0124 0125     		movs	r5, #1
 263 0126 0024     		movs	r4, #0
 264              	.L20:
 265              	.LVL23:
  62:Generated_Source\PSoC4/CAN_TX_RX_func.c ****         {
 266              		.loc 1 62 0 is_stmt 0 discriminator 1
 267 0128 072C     		cmp	r4, #7
 268 012a 00D8     		bhi	.LCB273
 269 012c 71E7     		b	.L18	@long jump
 270              	.LCB273:
 271              	.L17:
 145:Generated_Source\PSoC4/CAN_TX_RX_func.c ****             {
 146:Generated_Source\PSoC4/CAN_TX_RX_func.c ****                 break;
 147:Generated_Source\PSoC4/CAN_TX_RX_func.c ****             }
 148:Generated_Source\PSoC4/CAN_TX_RX_func.c ****         }
 149:Generated_Source\PSoC4/CAN_TX_RX_func.c ****         if (result == CYRET_SUCCESS)
 272              		.loc 1 149 0 is_stmt 1
 273 012e 0028     		cmp	r0, #0
 274 0130 06D0     		beq	.L19
 150:Generated_Source\PSoC4/CAN_TX_RX_func.c ****         {
 151:Generated_Source\PSoC4/CAN_TX_RX_func.c ****             break;
 152:Generated_Source\PSoC4/CAN_TX_RX_func.c ****         }
 153:Generated_Source\PSoC4/CAN_TX_RX_func.c ****         else
 154:Generated_Source\PSoC4/CAN_TX_RX_func.c ****         {
 155:Generated_Source\PSoC4/CAN_TX_RX_func.c ****             retry++;
 275              		.loc 1 155 0
 276 0132 4346     		mov	r3, r8
 277 0134 0133     		adds	r3, r3, #1
 278 0136 DBB2     		uxtb	r3, r3
 279 0138 9846     		mov	r8, r3
 280              	.LVL24:
 281              	.L2:
  59:Generated_Source\PSoC4/CAN_TX_RX_func.c ****     {
 282              		.loc 1 59 0
 283 013a 4346     		mov	r3, r8
 284 013c 022B     		cmp	r3, #2
 285 013e F1D9     		bls	.L22
 286              	.L19:
 156:Generated_Source\PSoC4/CAN_TX_RX_func.c ****         }
 157:Generated_Source\PSoC4/CAN_TX_RX_func.c ****     }
 158:Generated_Source\PSoC4/CAN_TX_RX_func.c **** 
 159:Generated_Source\PSoC4/CAN_TX_RX_func.c ****     return (result);
 160:Generated_Source\PSoC4/CAN_TX_RX_func.c **** }
 287              		.loc 1 160 0
ARM GAS  C:\Users\austc\AppData\Local\Temp\cchZ69nT.s 			page 9


 288              		@ sp needed
 289              	.LVL25:
 290              	.LVL26:
 291 0140 0CBC     		pop	{r2, r3}
 292 0142 9046     		mov	r8, r2
 293 0144 9946     		mov	r9, r3
 294 0146 F8BD     		pop	{r3, r4, r5, r6, r7, pc}
 295              	.L24:
 296              		.align	2
 297              	.L23:
 298 0148 08002F40 		.word	1076822024
 299 014c 20002F40 		.word	1076822048
 300 0150 2C002F40 		.word	1076822060
 301 0154 08008000 		.word	8388616
 302              		.cfi_endproc
 303              	.LFE1:
 304              		.size	CAN_SendMsg, .-CAN_SendMsg
 305              		.section	.text.CAN_TxCancel,"ax",%progbits
 306              		.align	2
 307              		.global	CAN_TxCancel
 308              		.code	16
 309              		.thumb_func
 310              		.type	CAN_TxCancel, %function
 311              	CAN_TxCancel:
 312              	.LFB2:
 161:Generated_Source\PSoC4/CAN_TX_RX_func.c **** 
 162:Generated_Source\PSoC4/CAN_TX_RX_func.c **** 
 163:Generated_Source\PSoC4/CAN_TX_RX_func.c **** /*******************************************************************************
 164:Generated_Source\PSoC4/CAN_TX_RX_func.c **** * FUNCTION NAME:   CAN_TxCancel
 165:Generated_Source\PSoC4/CAN_TX_RX_func.c **** ********************************************************************************
 166:Generated_Source\PSoC4/CAN_TX_RX_func.c **** *
 167:Generated_Source\PSoC4/CAN_TX_RX_func.c **** * Summary:
 168:Generated_Source\PSoC4/CAN_TX_RX_func.c **** *  This function cancels transmission of a message that has been queued to be
 169:Generated_Source\PSoC4/CAN_TX_RX_func.c **** *  transmitted. Values between 0 and 7 are valid.
 170:Generated_Source\PSoC4/CAN_TX_RX_func.c **** *
 171:Generated_Source\PSoC4/CAN_TX_RX_func.c **** * Parameters:
 172:Generated_Source\PSoC4/CAN_TX_RX_func.c **** *  bufferId: The mailbox number.
 173:Generated_Source\PSoC4/CAN_TX_RX_func.c **** *
 174:Generated_Source\PSoC4/CAN_TX_RX_func.c **** * Return:
 175:Generated_Source\PSoC4/CAN_TX_RX_func.c **** *  None.
 176:Generated_Source\PSoC4/CAN_TX_RX_func.c **** *
 177:Generated_Source\PSoC4/CAN_TX_RX_func.c **** *******************************************************************************/
 178:Generated_Source\PSoC4/CAN_TX_RX_func.c **** void CAN_TxCancel(uint8 bufferId) 
 179:Generated_Source\PSoC4/CAN_TX_RX_func.c **** {
 313              		.loc 1 179 0
 314              		.cfi_startproc
 315              		@ args = 0, pretend = 0, frame = 0
 316              		@ frame_needed = 0, uses_anonymous_args = 0
 317              		@ link register save eliminated.
 318              	.LVL27:
 180:Generated_Source\PSoC4/CAN_TX_RX_func.c ****     if (bufferId < CAN_NUMBER_OF_TX_MAILBOXES)
 319              		.loc 1 180 0
 320 0000 0728     		cmp	r0, #7
 321 0002 09D8     		bhi	.L25
 181:Generated_Source\PSoC4/CAN_TX_RX_func.c ****     {
 182:Generated_Source\PSoC4/CAN_TX_RX_func.c ****         CAN_TX_ABORT_MESSAGE(bufferId);
 322              		.loc 1 182 0
ARM GAS  C:\Users\austc\AppData\Local\Temp\cchZ69nT.s 			page 10


 323 0004 0001     		lsls	r0, r0, #4
 324              	.LVL28:
 325 0006 054B     		ldr	r3, .L27
 326 0008 9C46     		mov	ip, r3
 327 000a 6044     		add	r0, r0, ip
 328 000c 0368     		ldr	r3, [r0]
 329 000e 0322     		movs	r2, #3
 330 0010 9343     		bics	r3, r2
 331 0012 013A     		subs	r2, r2, #1
 332 0014 1343     		orrs	r3, r2
 333 0016 0360     		str	r3, [r0]
 334              	.L25:
 183:Generated_Source\PSoC4/CAN_TX_RX_func.c ****     }
 184:Generated_Source\PSoC4/CAN_TX_RX_func.c **** }
 335              		.loc 1 184 0
 336              		@ sp needed
 337 0018 7047     		bx	lr
 338              	.L28:
 339 001a C046     		.align	2
 340              	.L27:
 341 001c 20002F40 		.word	1076822048
 342              		.cfi_endproc
 343              	.LFE2:
 344              		.size	CAN_TxCancel, .-CAN_TxCancel
 345              		.section	.text.CAN_SendMsgswitchStatus,"ax",%progbits
 346              		.align	2
 347              		.global	CAN_SendMsgswitchStatus
 348              		.code	16
 349              		.thumb_func
 350              		.type	CAN_SendMsgswitchStatus, %function
 351              	CAN_SendMsgswitchStatus:
 352              	.LFB3:
 185:Generated_Source\PSoC4/CAN_TX_RX_func.c **** 
 186:Generated_Source\PSoC4/CAN_TX_RX_func.c **** 
 187:Generated_Source\PSoC4/CAN_TX_RX_func.c **** #if (CAN_TX0_FUNC_ENABLE)
 188:Generated_Source\PSoC4/CAN_TX_RX_func.c ****     /*******************************************************************************
 189:Generated_Source\PSoC4/CAN_TX_RX_func.c ****     * FUNCTION NAME:   CAN_SendMsgswitchStatus
 190:Generated_Source\PSoC4/CAN_TX_RX_func.c ****     ********************************************************************************
 191:Generated_Source\PSoC4/CAN_TX_RX_func.c ****     *
 192:Generated_Source\PSoC4/CAN_TX_RX_func.c ****     * Summary:
 193:Generated_Source\PSoC4/CAN_TX_RX_func.c ****     *  This function is the entry point to Transmit Message 0. The function checks
 194:Generated_Source\PSoC4/CAN_TX_RX_func.c ****     *  if mailbox 0 doesn't already have un-transmitted messages waiting for
 195:Generated_Source\PSoC4/CAN_TX_RX_func.c ****     *  arbitration. If not initiate transmission of the message.
 196:Generated_Source\PSoC4/CAN_TX_RX_func.c ****     *  Generated only for the Transmit mailbox designed as Full.
 197:Generated_Source\PSoC4/CAN_TX_RX_func.c ****     *
 198:Generated_Source\PSoC4/CAN_TX_RX_func.c ****     * Parameters:
 199:Generated_Source\PSoC4/CAN_TX_RX_func.c ****     *  None.
 200:Generated_Source\PSoC4/CAN_TX_RX_func.c ****     *
 201:Generated_Source\PSoC4/CAN_TX_RX_func.c ****     * Return:
 202:Generated_Source\PSoC4/CAN_TX_RX_func.c ****     *  Indication if Message has been sent.
 203:Generated_Source\PSoC4/CAN_TX_RX_func.c ****     *   Define                             Description
 204:Generated_Source\PSoC4/CAN_TX_RX_func.c ****     *    CYRET_SUCCESS                      The function passed successfully
 205:Generated_Source\PSoC4/CAN_TX_RX_func.c ****     *    CAN_FAIL              The function failed
 206:Generated_Source\PSoC4/CAN_TX_RX_func.c ****     *
 207:Generated_Source\PSoC4/CAN_TX_RX_func.c ****     *******************************************************************************/
 208:Generated_Source\PSoC4/CAN_TX_RX_func.c ****     uint8 CAN_SendMsgswitchStatus(void) 
 209:Generated_Source\PSoC4/CAN_TX_RX_func.c ****     {
ARM GAS  C:\Users\austc\AppData\Local\Temp\cchZ69nT.s 			page 11


 353              		.loc 1 209 0
 354              		.cfi_startproc
 355              		@ args = 0, pretend = 0, frame = 0
 356              		@ frame_needed = 0, uses_anonymous_args = 0
 357              		@ link register save eliminated.
 358              	.LVL29:
 210:Generated_Source\PSoC4/CAN_TX_RX_func.c ****         uint8 result = CYRET_SUCCESS;
 211:Generated_Source\PSoC4/CAN_TX_RX_func.c **** 
 212:Generated_Source\PSoC4/CAN_TX_RX_func.c ****         #if (CY_PSOC3 || CY_PSOC5)
 213:Generated_Source\PSoC4/CAN_TX_RX_func.c ****             if ((CAN_TX[0u].txcmd.byte[0u] & CAN_TX_REQUEST_PENDING) != 0u)
 214:Generated_Source\PSoC4/CAN_TX_RX_func.c ****         #else  /* CY_PSOC4 */
 215:Generated_Source\PSoC4/CAN_TX_RX_func.c ****             if ((CAN_TX_CMD_REG(0u) & CAN_TX_REQUEST_PENDING) != 0u)
 359              		.loc 1 215 0
 360 0000 064B     		ldr	r3, .L32
 361 0002 1B68     		ldr	r3, [r3]
 362 0004 DB07     		lsls	r3, r3, #31
 363 0006 06D4     		bmi	.L31
 216:Generated_Source\PSoC4/CAN_TX_RX_func.c ****         #endif /* CY_PSOC3 || CY_PSOC5 */
 217:Generated_Source\PSoC4/CAN_TX_RX_func.c ****             {
 218:Generated_Source\PSoC4/CAN_TX_RX_func.c ****                 result = CAN_FAIL;
 219:Generated_Source\PSoC4/CAN_TX_RX_func.c ****             }
 220:Generated_Source\PSoC4/CAN_TX_RX_func.c ****             else
 221:Generated_Source\PSoC4/CAN_TX_RX_func.c ****             {
 222:Generated_Source\PSoC4/CAN_TX_RX_func.c ****                 /* `#START MESSAGE_switchStatus_TRASMITTED` */
 223:Generated_Source\PSoC4/CAN_TX_RX_func.c **** 
 224:Generated_Source\PSoC4/CAN_TX_RX_func.c ****                 /* `#END` */
 225:Generated_Source\PSoC4/CAN_TX_RX_func.c **** 
 226:Generated_Source\PSoC4/CAN_TX_RX_func.c ****                 #ifdef CAN_SEND_MSG_switchStatus_CALLBACK
 227:Generated_Source\PSoC4/CAN_TX_RX_func.c ****                     CAN_SendMsg_switchStatus_Callback();
 228:Generated_Source\PSoC4/CAN_TX_RX_func.c ****                 #endif /* CAN_SEND_MSG_switchStatus_CALLBACK */
 229:Generated_Source\PSoC4/CAN_TX_RX_func.c **** 
 230:Generated_Source\PSoC4/CAN_TX_RX_func.c ****                 CY_SET_REG32(CAN_TX_CMD_PTR(0u),
 364              		.loc 1 230 0
 365 0008 044A     		ldr	r2, .L32
 366 000a 1168     		ldr	r1, [r2]
 367 000c 0123     		movs	r3, #1
 368 000e 0B43     		orrs	r3, r1
 369 0010 1360     		str	r3, [r2]
 210:Generated_Source\PSoC4/CAN_TX_RX_func.c ****         uint8 result = CYRET_SUCCESS;
 370              		.loc 1 210 0
 371 0012 0020     		movs	r0, #0
 372 0014 00E0     		b	.L30
 373              	.L31:
 218:Generated_Source\PSoC4/CAN_TX_RX_func.c ****             }
 374              		.loc 1 218 0
 375 0016 0120     		movs	r0, #1
 376              	.L30:
 377              	.LVL30:
 231:Generated_Source\PSoC4/CAN_TX_RX_func.c ****                 CY_GET_REG32(CAN_TX_CMD_PTR(0u)) | CAN_SEND_MESSAGE);
 232:Generated_Source\PSoC4/CAN_TX_RX_func.c ****             }
 233:Generated_Source\PSoC4/CAN_TX_RX_func.c **** 
 234:Generated_Source\PSoC4/CAN_TX_RX_func.c ****         return (result);
 235:Generated_Source\PSoC4/CAN_TX_RX_func.c ****     }
 378              		.loc 1 235 0
 379              		@ sp needed
 380 0018 7047     		bx	lr
 381              	.L33:
ARM GAS  C:\Users\austc\AppData\Local\Temp\cchZ69nT.s 			page 12


 382 001a C046     		.align	2
 383              	.L32:
 384 001c 20002F40 		.word	1076822048
 385              		.cfi_endproc
 386              	.LFE3:
 387              		.size	CAN_SendMsgswitchStatus, .-CAN_SendMsgswitchStatus
 388              		.section	.text.CAN_SendMsgADCdata,"ax",%progbits
 389              		.align	2
 390              		.global	CAN_SendMsgADCdata
 391              		.code	16
 392              		.thumb_func
 393              		.type	CAN_SendMsgADCdata, %function
 394              	CAN_SendMsgADCdata:
 395              	.LFB4:
 236:Generated_Source\PSoC4/CAN_TX_RX_func.c **** #endif /* CAN_TX0_FUNC_ENABLE */
 237:Generated_Source\PSoC4/CAN_TX_RX_func.c **** 
 238:Generated_Source\PSoC4/CAN_TX_RX_func.c **** 
 239:Generated_Source\PSoC4/CAN_TX_RX_func.c **** #if (CAN_TX1_FUNC_ENABLE)
 240:Generated_Source\PSoC4/CAN_TX_RX_func.c ****     /*******************************************************************************
 241:Generated_Source\PSoC4/CAN_TX_RX_func.c ****     * FUNCTION NAME:   CAN_SendMsgADCdata
 242:Generated_Source\PSoC4/CAN_TX_RX_func.c ****     ********************************************************************************
 243:Generated_Source\PSoC4/CAN_TX_RX_func.c ****     *
 244:Generated_Source\PSoC4/CAN_TX_RX_func.c ****     * Summary:
 245:Generated_Source\PSoC4/CAN_TX_RX_func.c ****     *  This function is the entry point to Transmit Message 1. The function checks
 246:Generated_Source\PSoC4/CAN_TX_RX_func.c ****     *  if mailbox 1 doesn't already have un-transmitted messages waiting for
 247:Generated_Source\PSoC4/CAN_TX_RX_func.c ****     *  arbitration. If not initiate transmission of the message.
 248:Generated_Source\PSoC4/CAN_TX_RX_func.c ****     *  Generated only for the Transmit mailbox designed as Full.
 249:Generated_Source\PSoC4/CAN_TX_RX_func.c ****     *
 250:Generated_Source\PSoC4/CAN_TX_RX_func.c ****     * Parameters:
 251:Generated_Source\PSoC4/CAN_TX_RX_func.c ****     *  None.
 252:Generated_Source\PSoC4/CAN_TX_RX_func.c ****     *
 253:Generated_Source\PSoC4/CAN_TX_RX_func.c ****     * Return:
 254:Generated_Source\PSoC4/CAN_TX_RX_func.c ****     *  Indication if Message has been sent.
 255:Generated_Source\PSoC4/CAN_TX_RX_func.c ****     *   Define                             Description
 256:Generated_Source\PSoC4/CAN_TX_RX_func.c ****     *    CYRET_SUCCESS                      The function passed successfully
 257:Generated_Source\PSoC4/CAN_TX_RX_func.c ****     *    CAN_FAIL              The function failed
 258:Generated_Source\PSoC4/CAN_TX_RX_func.c ****     *
 259:Generated_Source\PSoC4/CAN_TX_RX_func.c ****     *******************************************************************************/
 260:Generated_Source\PSoC4/CAN_TX_RX_func.c ****     uint8 CAN_SendMsgADCdata(void) 
 261:Generated_Source\PSoC4/CAN_TX_RX_func.c ****     {
 396              		.loc 1 261 0
 397              		.cfi_startproc
 398              		@ args = 0, pretend = 0, frame = 0
 399              		@ frame_needed = 0, uses_anonymous_args = 0
 400              		@ link register save eliminated.
 401              	.LVL31:
 262:Generated_Source\PSoC4/CAN_TX_RX_func.c ****         uint8 result = CYRET_SUCCESS;
 263:Generated_Source\PSoC4/CAN_TX_RX_func.c **** 
 264:Generated_Source\PSoC4/CAN_TX_RX_func.c ****         #if (CY_PSOC3 || CY_PSOC5)
 265:Generated_Source\PSoC4/CAN_TX_RX_func.c ****             if ((CAN_TX[1u].txcmd.byte[0u] & CAN_TX_REQUEST_PENDING) != 0u)
 266:Generated_Source\PSoC4/CAN_TX_RX_func.c ****         #else  /* CY_PSOC4 */
 267:Generated_Source\PSoC4/CAN_TX_RX_func.c ****             if ((CAN_TX_CMD_REG(1u) & CAN_TX_REQUEST_PENDING) != 0u)
 402              		.loc 1 267 0
 403 0000 064B     		ldr	r3, .L37
 404 0002 1B68     		ldr	r3, [r3]
 405 0004 DB07     		lsls	r3, r3, #31
 406 0006 06D4     		bmi	.L36
ARM GAS  C:\Users\austc\AppData\Local\Temp\cchZ69nT.s 			page 13


 268:Generated_Source\PSoC4/CAN_TX_RX_func.c ****         #endif /* CY_PSOC3 || CY_PSOC5 */
 269:Generated_Source\PSoC4/CAN_TX_RX_func.c ****             {
 270:Generated_Source\PSoC4/CAN_TX_RX_func.c ****                 result = CAN_FAIL;
 271:Generated_Source\PSoC4/CAN_TX_RX_func.c ****             }
 272:Generated_Source\PSoC4/CAN_TX_RX_func.c ****             else
 273:Generated_Source\PSoC4/CAN_TX_RX_func.c ****             {
 274:Generated_Source\PSoC4/CAN_TX_RX_func.c ****                 /* `#START MESSAGE_ADCdata_TRASMITTED` */
 275:Generated_Source\PSoC4/CAN_TX_RX_func.c **** 
 276:Generated_Source\PSoC4/CAN_TX_RX_func.c ****                 /* `#END` */
 277:Generated_Source\PSoC4/CAN_TX_RX_func.c **** 
 278:Generated_Source\PSoC4/CAN_TX_RX_func.c ****                 #ifdef CAN_SEND_MSG_ADCdata_CALLBACK
 279:Generated_Source\PSoC4/CAN_TX_RX_func.c ****                     CAN_SendMsg_ADCdata_Callback();
 280:Generated_Source\PSoC4/CAN_TX_RX_func.c ****                 #endif /* CAN_SEND_MSG_ADCdata_CALLBACK */
 281:Generated_Source\PSoC4/CAN_TX_RX_func.c **** 
 282:Generated_Source\PSoC4/CAN_TX_RX_func.c ****                 CY_SET_REG32(CAN_TX_CMD_PTR(1u),
 407              		.loc 1 282 0
 408 0008 044A     		ldr	r2, .L37
 409 000a 1168     		ldr	r1, [r2]
 410 000c 0123     		movs	r3, #1
 411 000e 0B43     		orrs	r3, r1
 412 0010 1360     		str	r3, [r2]
 262:Generated_Source\PSoC4/CAN_TX_RX_func.c ****         uint8 result = CYRET_SUCCESS;
 413              		.loc 1 262 0
 414 0012 0020     		movs	r0, #0
 415 0014 00E0     		b	.L35
 416              	.L36:
 270:Generated_Source\PSoC4/CAN_TX_RX_func.c ****             }
 417              		.loc 1 270 0
 418 0016 0120     		movs	r0, #1
 419              	.L35:
 420              	.LVL32:
 283:Generated_Source\PSoC4/CAN_TX_RX_func.c ****                 CY_GET_REG32(CAN_TX_CMD_PTR(1u)) | CAN_SEND_MESSAGE);
 284:Generated_Source\PSoC4/CAN_TX_RX_func.c ****             }
 285:Generated_Source\PSoC4/CAN_TX_RX_func.c **** 
 286:Generated_Source\PSoC4/CAN_TX_RX_func.c ****         return (result);
 287:Generated_Source\PSoC4/CAN_TX_RX_func.c ****     }
 421              		.loc 1 287 0
 422              		@ sp needed
 423 0018 7047     		bx	lr
 424              	.L38:
 425 001a C046     		.align	2
 426              	.L37:
 427 001c 30002F40 		.word	1076822064
 428              		.cfi_endproc
 429              	.LFE4:
 430              		.size	CAN_SendMsgADCdata, .-CAN_SendMsgADCdata
 431              		.section	.text.CAN_ReceiveMsg,"ax",%progbits
 432              		.align	2
 433              		.global	CAN_ReceiveMsg
 434              		.code	16
 435              		.thumb_func
 436              		.type	CAN_ReceiveMsg, %function
 437              	CAN_ReceiveMsg:
 438              	.LFB5:
 288:Generated_Source\PSoC4/CAN_TX_RX_func.c **** #endif /* CAN_TX1_FUNC_ENABLE */
 289:Generated_Source\PSoC4/CAN_TX_RX_func.c **** 
 290:Generated_Source\PSoC4/CAN_TX_RX_func.c **** 
ARM GAS  C:\Users\austc\AppData\Local\Temp\cchZ69nT.s 			page 14


 291:Generated_Source\PSoC4/CAN_TX_RX_func.c **** #if (CAN_TX2_FUNC_ENABLE)
 292:Generated_Source\PSoC4/CAN_TX_RX_func.c ****     /*******************************************************************************
 293:Generated_Source\PSoC4/CAN_TX_RX_func.c ****     * FUNCTION NAME:   CAN_SendMsg2
 294:Generated_Source\PSoC4/CAN_TX_RX_func.c ****     ********************************************************************************
 295:Generated_Source\PSoC4/CAN_TX_RX_func.c ****     *
 296:Generated_Source\PSoC4/CAN_TX_RX_func.c ****     * Summary:
 297:Generated_Source\PSoC4/CAN_TX_RX_func.c ****     *  This function is the entry point to Transmit Message 2. The function checks
 298:Generated_Source\PSoC4/CAN_TX_RX_func.c ****     *  if mailbox 2 doesn't already have un-transmitted messages waiting for
 299:Generated_Source\PSoC4/CAN_TX_RX_func.c ****     *  arbitration. If not initiate transmission of the message.
 300:Generated_Source\PSoC4/CAN_TX_RX_func.c ****     *  Generated only for the Transmit mailbox designed as Full.
 301:Generated_Source\PSoC4/CAN_TX_RX_func.c ****     *
 302:Generated_Source\PSoC4/CAN_TX_RX_func.c ****     * Parameters:
 303:Generated_Source\PSoC4/CAN_TX_RX_func.c ****     *  None.
 304:Generated_Source\PSoC4/CAN_TX_RX_func.c ****     *
 305:Generated_Source\PSoC4/CAN_TX_RX_func.c ****     * Return:
 306:Generated_Source\PSoC4/CAN_TX_RX_func.c ****     *  Indication if Message has been sent.
 307:Generated_Source\PSoC4/CAN_TX_RX_func.c ****     *   Define                             Description
 308:Generated_Source\PSoC4/CAN_TX_RX_func.c ****     *    CYRET_SUCCESS                      The function passed successfully
 309:Generated_Source\PSoC4/CAN_TX_RX_func.c ****     *    CAN_FAIL              The function failed
 310:Generated_Source\PSoC4/CAN_TX_RX_func.c ****     *
 311:Generated_Source\PSoC4/CAN_TX_RX_func.c ****     *******************************************************************************/
 312:Generated_Source\PSoC4/CAN_TX_RX_func.c ****     uint8 CAN_SendMsg2(void) 
 313:Generated_Source\PSoC4/CAN_TX_RX_func.c ****     {
 314:Generated_Source\PSoC4/CAN_TX_RX_func.c ****         uint8 result = CYRET_SUCCESS;
 315:Generated_Source\PSoC4/CAN_TX_RX_func.c **** 
 316:Generated_Source\PSoC4/CAN_TX_RX_func.c ****         #if (CY_PSOC3 || CY_PSOC5)
 317:Generated_Source\PSoC4/CAN_TX_RX_func.c ****             if ((CAN_TX[2u].txcmd.byte[0u] & CAN_TX_REQUEST_PENDING) != 0u)
 318:Generated_Source\PSoC4/CAN_TX_RX_func.c ****         #else  /* CY_PSOC4 */
 319:Generated_Source\PSoC4/CAN_TX_RX_func.c ****             if ((CAN_TX_CMD_REG(2u) & CAN_TX_REQUEST_PENDING) != 0u)
 320:Generated_Source\PSoC4/CAN_TX_RX_func.c ****         #endif /* CY_PSOC3 || CY_PSOC5 */
 321:Generated_Source\PSoC4/CAN_TX_RX_func.c ****             {
 322:Generated_Source\PSoC4/CAN_TX_RX_func.c ****                 result = CAN_FAIL;
 323:Generated_Source\PSoC4/CAN_TX_RX_func.c ****             }
 324:Generated_Source\PSoC4/CAN_TX_RX_func.c ****             else
 325:Generated_Source\PSoC4/CAN_TX_RX_func.c ****             {
 326:Generated_Source\PSoC4/CAN_TX_RX_func.c ****                 /* `#START MESSAGE_2_TRASMITTED` */
 327:Generated_Source\PSoC4/CAN_TX_RX_func.c **** 
 328:Generated_Source\PSoC4/CAN_TX_RX_func.c ****                 /* `#END` */
 329:Generated_Source\PSoC4/CAN_TX_RX_func.c **** 
 330:Generated_Source\PSoC4/CAN_TX_RX_func.c ****                 #ifdef CAN_SEND_MSG_2_CALLBACK
 331:Generated_Source\PSoC4/CAN_TX_RX_func.c ****                     CAN_SendMsg_2_Callback();
 332:Generated_Source\PSoC4/CAN_TX_RX_func.c ****                 #endif /* CAN_SEND_MSG_2_CALLBACK */
 333:Generated_Source\PSoC4/CAN_TX_RX_func.c **** 
 334:Generated_Source\PSoC4/CAN_TX_RX_func.c ****                 CY_SET_REG32(CAN_TX_CMD_PTR(2u),
 335:Generated_Source\PSoC4/CAN_TX_RX_func.c ****                 CY_GET_REG32(CAN_TX_CMD_PTR(2u)) | CAN_SEND_MESSAGE);
 336:Generated_Source\PSoC4/CAN_TX_RX_func.c ****             }
 337:Generated_Source\PSoC4/CAN_TX_RX_func.c **** 
 338:Generated_Source\PSoC4/CAN_TX_RX_func.c ****         return (result);
 339:Generated_Source\PSoC4/CAN_TX_RX_func.c ****     }
 340:Generated_Source\PSoC4/CAN_TX_RX_func.c **** #endif /* CAN_TX2_FUNC_ENABLE */
 341:Generated_Source\PSoC4/CAN_TX_RX_func.c **** 
 342:Generated_Source\PSoC4/CAN_TX_RX_func.c **** 
 343:Generated_Source\PSoC4/CAN_TX_RX_func.c **** #if (CAN_TX3_FUNC_ENABLE)
 344:Generated_Source\PSoC4/CAN_TX_RX_func.c ****     /*******************************************************************************
 345:Generated_Source\PSoC4/CAN_TX_RX_func.c ****     * FUNCTION NAME:   CAN_SendMsg3
 346:Generated_Source\PSoC4/CAN_TX_RX_func.c ****     ********************************************************************************
 347:Generated_Source\PSoC4/CAN_TX_RX_func.c ****     *
ARM GAS  C:\Users\austc\AppData\Local\Temp\cchZ69nT.s 			page 15


 348:Generated_Source\PSoC4/CAN_TX_RX_func.c ****     * Summary:
 349:Generated_Source\PSoC4/CAN_TX_RX_func.c ****     *  This function is the entry point to Transmit Message 3. The function checks
 350:Generated_Source\PSoC4/CAN_TX_RX_func.c ****     *  if mailbox 3 doesn't already have un-transmitted messages waiting for
 351:Generated_Source\PSoC4/CAN_TX_RX_func.c ****     *  arbitration. If not initiate transmission of the message.
 352:Generated_Source\PSoC4/CAN_TX_RX_func.c ****     *  Generated only for the Transmit mailbox designed as Full.
 353:Generated_Source\PSoC4/CAN_TX_RX_func.c ****     *
 354:Generated_Source\PSoC4/CAN_TX_RX_func.c ****     * Parameters:
 355:Generated_Source\PSoC4/CAN_TX_RX_func.c ****     *  None.
 356:Generated_Source\PSoC4/CAN_TX_RX_func.c ****     *
 357:Generated_Source\PSoC4/CAN_TX_RX_func.c ****     * Return:
 358:Generated_Source\PSoC4/CAN_TX_RX_func.c ****     *  Indication if Message has been sent.
 359:Generated_Source\PSoC4/CAN_TX_RX_func.c ****     *   Define                             Description
 360:Generated_Source\PSoC4/CAN_TX_RX_func.c ****     *    CYRET_SUCCESS                      The function passed successfully
 361:Generated_Source\PSoC4/CAN_TX_RX_func.c ****     *    CAN_FAIL              The function failed
 362:Generated_Source\PSoC4/CAN_TX_RX_func.c ****     *
 363:Generated_Source\PSoC4/CAN_TX_RX_func.c ****     *******************************************************************************/
 364:Generated_Source\PSoC4/CAN_TX_RX_func.c ****     uint8 CAN_SendMsg3(void) 
 365:Generated_Source\PSoC4/CAN_TX_RX_func.c ****     {
 366:Generated_Source\PSoC4/CAN_TX_RX_func.c ****         uint8 result = CYRET_SUCCESS;
 367:Generated_Source\PSoC4/CAN_TX_RX_func.c **** 
 368:Generated_Source\PSoC4/CAN_TX_RX_func.c ****         #if (CY_PSOC3 || CY_PSOC5)
 369:Generated_Source\PSoC4/CAN_TX_RX_func.c ****             if ((CAN_TX[3u].txcmd.byte[0u] & CAN_TX_REQUEST_PENDING) != 0u)
 370:Generated_Source\PSoC4/CAN_TX_RX_func.c ****         #else  /* CY_PSOC4 */
 371:Generated_Source\PSoC4/CAN_TX_RX_func.c ****             if ((CAN_TX_CMD_REG(3u) & CAN_TX_REQUEST_PENDING) != 0u)
 372:Generated_Source\PSoC4/CAN_TX_RX_func.c ****         #endif /* CY_PSOC3 || CY_PSOC5 */
 373:Generated_Source\PSoC4/CAN_TX_RX_func.c ****             {
 374:Generated_Source\PSoC4/CAN_TX_RX_func.c ****                 result = CAN_FAIL;
 375:Generated_Source\PSoC4/CAN_TX_RX_func.c ****             }
 376:Generated_Source\PSoC4/CAN_TX_RX_func.c ****             else
 377:Generated_Source\PSoC4/CAN_TX_RX_func.c ****             {
 378:Generated_Source\PSoC4/CAN_TX_RX_func.c ****                 /* `#START MESSAGE_3_TRASMITTED` */
 379:Generated_Source\PSoC4/CAN_TX_RX_func.c **** 
 380:Generated_Source\PSoC4/CAN_TX_RX_func.c ****                 /* `#END` */
 381:Generated_Source\PSoC4/CAN_TX_RX_func.c **** 
 382:Generated_Source\PSoC4/CAN_TX_RX_func.c ****                 #ifdef CAN_SEND_MSG_3_CALLBACK
 383:Generated_Source\PSoC4/CAN_TX_RX_func.c ****                     CAN_SendMsg_3_Callback();
 384:Generated_Source\PSoC4/CAN_TX_RX_func.c ****                 #endif /* CAN_SEND_MSG_3_CALLBACK */
 385:Generated_Source\PSoC4/CAN_TX_RX_func.c **** 
 386:Generated_Source\PSoC4/CAN_TX_RX_func.c ****                 CY_SET_REG32(CAN_TX_CMD_PTR(3u),
 387:Generated_Source\PSoC4/CAN_TX_RX_func.c ****                 CY_GET_REG32(CAN_TX_CMD_PTR(3u)) | CAN_SEND_MESSAGE);
 388:Generated_Source\PSoC4/CAN_TX_RX_func.c ****             }
 389:Generated_Source\PSoC4/CAN_TX_RX_func.c **** 
 390:Generated_Source\PSoC4/CAN_TX_RX_func.c ****         return (result);
 391:Generated_Source\PSoC4/CAN_TX_RX_func.c ****     }
 392:Generated_Source\PSoC4/CAN_TX_RX_func.c **** #endif /* CAN_TX3_FUNC_ENABLE */
 393:Generated_Source\PSoC4/CAN_TX_RX_func.c **** 
 394:Generated_Source\PSoC4/CAN_TX_RX_func.c **** 
 395:Generated_Source\PSoC4/CAN_TX_RX_func.c **** #if (CAN_TX4_FUNC_ENABLE)
 396:Generated_Source\PSoC4/CAN_TX_RX_func.c ****     /*******************************************************************************
 397:Generated_Source\PSoC4/CAN_TX_RX_func.c ****     * FUNCTION NAME:   CAN_SendMsg4
 398:Generated_Source\PSoC4/CAN_TX_RX_func.c ****     ********************************************************************************
 399:Generated_Source\PSoC4/CAN_TX_RX_func.c ****     *
 400:Generated_Source\PSoC4/CAN_TX_RX_func.c ****     * Summary:
 401:Generated_Source\PSoC4/CAN_TX_RX_func.c ****     *  This function is the entry point to Transmit Message 4. The function checks
 402:Generated_Source\PSoC4/CAN_TX_RX_func.c ****     *  if mailbox 4 doesn't already have un-transmitted messages waiting for
 403:Generated_Source\PSoC4/CAN_TX_RX_func.c ****     *  arbitration. If not initiate transmission of the message.
 404:Generated_Source\PSoC4/CAN_TX_RX_func.c ****     *  Generated only for the Transmit mailbox designed as Full.
ARM GAS  C:\Users\austc\AppData\Local\Temp\cchZ69nT.s 			page 16


 405:Generated_Source\PSoC4/CAN_TX_RX_func.c ****     *
 406:Generated_Source\PSoC4/CAN_TX_RX_func.c ****     * Parameters:
 407:Generated_Source\PSoC4/CAN_TX_RX_func.c ****     *  None.
 408:Generated_Source\PSoC4/CAN_TX_RX_func.c ****     *
 409:Generated_Source\PSoC4/CAN_TX_RX_func.c ****     * Return:
 410:Generated_Source\PSoC4/CAN_TX_RX_func.c ****     *  Indication if Message has been sent.
 411:Generated_Source\PSoC4/CAN_TX_RX_func.c ****     *   Define                             Description
 412:Generated_Source\PSoC4/CAN_TX_RX_func.c ****     *    CYRET_SUCCESS                      The function passed successfully
 413:Generated_Source\PSoC4/CAN_TX_RX_func.c ****     *    CAN_FAIL              The function failed
 414:Generated_Source\PSoC4/CAN_TX_RX_func.c ****     *
 415:Generated_Source\PSoC4/CAN_TX_RX_func.c ****     *******************************************************************************/
 416:Generated_Source\PSoC4/CAN_TX_RX_func.c ****     uint8 CAN_SendMsg4(void) 
 417:Generated_Source\PSoC4/CAN_TX_RX_func.c ****     {
 418:Generated_Source\PSoC4/CAN_TX_RX_func.c ****         uint8 result = CYRET_SUCCESS;
 419:Generated_Source\PSoC4/CAN_TX_RX_func.c **** 
 420:Generated_Source\PSoC4/CAN_TX_RX_func.c ****         #if (CY_PSOC3 || CY_PSOC5)
 421:Generated_Source\PSoC4/CAN_TX_RX_func.c ****             if ((CAN_TX[4u].txcmd.byte[0u] & CAN_TX_REQUEST_PENDING) != 0u)
 422:Generated_Source\PSoC4/CAN_TX_RX_func.c ****         #else  /* CY_PSOC4 */
 423:Generated_Source\PSoC4/CAN_TX_RX_func.c ****             if ((CAN_TX_CMD_REG(4u) & CAN_TX_REQUEST_PENDING) != 0u)
 424:Generated_Source\PSoC4/CAN_TX_RX_func.c ****         #endif /* CY_PSOC3 || CY_PSOC5 */
 425:Generated_Source\PSoC4/CAN_TX_RX_func.c ****             {
 426:Generated_Source\PSoC4/CAN_TX_RX_func.c ****                 result = CAN_FAIL;
 427:Generated_Source\PSoC4/CAN_TX_RX_func.c ****             }
 428:Generated_Source\PSoC4/CAN_TX_RX_func.c ****             else
 429:Generated_Source\PSoC4/CAN_TX_RX_func.c ****             {
 430:Generated_Source\PSoC4/CAN_TX_RX_func.c ****                 /* `#START MESSAGE_4_TRASMITTED` */
 431:Generated_Source\PSoC4/CAN_TX_RX_func.c **** 
 432:Generated_Source\PSoC4/CAN_TX_RX_func.c ****                 /* `#END` */
 433:Generated_Source\PSoC4/CAN_TX_RX_func.c **** 
 434:Generated_Source\PSoC4/CAN_TX_RX_func.c ****                 #ifdef CAN_SEND_MSG_4_CALLBACK
 435:Generated_Source\PSoC4/CAN_TX_RX_func.c ****                     CAN_SendMsg_4_Callback();
 436:Generated_Source\PSoC4/CAN_TX_RX_func.c ****                 #endif /* CAN_SEND_MSG_4_CALLBACK */
 437:Generated_Source\PSoC4/CAN_TX_RX_func.c **** 
 438:Generated_Source\PSoC4/CAN_TX_RX_func.c ****                 CY_SET_REG32(CAN_TX_CMD_PTR(4u),
 439:Generated_Source\PSoC4/CAN_TX_RX_func.c ****                 CY_GET_REG32(CAN_TX_CMD_PTR(4u)) | CAN_SEND_MESSAGE);
 440:Generated_Source\PSoC4/CAN_TX_RX_func.c ****             }
 441:Generated_Source\PSoC4/CAN_TX_RX_func.c **** 
 442:Generated_Source\PSoC4/CAN_TX_RX_func.c ****         return (result);
 443:Generated_Source\PSoC4/CAN_TX_RX_func.c ****     }
 444:Generated_Source\PSoC4/CAN_TX_RX_func.c **** #endif /* CAN_TX4_FUNC_ENABLE */
 445:Generated_Source\PSoC4/CAN_TX_RX_func.c **** 
 446:Generated_Source\PSoC4/CAN_TX_RX_func.c **** 
 447:Generated_Source\PSoC4/CAN_TX_RX_func.c **** #if (CAN_TX5_FUNC_ENABLE)
 448:Generated_Source\PSoC4/CAN_TX_RX_func.c ****     /*******************************************************************************
 449:Generated_Source\PSoC4/CAN_TX_RX_func.c ****     * FUNCTION NAME:   CAN_SendMsg5
 450:Generated_Source\PSoC4/CAN_TX_RX_func.c ****     ********************************************************************************
 451:Generated_Source\PSoC4/CAN_TX_RX_func.c ****     *
 452:Generated_Source\PSoC4/CAN_TX_RX_func.c ****     * Summary:
 453:Generated_Source\PSoC4/CAN_TX_RX_func.c ****     *  This function is the entry point to Transmit Message 5. The function checks
 454:Generated_Source\PSoC4/CAN_TX_RX_func.c ****     *  if mailbox 5 doesn't already have un-transmitted messages waiting for
 455:Generated_Source\PSoC4/CAN_TX_RX_func.c ****     *  arbitration. If not initiate transmission of the message.
 456:Generated_Source\PSoC4/CAN_TX_RX_func.c ****     *  Generated only for the Transmit mailbox designed as Full.
 457:Generated_Source\PSoC4/CAN_TX_RX_func.c ****     *
 458:Generated_Source\PSoC4/CAN_TX_RX_func.c ****     * Parameters:
 459:Generated_Source\PSoC4/CAN_TX_RX_func.c ****     *  None.
 460:Generated_Source\PSoC4/CAN_TX_RX_func.c ****     *
 461:Generated_Source\PSoC4/CAN_TX_RX_func.c ****     * Return:
ARM GAS  C:\Users\austc\AppData\Local\Temp\cchZ69nT.s 			page 17


 462:Generated_Source\PSoC4/CAN_TX_RX_func.c ****     *  Indication if Message has been sent.
 463:Generated_Source\PSoC4/CAN_TX_RX_func.c ****     *   Define                             Description
 464:Generated_Source\PSoC4/CAN_TX_RX_func.c ****     *    CYRET_SUCCESS                      The function passed successfully
 465:Generated_Source\PSoC4/CAN_TX_RX_func.c ****     *    CAN_FAIL              The function failed
 466:Generated_Source\PSoC4/CAN_TX_RX_func.c ****     *
 467:Generated_Source\PSoC4/CAN_TX_RX_func.c ****     *******************************************************************************/
 468:Generated_Source\PSoC4/CAN_TX_RX_func.c ****     uint8 CAN_SendMsg5(void) 
 469:Generated_Source\PSoC4/CAN_TX_RX_func.c ****     {
 470:Generated_Source\PSoC4/CAN_TX_RX_func.c ****         uint8 result = CYRET_SUCCESS;
 471:Generated_Source\PSoC4/CAN_TX_RX_func.c **** 
 472:Generated_Source\PSoC4/CAN_TX_RX_func.c ****         #if (CY_PSOC3 || CY_PSOC5)
 473:Generated_Source\PSoC4/CAN_TX_RX_func.c ****             if ((CAN_TX[5u].txcmd.byte[0u] & CAN_TX_REQUEST_PENDING) != 0u)
 474:Generated_Source\PSoC4/CAN_TX_RX_func.c ****         #else  /* CY_PSOC4 */
 475:Generated_Source\PSoC4/CAN_TX_RX_func.c ****             if ((CAN_TX_CMD_REG(5u) & CAN_TX_REQUEST_PENDING) != 0u)
 476:Generated_Source\PSoC4/CAN_TX_RX_func.c ****         #endif /* CY_PSOC3 || CY_PSOC5 */
 477:Generated_Source\PSoC4/CAN_TX_RX_func.c ****             {
 478:Generated_Source\PSoC4/CAN_TX_RX_func.c ****                 result = CAN_FAIL;
 479:Generated_Source\PSoC4/CAN_TX_RX_func.c ****             }
 480:Generated_Source\PSoC4/CAN_TX_RX_func.c ****             else
 481:Generated_Source\PSoC4/CAN_TX_RX_func.c ****             {
 482:Generated_Source\PSoC4/CAN_TX_RX_func.c ****                 /* `#START MESSAGE_5_TRASMITTED` */
 483:Generated_Source\PSoC4/CAN_TX_RX_func.c **** 
 484:Generated_Source\PSoC4/CAN_TX_RX_func.c ****                 /* `#END` */
 485:Generated_Source\PSoC4/CAN_TX_RX_func.c **** 
 486:Generated_Source\PSoC4/CAN_TX_RX_func.c ****                 #ifdef CAN_SEND_MSG_5_CALLBACK
 487:Generated_Source\PSoC4/CAN_TX_RX_func.c ****                     CAN_SendMsg_5_Callback();
 488:Generated_Source\PSoC4/CAN_TX_RX_func.c ****                 #endif /* CAN_SEND_MSG_5_CALLBACK */
 489:Generated_Source\PSoC4/CAN_TX_RX_func.c **** 
 490:Generated_Source\PSoC4/CAN_TX_RX_func.c ****                 CY_SET_REG32(CAN_TX_CMD_PTR(5u),
 491:Generated_Source\PSoC4/CAN_TX_RX_func.c ****                 CY_GET_REG32(CAN_TX_CMD_PTR(5u)) | CAN_SEND_MESSAGE);
 492:Generated_Source\PSoC4/CAN_TX_RX_func.c ****             }
 493:Generated_Source\PSoC4/CAN_TX_RX_func.c **** 
 494:Generated_Source\PSoC4/CAN_TX_RX_func.c ****         return (result);
 495:Generated_Source\PSoC4/CAN_TX_RX_func.c ****     }
 496:Generated_Source\PSoC4/CAN_TX_RX_func.c **** #endif /* CAN_TX5_FUNC_ENABLE */
 497:Generated_Source\PSoC4/CAN_TX_RX_func.c **** 
 498:Generated_Source\PSoC4/CAN_TX_RX_func.c **** 
 499:Generated_Source\PSoC4/CAN_TX_RX_func.c **** #if (CAN_TX6_FUNC_ENABLE)
 500:Generated_Source\PSoC4/CAN_TX_RX_func.c ****     /*******************************************************************************
 501:Generated_Source\PSoC4/CAN_TX_RX_func.c ****     * FUNCTION NAME:   CAN_SendMsg6
 502:Generated_Source\PSoC4/CAN_TX_RX_func.c ****     ********************************************************************************
 503:Generated_Source\PSoC4/CAN_TX_RX_func.c ****     *
 504:Generated_Source\PSoC4/CAN_TX_RX_func.c ****     * Summary:
 505:Generated_Source\PSoC4/CAN_TX_RX_func.c ****     *  This function is the entry point to Transmit Message 6. The function checks
 506:Generated_Source\PSoC4/CAN_TX_RX_func.c ****     *  if mailbox 6 doesn't already have un-transmitted messages waiting for
 507:Generated_Source\PSoC4/CAN_TX_RX_func.c ****     *  arbitration. If not initiate transmission of the message.
 508:Generated_Source\PSoC4/CAN_TX_RX_func.c ****     *  Generated only for the Transmit mailbox designed as Full.
 509:Generated_Source\PSoC4/CAN_TX_RX_func.c ****     *
 510:Generated_Source\PSoC4/CAN_TX_RX_func.c ****     * Parameters:
 511:Generated_Source\PSoC4/CAN_TX_RX_func.c ****     *  None.
 512:Generated_Source\PSoC4/CAN_TX_RX_func.c ****     *
 513:Generated_Source\PSoC4/CAN_TX_RX_func.c ****     * Return:
 514:Generated_Source\PSoC4/CAN_TX_RX_func.c ****     *  Indication if Message has been sent.
 515:Generated_Source\PSoC4/CAN_TX_RX_func.c ****     *   Define                             Description
 516:Generated_Source\PSoC4/CAN_TX_RX_func.c ****     *    CYRET_SUCCESS                      The function passed successfully
 517:Generated_Source\PSoC4/CAN_TX_RX_func.c ****     *    CAN_FAIL              The function failed
 518:Generated_Source\PSoC4/CAN_TX_RX_func.c ****     *
ARM GAS  C:\Users\austc\AppData\Local\Temp\cchZ69nT.s 			page 18


 519:Generated_Source\PSoC4/CAN_TX_RX_func.c ****     *******************************************************************************/
 520:Generated_Source\PSoC4/CAN_TX_RX_func.c ****     uint8 CAN_SendMsg6(void) 
 521:Generated_Source\PSoC4/CAN_TX_RX_func.c ****     {
 522:Generated_Source\PSoC4/CAN_TX_RX_func.c ****         uint8 result = CYRET_SUCCESS;
 523:Generated_Source\PSoC4/CAN_TX_RX_func.c **** 
 524:Generated_Source\PSoC4/CAN_TX_RX_func.c ****         #if (CY_PSOC3 || CY_PSOC5)
 525:Generated_Source\PSoC4/CAN_TX_RX_func.c ****             if ((CAN_TX[6u].txcmd.byte[0u] & CAN_TX_REQUEST_PENDING) != 0u)
 526:Generated_Source\PSoC4/CAN_TX_RX_func.c ****         #else  /* CY_PSOC4 */
 527:Generated_Source\PSoC4/CAN_TX_RX_func.c ****             if ((CAN_TX_CMD_REG(6u) & CAN_TX_REQUEST_PENDING) != 0u)
 528:Generated_Source\PSoC4/CAN_TX_RX_func.c ****         #endif /* CY_PSOC3 || CY_PSOC5 */
 529:Generated_Source\PSoC4/CAN_TX_RX_func.c ****             {
 530:Generated_Source\PSoC4/CAN_TX_RX_func.c ****                 result = CAN_FAIL;
 531:Generated_Source\PSoC4/CAN_TX_RX_func.c ****             }
 532:Generated_Source\PSoC4/CAN_TX_RX_func.c ****             else
 533:Generated_Source\PSoC4/CAN_TX_RX_func.c ****             {
 534:Generated_Source\PSoC4/CAN_TX_RX_func.c ****                 /* `#START MESSAGE_6_TRASMITTED` */
 535:Generated_Source\PSoC4/CAN_TX_RX_func.c **** 
 536:Generated_Source\PSoC4/CAN_TX_RX_func.c ****                 /* `#END` */
 537:Generated_Source\PSoC4/CAN_TX_RX_func.c **** 
 538:Generated_Source\PSoC4/CAN_TX_RX_func.c ****                 #ifdef CAN_SEND_MSG_6_CALLBACK
 539:Generated_Source\PSoC4/CAN_TX_RX_func.c ****                     CAN_SendMsg_6_Callback();
 540:Generated_Source\PSoC4/CAN_TX_RX_func.c ****                 #endif /* CAN_SEND_MSG_6_CALLBACK */
 541:Generated_Source\PSoC4/CAN_TX_RX_func.c **** 
 542:Generated_Source\PSoC4/CAN_TX_RX_func.c ****                 CY_SET_REG32(CAN_TX_CMD_PTR(6u),
 543:Generated_Source\PSoC4/CAN_TX_RX_func.c ****                 CY_GET_REG32(CAN_TX_CMD_PTR(6u)) | CAN_SEND_MESSAGE);
 544:Generated_Source\PSoC4/CAN_TX_RX_func.c ****             }
 545:Generated_Source\PSoC4/CAN_TX_RX_func.c **** 
 546:Generated_Source\PSoC4/CAN_TX_RX_func.c ****         return (result);
 547:Generated_Source\PSoC4/CAN_TX_RX_func.c ****     }
 548:Generated_Source\PSoC4/CAN_TX_RX_func.c **** #endif /* CAN_TX6_FUNC_ENABLE */
 549:Generated_Source\PSoC4/CAN_TX_RX_func.c **** 
 550:Generated_Source\PSoC4/CAN_TX_RX_func.c **** 
 551:Generated_Source\PSoC4/CAN_TX_RX_func.c **** #if (CAN_TX7_FUNC_ENABLE)
 552:Generated_Source\PSoC4/CAN_TX_RX_func.c ****     /*******************************************************************************
 553:Generated_Source\PSoC4/CAN_TX_RX_func.c ****     * FUNCTION NAME:   CAN_SendMsg7)
 554:Generated_Source\PSoC4/CAN_TX_RX_func.c ****     ********************************************************************************
 555:Generated_Source\PSoC4/CAN_TX_RX_func.c ****     *
 556:Generated_Source\PSoC4/CAN_TX_RX_func.c ****     * Summary:
 557:Generated_Source\PSoC4/CAN_TX_RX_func.c ****     *  This function is the entry point to Transmit Message 7. The function checks
 558:Generated_Source\PSoC4/CAN_TX_RX_func.c ****     *  if mailbox 7 doesn't already have un-transmitted messages waiting for
 559:Generated_Source\PSoC4/CAN_TX_RX_func.c ****     *  arbitration. If not initiate transmission of the message.
 560:Generated_Source\PSoC4/CAN_TX_RX_func.c ****     *  Generated only for the Transmit mailbox designed as Full.
 561:Generated_Source\PSoC4/CAN_TX_RX_func.c ****     *
 562:Generated_Source\PSoC4/CAN_TX_RX_func.c ****     * Parameters:
 563:Generated_Source\PSoC4/CAN_TX_RX_func.c ****     *  None.
 564:Generated_Source\PSoC4/CAN_TX_RX_func.c ****     *
 565:Generated_Source\PSoC4/CAN_TX_RX_func.c ****     * Return:
 566:Generated_Source\PSoC4/CAN_TX_RX_func.c ****     *  Indication if Message has been sent.
 567:Generated_Source\PSoC4/CAN_TX_RX_func.c ****     *   Define                             Description
 568:Generated_Source\PSoC4/CAN_TX_RX_func.c ****     *    CYRET_SUCCESS                      The function passed successfully
 569:Generated_Source\PSoC4/CAN_TX_RX_func.c ****     *    CAN_FAIL              The function failed
 570:Generated_Source\PSoC4/CAN_TX_RX_func.c ****     *
 571:Generated_Source\PSoC4/CAN_TX_RX_func.c ****     *******************************************************************************/
 572:Generated_Source\PSoC4/CAN_TX_RX_func.c ****     uint8 CAN_SendMsg7(void) 
 573:Generated_Source\PSoC4/CAN_TX_RX_func.c ****     {
 574:Generated_Source\PSoC4/CAN_TX_RX_func.c ****         uint8 result = CYRET_SUCCESS;
 575:Generated_Source\PSoC4/CAN_TX_RX_func.c **** 
ARM GAS  C:\Users\austc\AppData\Local\Temp\cchZ69nT.s 			page 19


 576:Generated_Source\PSoC4/CAN_TX_RX_func.c ****         #if (CY_PSOC3 || CY_PSOC5)
 577:Generated_Source\PSoC4/CAN_TX_RX_func.c ****             if ((CAN_TX[7u].txcmd.byte[0u] & CAN_TX_REQUEST_PENDING) != 0u)
 578:Generated_Source\PSoC4/CAN_TX_RX_func.c ****         #else  /* CY_PSOC4 */
 579:Generated_Source\PSoC4/CAN_TX_RX_func.c ****             if ((CAN_TX_CMD_REG(7u) & CAN_TX_REQUEST_PENDING) != 0u)
 580:Generated_Source\PSoC4/CAN_TX_RX_func.c ****         #endif /* CY_PSOC3 || CY_PSOC5 */
 581:Generated_Source\PSoC4/CAN_TX_RX_func.c ****             {
 582:Generated_Source\PSoC4/CAN_TX_RX_func.c ****                 result = CAN_FAIL;
 583:Generated_Source\PSoC4/CAN_TX_RX_func.c ****             }
 584:Generated_Source\PSoC4/CAN_TX_RX_func.c ****             else
 585:Generated_Source\PSoC4/CAN_TX_RX_func.c ****             {
 586:Generated_Source\PSoC4/CAN_TX_RX_func.c ****                 /* `#START MESSAGE_7_TRASMITTED` */
 587:Generated_Source\PSoC4/CAN_TX_RX_func.c **** 
 588:Generated_Source\PSoC4/CAN_TX_RX_func.c ****                 /* `#END` */
 589:Generated_Source\PSoC4/CAN_TX_RX_func.c **** 
 590:Generated_Source\PSoC4/CAN_TX_RX_func.c ****                 #ifdef CAN_SEND_MSG_7_CALLBACK
 591:Generated_Source\PSoC4/CAN_TX_RX_func.c ****                     CAN_SendMsg_7_Callback();
 592:Generated_Source\PSoC4/CAN_TX_RX_func.c ****                 #endif /* CAN_SEND_MSG_7_CALLBACK */
 593:Generated_Source\PSoC4/CAN_TX_RX_func.c **** 
 594:Generated_Source\PSoC4/CAN_TX_RX_func.c ****                 CY_SET_REG32(CAN_TX_CMD_PTR(7u),
 595:Generated_Source\PSoC4/CAN_TX_RX_func.c ****                 CY_GET_REG32(CAN_TX_CMD_PTR(7u)) | CAN_SEND_MESSAGE);
 596:Generated_Source\PSoC4/CAN_TX_RX_func.c ****             }
 597:Generated_Source\PSoC4/CAN_TX_RX_func.c **** 
 598:Generated_Source\PSoC4/CAN_TX_RX_func.c ****         return (result);
 599:Generated_Source\PSoC4/CAN_TX_RX_func.c ****     }
 600:Generated_Source\PSoC4/CAN_TX_RX_func.c **** #endif /* CAN_TX7_FUNC_ENABLE */
 601:Generated_Source\PSoC4/CAN_TX_RX_func.c **** 
 602:Generated_Source\PSoC4/CAN_TX_RX_func.c **** 
 603:Generated_Source\PSoC4/CAN_TX_RX_func.c **** /*******************************************************************************
 604:Generated_Source\PSoC4/CAN_TX_RX_func.c **** * FUNCTION NAME:   CAN_ReceiveMsg
 605:Generated_Source\PSoC4/CAN_TX_RX_func.c **** ********************************************************************************
 606:Generated_Source\PSoC4/CAN_TX_RX_func.c **** *
 607:Generated_Source\PSoC4/CAN_TX_RX_func.c **** * Summary:
 608:Generated_Source\PSoC4/CAN_TX_RX_func.c **** *  This function is the entry point to Receive Message Interrupt for Basic
 609:Generated_Source\PSoC4/CAN_TX_RX_func.c **** *  mailboxes. Clears the Receive particular Message interrupt flag. Generated
 610:Generated_Source\PSoC4/CAN_TX_RX_func.c **** *  only if one of the Receive mailboxes is designed as Basic.
 611:Generated_Source\PSoC4/CAN_TX_RX_func.c **** *
 612:Generated_Source\PSoC4/CAN_TX_RX_func.c **** * Parameters:
 613:Generated_Source\PSoC4/CAN_TX_RX_func.c **** *  rxMailbox: The mailbox number that trig Receive Message Interrupt.
 614:Generated_Source\PSoC4/CAN_TX_RX_func.c **** *
 615:Generated_Source\PSoC4/CAN_TX_RX_func.c **** * Return:
 616:Generated_Source\PSoC4/CAN_TX_RX_func.c **** *  None.
 617:Generated_Source\PSoC4/CAN_TX_RX_func.c **** *
 618:Generated_Source\PSoC4/CAN_TX_RX_func.c **** * Reentrant:
 619:Generated_Source\PSoC4/CAN_TX_RX_func.c **** *  Depends on the Customer code.
 620:Generated_Source\PSoC4/CAN_TX_RX_func.c **** *
 621:Generated_Source\PSoC4/CAN_TX_RX_func.c **** *******************************************************************************/
 622:Generated_Source\PSoC4/CAN_TX_RX_func.c **** void CAN_ReceiveMsg(uint8 rxMailbox) 
 623:Generated_Source\PSoC4/CAN_TX_RX_func.c **** {
 439              		.loc 1 623 0
 440              		.cfi_startproc
 441              		@ args = 0, pretend = 0, frame = 0
 442              		@ frame_needed = 0, uses_anonymous_args = 0
 443              		@ link register save eliminated.
 444              	.LVL33:
 624:Generated_Source\PSoC4/CAN_TX_RX_func.c ****     #if (CY_PSOC3 || CY_PSOC5)
 625:Generated_Source\PSoC4/CAN_TX_RX_func.c ****         if ((CAN_RX[rxMailbox].rxcmd.byte[0u] & CAN_RX_ACK_MSG) != 0u)
 626:Generated_Source\PSoC4/CAN_TX_RX_func.c ****     #else  /* CY_PSOC4 */
ARM GAS  C:\Users\austc\AppData\Local\Temp\cchZ69nT.s 			page 20


 627:Generated_Source\PSoC4/CAN_TX_RX_func.c ****         if ((CAN_RX_CMD_REG(rxMailbox) & CAN_RX_ACK_MSG) != 0u)
 445              		.loc 1 627 0
 446 0000 4001     		lsls	r0, r0, #5
 447              	.LVL34:
 448 0002 054B     		ldr	r3, .L41
 449 0004 9C46     		mov	ip, r3
 450 0006 6044     		add	r0, r0, ip
 451 0008 0368     		ldr	r3, [r0]
 452 000a DB07     		lsls	r3, r3, #31
 453 000c 03D5     		bpl	.L39
 628:Generated_Source\PSoC4/CAN_TX_RX_func.c ****     #endif /* CY_PSOC3 || CY_PSOC5 */
 629:Generated_Source\PSoC4/CAN_TX_RX_func.c ****         {
 630:Generated_Source\PSoC4/CAN_TX_RX_func.c ****             /* `#START MESSAGE_BASIC_RECEIVED` */
 631:Generated_Source\PSoC4/CAN_TX_RX_func.c **** 
 632:Generated_Source\PSoC4/CAN_TX_RX_func.c ****             /* `#END` */
 633:Generated_Source\PSoC4/CAN_TX_RX_func.c **** 
 634:Generated_Source\PSoC4/CAN_TX_RX_func.c ****             #ifdef CAN_RECEIVE_MSG_CALLBACK
 635:Generated_Source\PSoC4/CAN_TX_RX_func.c ****                 CAN_ReceiveMsg_Callback();
 636:Generated_Source\PSoC4/CAN_TX_RX_func.c ****             #endif /* CAN_RECEIVE_MSG_CALLBACK */
 637:Generated_Source\PSoC4/CAN_TX_RX_func.c **** 
 638:Generated_Source\PSoC4/CAN_TX_RX_func.c ****             #if (CY_PSOC3 || CY_PSOC5)
 639:Generated_Source\PSoC4/CAN_TX_RX_func.c ****                 CAN_RX[rxMailbox].rxcmd.byte[0u] |= CAN_RX_ACK_MSG;
 640:Generated_Source\PSoC4/CAN_TX_RX_func.c ****             #else  /* CY_PSOC4 */
 641:Generated_Source\PSoC4/CAN_TX_RX_func.c ****                 CAN_RX_CMD_REG(rxMailbox) |= CAN_RX_ACK_MSG;
 454              		.loc 1 641 0
 455 000e 0268     		ldr	r2, [r0]
 456 0010 0123     		movs	r3, #1
 457 0012 1343     		orrs	r3, r2
 458 0014 0360     		str	r3, [r0]
 459              	.L39:
 642:Generated_Source\PSoC4/CAN_TX_RX_func.c ****             #endif /* CY_PSOC3 || CY_PSOC5 */
 643:Generated_Source\PSoC4/CAN_TX_RX_func.c ****         }
 644:Generated_Source\PSoC4/CAN_TX_RX_func.c **** }
 460              		.loc 1 644 0
 461              		@ sp needed
 462 0016 7047     		bx	lr
 463              	.L42:
 464              		.align	2
 465              	.L41:
 466 0018 A0002F40 		.word	1076822176
 467              		.cfi_endproc
 468              	.LFE5:
 469              		.size	CAN_ReceiveMsg, .-CAN_ReceiveMsg
 470              		.text
 471              	.Letext0:
 472              		.file 2 "Generated_Source\\PSoC4\\cytypes.h"
 473              		.file 3 "Generated_Source\\PSoC4\\CAN.h"
 474              		.file 4 "Generated_Source\\PSoC4\\CyLib.h"