ARM GAS  C:\Users\austc\AppData\Local\Temp\cciv6yeu.s 			page 1


   1              		.syntax unified
   2              		.cpu cortex-m0
   3              		.fpu softvfp
   4              		.eabi_attribute 20, 1
   5              		.eabi_attribute 21, 1
   6              		.eabi_attribute 23, 3
   7              		.eabi_attribute 24, 1
   8              		.eabi_attribute 25, 1
   9              		.eabi_attribute 26, 1
  10              		.eabi_attribute 30, 1
  11              		.eabi_attribute 34, 0
  12              		.eabi_attribute 18, 4
  13              		.thumb
  14              		.syntax unified
  15              		.file	"cyfitter_cfg.c"
  16              		.text
  17              	.Ltext0:
  18              		.cfi_sections	.debug_frame
  19              		.section	.text.cfg_write_bytes32,"ax",%progbits
  20              		.align	2
  21              		.code	16
  22              		.thumb_func
  23              		.type	cfg_write_bytes32, %function
  24              	cfg_write_bytes32:
  25              	.LFB37:
  26              		.file 1 "Generated_Source\\PSoC4\\cyfitter_cfg.c"
   1:Generated_Source\PSoC4/cyfitter_cfg.c **** 
   2:Generated_Source\PSoC4/cyfitter_cfg.c **** /*******************************************************************************
   3:Generated_Source\PSoC4/cyfitter_cfg.c **** * File Name: cyfitter_cfg.c
   4:Generated_Source\PSoC4/cyfitter_cfg.c **** * 
   5:Generated_Source\PSoC4/cyfitter_cfg.c **** * PSoC Creator  4.2
   6:Generated_Source\PSoC4/cyfitter_cfg.c **** *
   7:Generated_Source\PSoC4/cyfitter_cfg.c **** * Description:
   8:Generated_Source\PSoC4/cyfitter_cfg.c **** * This file contains device initialization code.
   9:Generated_Source\PSoC4/cyfitter_cfg.c **** * Except for the user defined sections in CyClockStartupError(), this file should not be modified.
  10:Generated_Source\PSoC4/cyfitter_cfg.c **** * This file is automatically generated by PSoC Creator.
  11:Generated_Source\PSoC4/cyfitter_cfg.c **** *
  12:Generated_Source\PSoC4/cyfitter_cfg.c **** ********************************************************************************
  13:Generated_Source\PSoC4/cyfitter_cfg.c **** * Copyright (c) 2007-2018 Cypress Semiconductor.  All rights reserved.
  14:Generated_Source\PSoC4/cyfitter_cfg.c **** * You may use this file only in accordance with the license, terms, conditions, 
  15:Generated_Source\PSoC4/cyfitter_cfg.c **** * disclaimers, and limitations in the end user license agreement accompanying 
  16:Generated_Source\PSoC4/cyfitter_cfg.c **** * the software package with which this file was provided.
  17:Generated_Source\PSoC4/cyfitter_cfg.c **** ********************************************************************************/
  18:Generated_Source\PSoC4/cyfitter_cfg.c **** 
  19:Generated_Source\PSoC4/cyfitter_cfg.c **** #include <string.h>
  20:Generated_Source\PSoC4/cyfitter_cfg.c **** #include "cytypes.h"
  21:Generated_Source\PSoC4/cyfitter_cfg.c **** #include "cydevice_trm.h"
  22:Generated_Source\PSoC4/cyfitter_cfg.c **** #include "cyfitter.h"
  23:Generated_Source\PSoC4/cyfitter_cfg.c **** #include "CyLib.h"
  24:Generated_Source\PSoC4/cyfitter_cfg.c **** #include "CyLFClk.h"
  25:Generated_Source\PSoC4/cyfitter_cfg.c **** #include "cyfitter_cfg.h"
  26:Generated_Source\PSoC4/cyfitter_cfg.c **** #include "cyapicallbacks.h"
  27:Generated_Source\PSoC4/cyfitter_cfg.c **** 
  28:Generated_Source\PSoC4/cyfitter_cfg.c **** 
  29:Generated_Source\PSoC4/cyfitter_cfg.c **** #if defined(__GNUC__) || defined(__ARMCC_VERSION)
  30:Generated_Source\PSoC4/cyfitter_cfg.c ****     #define CYPACKED 
  31:Generated_Source\PSoC4/cyfitter_cfg.c ****     #define CYPACKED_ATTR __attribute__ ((packed))
ARM GAS  C:\Users\austc\AppData\Local\Temp\cciv6yeu.s 			page 2


  32:Generated_Source\PSoC4/cyfitter_cfg.c ****     #define CYALIGNED __attribute__ ((aligned))
  33:Generated_Source\PSoC4/cyfitter_cfg.c ****     #define CY_CFG_UNUSED __attribute__ ((unused))
  34:Generated_Source\PSoC4/cyfitter_cfg.c ****     #ifndef CY_CFG_SECTION
  35:Generated_Source\PSoC4/cyfitter_cfg.c ****         #define CY_CFG_SECTION __attribute__ ((section(".psocinit")))
  36:Generated_Source\PSoC4/cyfitter_cfg.c ****     #endif
  37:Generated_Source\PSoC4/cyfitter_cfg.c ****     
  38:Generated_Source\PSoC4/cyfitter_cfg.c ****     #if defined(__ARMCC_VERSION)
  39:Generated_Source\PSoC4/cyfitter_cfg.c ****         #define CY_CFG_MEMORY_BARRIER() __memory_changed()
  40:Generated_Source\PSoC4/cyfitter_cfg.c ****     #else
  41:Generated_Source\PSoC4/cyfitter_cfg.c ****         #define CY_CFG_MEMORY_BARRIER() __sync_synchronize()
  42:Generated_Source\PSoC4/cyfitter_cfg.c ****     #endif
  43:Generated_Source\PSoC4/cyfitter_cfg.c ****     
  44:Generated_Source\PSoC4/cyfitter_cfg.c **** #elif defined(__ICCARM__)
  45:Generated_Source\PSoC4/cyfitter_cfg.c ****     #include <intrinsics.h>
  46:Generated_Source\PSoC4/cyfitter_cfg.c **** 
  47:Generated_Source\PSoC4/cyfitter_cfg.c ****     #define CYPACKED __packed
  48:Generated_Source\PSoC4/cyfitter_cfg.c ****     #define CYPACKED_ATTR 
  49:Generated_Source\PSoC4/cyfitter_cfg.c ****     #define CYALIGNED _Pragma("data_alignment=4")
  50:Generated_Source\PSoC4/cyfitter_cfg.c ****     #define CY_CFG_UNUSED _Pragma("diag_suppress=Pe177")
  51:Generated_Source\PSoC4/cyfitter_cfg.c ****     #define CY_CFG_SECTION _Pragma("location=\".psocinit\"")
  52:Generated_Source\PSoC4/cyfitter_cfg.c ****     
  53:Generated_Source\PSoC4/cyfitter_cfg.c ****     #define CY_CFG_MEMORY_BARRIER() __DMB()
  54:Generated_Source\PSoC4/cyfitter_cfg.c ****     
  55:Generated_Source\PSoC4/cyfitter_cfg.c **** #else
  56:Generated_Source\PSoC4/cyfitter_cfg.c ****     #error Unsupported toolchain
  57:Generated_Source\PSoC4/cyfitter_cfg.c **** #endif
  58:Generated_Source\PSoC4/cyfitter_cfg.c **** 
  59:Generated_Source\PSoC4/cyfitter_cfg.c **** #ifndef CYCODE
  60:Generated_Source\PSoC4/cyfitter_cfg.c ****     #define CYCODE
  61:Generated_Source\PSoC4/cyfitter_cfg.c **** #endif
  62:Generated_Source\PSoC4/cyfitter_cfg.c **** #ifndef CYDATA
  63:Generated_Source\PSoC4/cyfitter_cfg.c ****     #define CYDATA
  64:Generated_Source\PSoC4/cyfitter_cfg.c **** #endif
  65:Generated_Source\PSoC4/cyfitter_cfg.c **** #ifndef CYFAR
  66:Generated_Source\PSoC4/cyfitter_cfg.c ****     #define CYFAR
  67:Generated_Source\PSoC4/cyfitter_cfg.c **** #endif
  68:Generated_Source\PSoC4/cyfitter_cfg.c **** #ifndef CYXDATA
  69:Generated_Source\PSoC4/cyfitter_cfg.c ****     #define CYXDATA
  70:Generated_Source\PSoC4/cyfitter_cfg.c **** #endif
  71:Generated_Source\PSoC4/cyfitter_cfg.c **** 
  72:Generated_Source\PSoC4/cyfitter_cfg.c **** 
  73:Generated_Source\PSoC4/cyfitter_cfg.c **** CY_CFG_UNUSED
  74:Generated_Source\PSoC4/cyfitter_cfg.c **** static void CYMEMZERO(void *s, size_t n);
  75:Generated_Source\PSoC4/cyfitter_cfg.c **** CY_CFG_UNUSED
  76:Generated_Source\PSoC4/cyfitter_cfg.c **** static void CYMEMZERO(void *s, size_t n)
  77:Generated_Source\PSoC4/cyfitter_cfg.c **** {
  78:Generated_Source\PSoC4/cyfitter_cfg.c **** 	(void)memset(s, 0, n);
  79:Generated_Source\PSoC4/cyfitter_cfg.c **** }
  80:Generated_Source\PSoC4/cyfitter_cfg.c **** CY_CFG_UNUSED
  81:Generated_Source\PSoC4/cyfitter_cfg.c **** static void CYCONFIGCPY(void *dest, const void *src, size_t n);
  82:Generated_Source\PSoC4/cyfitter_cfg.c **** CY_CFG_UNUSED
  83:Generated_Source\PSoC4/cyfitter_cfg.c **** static void CYCONFIGCPY(void *dest, const void *src, size_t n)
  84:Generated_Source\PSoC4/cyfitter_cfg.c **** {
  85:Generated_Source\PSoC4/cyfitter_cfg.c **** 	(void)memcpy(dest, src, n);
  86:Generated_Source\PSoC4/cyfitter_cfg.c **** }
  87:Generated_Source\PSoC4/cyfitter_cfg.c **** CY_CFG_UNUSED
  88:Generated_Source\PSoC4/cyfitter_cfg.c **** static void CYCONFIGCPYCODE(void *dest, const void *src, size_t n);
ARM GAS  C:\Users\austc\AppData\Local\Temp\cciv6yeu.s 			page 3


  89:Generated_Source\PSoC4/cyfitter_cfg.c **** CY_CFG_UNUSED
  90:Generated_Source\PSoC4/cyfitter_cfg.c **** static void CYCONFIGCPYCODE(void *dest, const void *src, size_t n)
  91:Generated_Source\PSoC4/cyfitter_cfg.c **** {
  92:Generated_Source\PSoC4/cyfitter_cfg.c **** 	(void)memcpy(dest, src, n);
  93:Generated_Source\PSoC4/cyfitter_cfg.c **** }
  94:Generated_Source\PSoC4/cyfitter_cfg.c **** 
  95:Generated_Source\PSoC4/cyfitter_cfg.c **** 
  96:Generated_Source\PSoC4/cyfitter_cfg.c **** 
  97:Generated_Source\PSoC4/cyfitter_cfg.c **** 
  98:Generated_Source\PSoC4/cyfitter_cfg.c **** /* Clock startup error codes                                                   */
  99:Generated_Source\PSoC4/cyfitter_cfg.c **** #define CYCLOCKSTART_NO_ERROR    0u
 100:Generated_Source\PSoC4/cyfitter_cfg.c **** #define CYCLOCKSTART_XTAL_ERROR  1u
 101:Generated_Source\PSoC4/cyfitter_cfg.c **** #define CYCLOCKSTART_32KHZ_ERROR 2u
 102:Generated_Source\PSoC4/cyfitter_cfg.c **** #define CYCLOCKSTART_PLL_ERROR   3u
 103:Generated_Source\PSoC4/cyfitter_cfg.c **** #define CYCLOCKSTART_FLL_ERROR   4u
 104:Generated_Source\PSoC4/cyfitter_cfg.c **** #define CYCLOCKSTART_WCO_ERROR   5u
 105:Generated_Source\PSoC4/cyfitter_cfg.c **** 
 106:Generated_Source\PSoC4/cyfitter_cfg.c **** 
 107:Generated_Source\PSoC4/cyfitter_cfg.c **** #ifdef CY_NEED_CYCLOCKSTARTUPERROR
 108:Generated_Source\PSoC4/cyfitter_cfg.c **** /*******************************************************************************
 109:Generated_Source\PSoC4/cyfitter_cfg.c **** * Function Name: CyClockStartupError
 110:Generated_Source\PSoC4/cyfitter_cfg.c **** ********************************************************************************
 111:Generated_Source\PSoC4/cyfitter_cfg.c **** * Summary:
 112:Generated_Source\PSoC4/cyfitter_cfg.c **** *  If an error is encountered during clock configuration (crystal startup error,
 113:Generated_Source\PSoC4/cyfitter_cfg.c **** *  PLL lock error, etc.), the system will end up here.  Unless reimplemented by
 114:Generated_Source\PSoC4/cyfitter_cfg.c **** *  the customer, this function will stop in an infinite loop.
 115:Generated_Source\PSoC4/cyfitter_cfg.c **** *
 116:Generated_Source\PSoC4/cyfitter_cfg.c **** * Parameters:
 117:Generated_Source\PSoC4/cyfitter_cfg.c **** *   void
 118:Generated_Source\PSoC4/cyfitter_cfg.c **** *
 119:Generated_Source\PSoC4/cyfitter_cfg.c **** * Return:
 120:Generated_Source\PSoC4/cyfitter_cfg.c **** *   void
 121:Generated_Source\PSoC4/cyfitter_cfg.c **** *
 122:Generated_Source\PSoC4/cyfitter_cfg.c **** *******************************************************************************/
 123:Generated_Source\PSoC4/cyfitter_cfg.c **** CY_CFG_UNUSED
 124:Generated_Source\PSoC4/cyfitter_cfg.c **** static void CyClockStartupError(uint8 errorCode);
 125:Generated_Source\PSoC4/cyfitter_cfg.c **** CY_CFG_UNUSED
 126:Generated_Source\PSoC4/cyfitter_cfg.c **** static void CyClockStartupError(uint8 errorCode)
 127:Generated_Source\PSoC4/cyfitter_cfg.c **** {
 128:Generated_Source\PSoC4/cyfitter_cfg.c ****     /* To remove the compiler warning if errorCode not used.                */
 129:Generated_Source\PSoC4/cyfitter_cfg.c ****     errorCode = errorCode;
 130:Generated_Source\PSoC4/cyfitter_cfg.c **** 
 131:Generated_Source\PSoC4/cyfitter_cfg.c ****     /* If we have a clock startup error (bad MHz crystal, PLL lock, etc.),  */
 132:Generated_Source\PSoC4/cyfitter_cfg.c ****     /* we will end up here to allow the customer to implement something to  */
 133:Generated_Source\PSoC4/cyfitter_cfg.c ****     /* deal with the clock condition.                                       */
 134:Generated_Source\PSoC4/cyfitter_cfg.c **** 
 135:Generated_Source\PSoC4/cyfitter_cfg.c **** #ifdef CY_CFG_CLOCK_STARTUP_ERROR_CALLBACK
 136:Generated_Source\PSoC4/cyfitter_cfg.c ****     CY_CFG_Clock_Startup_ErrorCallback();
 137:Generated_Source\PSoC4/cyfitter_cfg.c **** #else
 138:Generated_Source\PSoC4/cyfitter_cfg.c ****     /*  If not using CY_CFG_CLOCK_STARTUP_ERROR_CALLBACK, place your clock startup code here. */
 139:Generated_Source\PSoC4/cyfitter_cfg.c ****     /* `#START CyClockStartupError` */
 140:Generated_Source\PSoC4/cyfitter_cfg.c **** 
 141:Generated_Source\PSoC4/cyfitter_cfg.c **** 
 142:Generated_Source\PSoC4/cyfitter_cfg.c **** 
 143:Generated_Source\PSoC4/cyfitter_cfg.c ****     /* `#END` */
 144:Generated_Source\PSoC4/cyfitter_cfg.c **** 
 145:Generated_Source\PSoC4/cyfitter_cfg.c ****     while(1) {}
ARM GAS  C:\Users\austc\AppData\Local\Temp\cciv6yeu.s 			page 4


 146:Generated_Source\PSoC4/cyfitter_cfg.c **** #endif /* CY_CFG_CLOCK_STARTUP_ERROR_CALLBACK */
 147:Generated_Source\PSoC4/cyfitter_cfg.c **** }
 148:Generated_Source\PSoC4/cyfitter_cfg.c **** #endif
 149:Generated_Source\PSoC4/cyfitter_cfg.c **** 
 150:Generated_Source\PSoC4/cyfitter_cfg.c **** #define CY_CFG_BASE_ADDR_COUNT 14u
 151:Generated_Source\PSoC4/cyfitter_cfg.c **** CYPACKED typedef struct
 152:Generated_Source\PSoC4/cyfitter_cfg.c **** {
 153:Generated_Source\PSoC4/cyfitter_cfg.c **** 	uint8 offset;
 154:Generated_Source\PSoC4/cyfitter_cfg.c **** 	uint8 value;
 155:Generated_Source\PSoC4/cyfitter_cfg.c **** } CYPACKED_ATTR cy_cfg_addrvalue_t;
 156:Generated_Source\PSoC4/cyfitter_cfg.c **** 
 157:Generated_Source\PSoC4/cyfitter_cfg.c **** 
 158:Generated_Source\PSoC4/cyfitter_cfg.c **** 
 159:Generated_Source\PSoC4/cyfitter_cfg.c **** /*******************************************************************************
 160:Generated_Source\PSoC4/cyfitter_cfg.c **** * Function Name: cfg_write_bytes32
 161:Generated_Source\PSoC4/cyfitter_cfg.c **** ********************************************************************************
 162:Generated_Source\PSoC4/cyfitter_cfg.c **** * Summary:
 163:Generated_Source\PSoC4/cyfitter_cfg.c **** *  This function is used for setting up the chip configuration areas that
 164:Generated_Source\PSoC4/cyfitter_cfg.c **** *  contain relatively sparse data.
 165:Generated_Source\PSoC4/cyfitter_cfg.c **** *
 166:Generated_Source\PSoC4/cyfitter_cfg.c **** * Parameters:
 167:Generated_Source\PSoC4/cyfitter_cfg.c **** *   void
 168:Generated_Source\PSoC4/cyfitter_cfg.c **** *
 169:Generated_Source\PSoC4/cyfitter_cfg.c **** * Return:
 170:Generated_Source\PSoC4/cyfitter_cfg.c **** *   void
 171:Generated_Source\PSoC4/cyfitter_cfg.c **** *
 172:Generated_Source\PSoC4/cyfitter_cfg.c **** *******************************************************************************/
 173:Generated_Source\PSoC4/cyfitter_cfg.c **** static void cfg_write_bytes32(const uint32 addr_table[], const cy_cfg_addrvalue_t data_table[]);
 174:Generated_Source\PSoC4/cyfitter_cfg.c **** static void cfg_write_bytes32(const uint32 addr_table[], const cy_cfg_addrvalue_t data_table[])
 175:Generated_Source\PSoC4/cyfitter_cfg.c **** {
  27              		.loc 1 175 0
  28              		.cfi_startproc
  29              		@ args = 0, pretend = 0, frame = 0
  30              		@ frame_needed = 0, uses_anonymous_args = 0
  31              	.LVL0:
  32 0000 F0B5     		push	{r4, r5, r6, r7, lr}
  33              		.cfi_def_cfa_offset 20
  34              		.cfi_offset 4, -20
  35              		.cfi_offset 5, -16
  36              		.cfi_offset 6, -12
  37              		.cfi_offset 7, -8
  38              		.cfi_offset 14, -4
  39              	.LVL1:
 176:Generated_Source\PSoC4/cyfitter_cfg.c **** 	/* For 32-bit little-endian architectures */
 177:Generated_Source\PSoC4/cyfitter_cfg.c **** 	uint32 i, j = 0u;
  40              		.loc 1 177 0
  41 0002 0025     		movs	r5, #0
 178:Generated_Source\PSoC4/cyfitter_cfg.c **** 	for (i = 0u; i < CY_CFG_BASE_ADDR_COUNT; i++)
  42              		.loc 1 178 0
  43 0004 0027     		movs	r7, #0
  44 0006 11E0     		b	.L2
  45              	.LVL2:
  46              	.L5:
  47              	.LBB2:
 179:Generated_Source\PSoC4/cyfitter_cfg.c **** 	{
 180:Generated_Source\PSoC4/cyfitter_cfg.c **** 		uint32 baseAddr = addr_table[i];
  48              		.loc 1 180 0
ARM GAS  C:\Users\austc\AppData\Local\Temp\cciv6yeu.s 			page 5


  49 0008 BB00     		lsls	r3, r7, #2
  50 000a C658     		ldr	r6, [r0, r3]
  51              	.LVL3:
 181:Generated_Source\PSoC4/cyfitter_cfg.c **** 		uint8 count = (uint8)baseAddr;
  52              		.loc 1 181 0
  53 000c F3B2     		uxtb	r3, r6
  54              	.LVL4:
 182:Generated_Source\PSoC4/cyfitter_cfg.c **** 		baseAddr &= 0xFFFFFF00u;
  55              		.loc 1 182 0
  56 000e FF22     		movs	r2, #255
  57 0010 9643     		bics	r6, r2
  58              	.LVL5:
 183:Generated_Source\PSoC4/cyfitter_cfg.c **** 		while (count != 0u)
  59              		.loc 1 183 0
  60 0012 08E0     		b	.L3
  61              	.L4:
 184:Generated_Source\PSoC4/cyfitter_cfg.c **** 		{
 185:Generated_Source\PSoC4/cyfitter_cfg.c **** 			CY_SET_REG8((void *)(baseAddr + data_table[j].offset), data_table[j].value);
  62              		.loc 1 185 0
  63 0014 6A00     		lsls	r2, r5, #1
  64 0016 8A18     		adds	r2, r1, r2
  65 0018 1478     		ldrb	r4, [r2]
  66 001a A419     		adds	r4, r4, r6
  67 001c 5278     		ldrb	r2, [r2, #1]
  68 001e 2270     		strb	r2, [r4]
 186:Generated_Source\PSoC4/cyfitter_cfg.c **** 			j++;
  69              		.loc 1 186 0
  70 0020 0135     		adds	r5, r5, #1
  71              	.LVL6:
 187:Generated_Source\PSoC4/cyfitter_cfg.c **** 			count--;
  72              		.loc 1 187 0
  73 0022 013B     		subs	r3, r3, #1
  74              	.LVL7:
  75 0024 DBB2     		uxtb	r3, r3
  76              	.LVL8:
  77              	.L3:
 183:Generated_Source\PSoC4/cyfitter_cfg.c **** 		{
  78              		.loc 1 183 0
  79 0026 002B     		cmp	r3, #0
  80 0028 F4D1     		bne	.L4
  81              	.LBE2:
 178:Generated_Source\PSoC4/cyfitter_cfg.c **** 	{
  82              		.loc 1 178 0 discriminator 2
  83 002a 0137     		adds	r7, r7, #1
  84              	.LVL9:
  85              	.L2:
 178:Generated_Source\PSoC4/cyfitter_cfg.c **** 	{
  86              		.loc 1 178 0 is_stmt 0 discriminator 1
  87 002c 0D2F     		cmp	r7, #13
  88 002e EBD9     		bls	.L5
 188:Generated_Source\PSoC4/cyfitter_cfg.c **** 		}
 189:Generated_Source\PSoC4/cyfitter_cfg.c **** 	}
 190:Generated_Source\PSoC4/cyfitter_cfg.c **** }
  89              		.loc 1 190 0 is_stmt 1
  90              		@ sp needed
  91              	.LVL10:
  92              	.LVL11:
ARM GAS  C:\Users\austc\AppData\Local\Temp\cciv6yeu.s 			page 6


  93 0030 F0BD     		pop	{r4, r5, r6, r7, pc}
  94              		.cfi_endproc
  95              	.LFE37:
  96              		.size	cfg_write_bytes32, .-cfg_write_bytes32
  97 0032 C046     		.section	.text.CYMEMZERO,"ax",%progbits
  98              		.align	2
  99              		.code	16
 100              		.thumb_func
 101              		.type	CYMEMZERO, %function
 102              	CYMEMZERO:
 103              	.LFB34:
  77:Generated_Source\PSoC4/cyfitter_cfg.c **** 	(void)memset(s, 0, n);
 104              		.loc 1 77 0
 105              		.cfi_startproc
 106              		@ args = 0, pretend = 0, frame = 0
 107              		@ frame_needed = 0, uses_anonymous_args = 0
 108              	.LVL12:
 109 0000 10B5     		push	{r4, lr}
 110              		.cfi_def_cfa_offset 8
 111              		.cfi_offset 4, -8
 112              		.cfi_offset 14, -4
 113 0002 0A00     		movs	r2, r1
  78:Generated_Source\PSoC4/cyfitter_cfg.c **** }
 114              		.loc 1 78 0
 115 0004 0021     		movs	r1, #0
 116              	.LVL13:
 117 0006 FFF7FEFF 		bl	memset
 118              	.LVL14:
  79:Generated_Source\PSoC4/cyfitter_cfg.c **** CY_CFG_UNUSED
 119              		.loc 1 79 0
 120              		@ sp needed
 121 000a 10BD     		pop	{r4, pc}
 122              		.cfi_endproc
 123              	.LFE34:
 124              		.size	CYMEMZERO, .-CYMEMZERO
 125              		.section	.psocinit,"ax",%progbits
 126              		.align	2
 127              		.code	16
 128              		.thumb_func
 129              		.type	ClockSetup, %function
 130              	ClockSetup:
 131              	.LFB38:
 191:Generated_Source\PSoC4/cyfitter_cfg.c **** 
 192:Generated_Source\PSoC4/cyfitter_cfg.c **** 
 193:Generated_Source\PSoC4/cyfitter_cfg.c **** /*******************************************************************************
 194:Generated_Source\PSoC4/cyfitter_cfg.c **** * Function Name: ClockSetup
 195:Generated_Source\PSoC4/cyfitter_cfg.c **** ********************************************************************************
 196:Generated_Source\PSoC4/cyfitter_cfg.c **** *
 197:Generated_Source\PSoC4/cyfitter_cfg.c **** * Summary:
 198:Generated_Source\PSoC4/cyfitter_cfg.c **** *   Performs the initialization of all of the clocks in the device based on the
 199:Generated_Source\PSoC4/cyfitter_cfg.c **** *   settings in the Clock tab of the DWR.  This includes enabling the requested
 200:Generated_Source\PSoC4/cyfitter_cfg.c **** *   clocks and setting the necessary dividers to produce the desired frequency. 
 201:Generated_Source\PSoC4/cyfitter_cfg.c **** *
 202:Generated_Source\PSoC4/cyfitter_cfg.c **** * Parameters:
 203:Generated_Source\PSoC4/cyfitter_cfg.c **** *   void
 204:Generated_Source\PSoC4/cyfitter_cfg.c **** *
 205:Generated_Source\PSoC4/cyfitter_cfg.c **** * Return:
ARM GAS  C:\Users\austc\AppData\Local\Temp\cciv6yeu.s 			page 7


 206:Generated_Source\PSoC4/cyfitter_cfg.c **** *   void
 207:Generated_Source\PSoC4/cyfitter_cfg.c **** *
 208:Generated_Source\PSoC4/cyfitter_cfg.c **** *******************************************************************************/
 209:Generated_Source\PSoC4/cyfitter_cfg.c **** static void ClockSetup(void);
 210:Generated_Source\PSoC4/cyfitter_cfg.c **** CY_CFG_SECTION
 211:Generated_Source\PSoC4/cyfitter_cfg.c **** static void ClockSetup(void)
 212:Generated_Source\PSoC4/cyfitter_cfg.c **** {
 132              		.loc 1 212 0
 133              		.cfi_startproc
 134              		@ args = 0, pretend = 0, frame = 0
 135              		@ frame_needed = 0, uses_anonymous_args = 0
 136 0000 70B5     		push	{r4, r5, r6, lr}
 137              		.cfi_def_cfa_offset 16
 138              		.cfi_offset 4, -16
 139              		.cfi_offset 5, -12
 140              		.cfi_offset 6, -8
 141              		.cfi_offset 14, -4
 213:Generated_Source\PSoC4/cyfitter_cfg.c **** 
 214:Generated_Source\PSoC4/cyfitter_cfg.c **** 	/* Set Flash Cycles based on max possible frequency in case a glitch occurs during ClockSetup(). *
 215:Generated_Source\PSoC4/cyfitter_cfg.c **** 	CY_SET_REG32((void CYXDATA *)(CYREG_CPUSS_FLASH_CTL), (0x0012u));
 142              		.loc 1 215 0
 143 0002 1222     		movs	r2, #18
 144 0004 284B     		ldr	r3, .L8
 145 0006 1A60     		str	r2, [r3]
 216:Generated_Source\PSoC4/cyfitter_cfg.c **** 
 217:Generated_Source\PSoC4/cyfitter_cfg.c **** 	/* Start the WCO */
 218:Generated_Source\PSoC4/cyfitter_cfg.c **** 	CySysClkWcoStart();
 146              		.loc 1 218 0
 147 0008 FFF7FEFF 		bl	CySysClkWcoStart
 148              	.LVL15:
 219:Generated_Source\PSoC4/cyfitter_cfg.c **** 	CyDelayCycles(12000000u); /* WCO may take up to 500ms to start */
 149              		.loc 1 219 0
 150 000c 2748     		ldr	r0, .L8+4
 151 000e FFF7FEFF 		bl	CyDelayCycles
 152              	.LVL16:
 220:Generated_Source\PSoC4/cyfitter_cfg.c **** 
 221:Generated_Source\PSoC4/cyfitter_cfg.c **** 	/* Setup and trim IMO based on desired frequency. */
 222:Generated_Source\PSoC4/cyfitter_cfg.c **** 	CySysClkWriteImoFreq(48u);
 153              		.loc 1 222 0
 154 0012 3020     		movs	r0, #48
 155 0014 FFF7FEFF 		bl	CySysClkWriteImoFreq
 156              	.LVL17:
 223:Generated_Source\PSoC4/cyfitter_cfg.c **** 	CySysClkImoEnableWcoLock();
 157              		.loc 1 223 0
 158 0018 FFF7FEFF 		bl	CySysClkImoEnableWcoLock
 159              	.LVL18:
 224:Generated_Source\PSoC4/cyfitter_cfg.c **** 	/* CYDEV_WDT_CONFIG Starting address: CYDEV_WDT_CONFIG */
 225:Generated_Source\PSoC4/cyfitter_cfg.c **** 	CY_SET_REG32((void *)(CYREG_WDT_CONFIG), 0x40000000u);
 160              		.loc 1 225 0
 161 001c 244C     		ldr	r4, .L8+8
 162 001e 8025     		movs	r5, #128
 163 0020 ED05     		lsls	r5, r5, #23
 164 0022 2560     		str	r5, [r4]
 226:Generated_Source\PSoC4/cyfitter_cfg.c **** 
 227:Generated_Source\PSoC4/cyfitter_cfg.c **** 
 228:Generated_Source\PSoC4/cyfitter_cfg.c **** 	/* Setup phase aligned clocks */
 229:Generated_Source\PSoC4/cyfitter_cfg.c **** 	CY_SET_REG32((void *)CYREG_PERI_DIV_16_CTL0, 0x00000000u);
ARM GAS  C:\Users\austc\AppData\Local\Temp\cciv6yeu.s 			page 8


 165              		.loc 1 229 0
 166 0024 0022     		movs	r2, #0
 167 0026 234B     		ldr	r3, .L8+12
 168 0028 1A60     		str	r2, [r3]
 230:Generated_Source\PSoC4/cyfitter_cfg.c **** 	CY_SET_REG32((void *)CYREG_PERI_DIV_CMD, 0x8000FF40u);
 169              		.loc 1 230 0
 170 002a 234B     		ldr	r3, .L8+16
 171 002c 234A     		ldr	r2, .L8+20
 172 002e 1A60     		str	r2, [r3]
 231:Generated_Source\PSoC4/cyfitter_cfg.c **** 	CY_SET_REG32((void *)CYREG_PERI_DIV_24_5_CTL, 0x0752FF00u);
 173              		.loc 1 231 0
 174 0030 2349     		ldr	r1, .L8+24
 175 0032 244A     		ldr	r2, .L8+28
 176 0034 1160     		str	r1, [r2]
 232:Generated_Source\PSoC4/cyfitter_cfg.c **** 	CY_SET_REG32((void *)CYREG_PERI_DIV_CMD, 0x8000FFC0u);
 177              		.loc 1 232 0
 178 0036 244A     		ldr	r2, .L8+32
 179 0038 1A60     		str	r2, [r3]
 233:Generated_Source\PSoC4/cyfitter_cfg.c **** 	CY_SET_REG32((void *)CYREG_PERI_DIV_16_CTL4, 0x00BB7F00u);
 180              		.loc 1 233 0
 181 003a 2449     		ldr	r1, .L8+36
 182 003c 244A     		ldr	r2, .L8+40
 183 003e 1160     		str	r1, [r2]
 234:Generated_Source\PSoC4/cyfitter_cfg.c **** 	CY_SET_REG32((void *)CYREG_PERI_DIV_CMD, 0x8000FF44u);
 184              		.loc 1 234 0
 185 0040 244A     		ldr	r2, .L8+44
 186 0042 1A60     		str	r2, [r3]
 235:Generated_Source\PSoC4/cyfitter_cfg.c **** 	CY_SET_REG32((void *)CYREG_PERI_DIV_16_CTL1, 0x00000100u);
 187              		.loc 1 235 0
 188 0044 8021     		movs	r1, #128
 189 0046 4900     		lsls	r1, r1, #1
 190 0048 234A     		ldr	r2, .L8+48
 191 004a 1160     		str	r1, [r2]
 236:Generated_Source\PSoC4/cyfitter_cfg.c **** 	CY_SET_REG32((void *)CYREG_PERI_DIV_CMD, 0x8000FF41u);
 192              		.loc 1 236 0
 193 004c 234A     		ldr	r2, .L8+52
 194 004e 1A60     		str	r2, [r3]
 237:Generated_Source\PSoC4/cyfitter_cfg.c **** 	CY_SET_REG32((void *)CYREG_PERI_DIV_16_CTL2, 0x00000800u);
 195              		.loc 1 237 0
 196 0050 8021     		movs	r1, #128
 197 0052 0901     		lsls	r1, r1, #4
 198 0054 224A     		ldr	r2, .L8+56
 199 0056 1160     		str	r1, [r2]
 238:Generated_Source\PSoC4/cyfitter_cfg.c **** 	CY_SET_REG32((void *)CYREG_PERI_DIV_CMD, 0x8000FF42u);
 200              		.loc 1 238 0
 201 0058 224A     		ldr	r2, .L8+60
 202 005a 1A60     		str	r2, [r3]
 239:Generated_Source\PSoC4/cyfitter_cfg.c **** 	CY_SET_REG32((void *)CYREG_PERI_DIV_16_CTL3, 0x00002200u);
 203              		.loc 1 239 0
 204 005c 8821     		movs	r1, #136
 205 005e 8901     		lsls	r1, r1, #6
 206 0060 214A     		ldr	r2, .L8+64
 207 0062 1160     		str	r1, [r2]
 240:Generated_Source\PSoC4/cyfitter_cfg.c **** 	CY_SET_REG32((void *)CYREG_PERI_DIV_CMD, 0x8000FF43u);
 208              		.loc 1 240 0
 209 0064 214A     		ldr	r2, .L8+68
 210 0066 1A60     		str	r2, [r3]
ARM GAS  C:\Users\austc\AppData\Local\Temp\cciv6yeu.s 			page 9


 241:Generated_Source\PSoC4/cyfitter_cfg.c **** 
 242:Generated_Source\PSoC4/cyfitter_cfg.c **** 	/* CYDEV_CLK_IMO_CONFIG Starting address: CYDEV_CLK_IMO_CONFIG */
 243:Generated_Source\PSoC4/cyfitter_cfg.c **** 	CY_SET_REG32((void *)(CYREG_CLK_IMO_CONFIG), 0x82000000u);
 211              		.loc 1 243 0
 212 0068 8222     		movs	r2, #130
 213 006a 1206     		lsls	r2, r2, #24
 214 006c 204B     		ldr	r3, .L8+72
 215 006e 1A60     		str	r2, [r3]
 244:Generated_Source\PSoC4/cyfitter_cfg.c **** 
 245:Generated_Source\PSoC4/cyfitter_cfg.c **** 	/* CYDEV_CLK_SELECT Starting address: CYDEV_CLK_SELECT */
 246:Generated_Source\PSoC4/cyfitter_cfg.c **** 	CY_SET_REG32((void *)(CYREG_CLK_SELECT), 0x00060000u);
 216              		.loc 1 246 0
 217 0070 C022     		movs	r2, #192
 218 0072 D202     		lsls	r2, r2, #11
 219 0074 1F4B     		ldr	r3, .L8+76
 220 0076 1A60     		str	r2, [r3]
 247:Generated_Source\PSoC4/cyfitter_cfg.c **** 
 248:Generated_Source\PSoC4/cyfitter_cfg.c **** 	/* CYDEV_PERI_PCLK_CTL22 Starting address: CYDEV_PERI_PCLK_CTL22 */
 249:Generated_Source\PSoC4/cyfitter_cfg.c **** 	CY_SET_REG32((void *)(CYREG_PERI_PCLK_CTL22), 0x000000C0u);
 221              		.loc 1 249 0
 222 0078 C022     		movs	r2, #192
 223 007a 1F4B     		ldr	r3, .L8+80
 224 007c 1A60     		str	r2, [r3]
 250:Generated_Source\PSoC4/cyfitter_cfg.c **** 
 251:Generated_Source\PSoC4/cyfitter_cfg.c **** 	/* CYDEV_PERI_PCLK_CTL20 Starting address: CYDEV_PERI_PCLK_CTL20 */
 252:Generated_Source\PSoC4/cyfitter_cfg.c **** 	CY_SET_REG32((void *)(CYREG_PERI_PCLK_CTL20), 0x00000044u);
 225              		.loc 1 252 0
 226 007e 7C3A     		subs	r2, r2, #124
 227 0080 1E4B     		ldr	r3, .L8+84
 228 0082 1A60     		str	r2, [r3]
 253:Generated_Source\PSoC4/cyfitter_cfg.c **** 
 254:Generated_Source\PSoC4/cyfitter_cfg.c **** 	/* CYDEV_PERI_PCLK_CTL18 Starting address: CYDEV_PERI_PCLK_CTL18 */
 255:Generated_Source\PSoC4/cyfitter_cfg.c **** 	CY_SET_REG32((void *)(CYREG_PERI_PCLK_CTL18), 0x00000041u);
 229              		.loc 1 255 0
 230 0084 033A     		subs	r2, r2, #3
 231 0086 1E4B     		ldr	r3, .L8+88
 232 0088 1A60     		str	r2, [r3]
 256:Generated_Source\PSoC4/cyfitter_cfg.c **** 
 257:Generated_Source\PSoC4/cyfitter_cfg.c **** 	/* CYDEV_PERI_PCLK_CTL10 Starting address: CYDEV_PERI_PCLK_CTL10 */
 258:Generated_Source\PSoC4/cyfitter_cfg.c **** 	CY_SET_REG32((void *)(CYREG_PERI_PCLK_CTL10), 0x00000042u);
 233              		.loc 1 258 0
 234 008a 0132     		adds	r2, r2, #1
 235 008c 1D4B     		ldr	r3, .L8+92
 236 008e 1A60     		str	r2, [r3]
 259:Generated_Source\PSoC4/cyfitter_cfg.c **** 
 260:Generated_Source\PSoC4/cyfitter_cfg.c **** 	/* CYDEV_PERI_PCLK_CTL3 Starting address: CYDEV_PERI_PCLK_CTL3 */
 261:Generated_Source\PSoC4/cyfitter_cfg.c **** 	CY_SET_REG32((void *)(CYREG_PERI_PCLK_CTL3), 0x00000043u);
 237              		.loc 1 261 0
 238 0090 0132     		adds	r2, r2, #1
 239 0092 1D4B     		ldr	r3, .L8+96
 240 0094 1A60     		str	r2, [r3]
 262:Generated_Source\PSoC4/cyfitter_cfg.c **** 
 263:Generated_Source\PSoC4/cyfitter_cfg.c **** 	(void)CyIntSetVector(8u, &CySysWdtIsr);
 241              		.loc 1 263 0
 242 0096 1D49     		ldr	r1, .L8+100
 243 0098 0820     		movs	r0, #8
 244 009a FFF7FEFF 		bl	CyIntSetVector
ARM GAS  C:\Users\austc\AppData\Local\Temp\cciv6yeu.s 			page 10


 245              	.LVL19:
 264:Generated_Source\PSoC4/cyfitter_cfg.c **** 	CyIntEnable(8u);
 246              		.loc 1 264 0
 247 009e 0820     		movs	r0, #8
 248 00a0 FFF7FEFF 		bl	CyIntEnable
 249              	.LVL20:
 265:Generated_Source\PSoC4/cyfitter_cfg.c **** 	CY_SET_REG32((void *)(CYREG_WDT_CONFIG), 0x40000000u);
 250              		.loc 1 265 0
 251 00a4 2560     		str	r5, [r4]
 266:Generated_Source\PSoC4/cyfitter_cfg.c **** }
 252              		.loc 1 266 0
 253              		@ sp needed
 254 00a6 70BD     		pop	{r4, r5, r6, pc}
 255              	.L9:
 256              		.align	2
 257              	.L8:
 258 00a8 30001040 		.word	1074790448
 259 00ac 001BB700 		.word	12000000
 260 00b0 0C020B40 		.word	1074463244
 261 00b4 00030140 		.word	1073808128
 262 00b8 00000140 		.word	1073807360
 263 00bc 40FF0080 		.word	-2147418304
 264 00c0 00FF5207 		.word	122879744
 265 00c4 00050140 		.word	1073808640
 266 00c8 C0FF0080 		.word	-2147418176
 267 00cc 007FBB00 		.word	12287744
 268 00d0 10030140 		.word	1073808144
 269 00d4 44FF0080 		.word	-2147418300
 270 00d8 04030140 		.word	1073808132
 271 00dc 41FF0080 		.word	-2147418303
 272 00e0 08030140 		.word	1073808136
 273 00e4 42FF0080 		.word	-2147418302
 274 00e8 0C030140 		.word	1073808140
 275 00ec 43FF0080 		.word	-2147418301
 276 00f0 08010B40 		.word	1074462984
 277 00f4 00010B40 		.word	1074462976
 278 00f8 58010140 		.word	1073807704
 279 00fc 50010140 		.word	1073807696
 280 0100 48010140 		.word	1073807688
 281 0104 28010140 		.word	1073807656
 282 0108 0C010140 		.word	1073807628
 283 010c 00000000 		.word	CySysWdtIsr
 284              		.cfi_endproc
 285              	.LFE38:
 286              		.size	ClockSetup, .-ClockSetup
 287              		.section	.text.SetAnalogRoutingPumps,"ax",%progbits
 288              		.align	2
 289              		.global	SetAnalogRoutingPumps
 290              		.code	16
 291              		.thumb_func
 292              		.type	SetAnalogRoutingPumps, %function
 293              	SetAnalogRoutingPumps:
 294              	.LFB40:
 267:Generated_Source\PSoC4/cyfitter_cfg.c **** 
 268:Generated_Source\PSoC4/cyfitter_cfg.c **** 
 269:Generated_Source\PSoC4/cyfitter_cfg.c **** /* Analog API Functions */
 270:Generated_Source\PSoC4/cyfitter_cfg.c **** 
ARM GAS  C:\Users\austc\AppData\Local\Temp\cciv6yeu.s 			page 11


 271:Generated_Source\PSoC4/cyfitter_cfg.c **** 
 272:Generated_Source\PSoC4/cyfitter_cfg.c **** /*******************************************************************************
 273:Generated_Source\PSoC4/cyfitter_cfg.c **** * Function Name: AnalogSetDefault
 274:Generated_Source\PSoC4/cyfitter_cfg.c **** ********************************************************************************
 275:Generated_Source\PSoC4/cyfitter_cfg.c **** *
 276:Generated_Source\PSoC4/cyfitter_cfg.c **** * Summary:
 277:Generated_Source\PSoC4/cyfitter_cfg.c **** *  Sets up the analog portions of the chip to default values based on chip
 278:Generated_Source\PSoC4/cyfitter_cfg.c **** *  configuration options from the project.
 279:Generated_Source\PSoC4/cyfitter_cfg.c **** *
 280:Generated_Source\PSoC4/cyfitter_cfg.c **** * Parameters:
 281:Generated_Source\PSoC4/cyfitter_cfg.c **** *  void
 282:Generated_Source\PSoC4/cyfitter_cfg.c **** *
 283:Generated_Source\PSoC4/cyfitter_cfg.c **** * Return:
 284:Generated_Source\PSoC4/cyfitter_cfg.c **** *  void
 285:Generated_Source\PSoC4/cyfitter_cfg.c **** *
 286:Generated_Source\PSoC4/cyfitter_cfg.c **** *******************************************************************************/
 287:Generated_Source\PSoC4/cyfitter_cfg.c **** static void AnalogSetDefault(void);
 288:Generated_Source\PSoC4/cyfitter_cfg.c **** static void AnalogSetDefault(void)
 289:Generated_Source\PSoC4/cyfitter_cfg.c **** {
 290:Generated_Source\PSoC4/cyfitter_cfg.c **** 	CY_SET_XTND_REG32((void CYFAR *)CYREG_CTBM0_DFT_CTRL, 0x00000003u);
 291:Generated_Source\PSoC4/cyfitter_cfg.c **** 	CY_SET_XTND_REG32((void CYFAR *)CYREG_CTBM1_DFT_CTRL, 0x00000003u);
 292:Generated_Source\PSoC4/cyfitter_cfg.c **** 	CY_SET_XTND_REG32((void CYFAR *)CYREG_SAR_CTRL, 0x80000000u);
 293:Generated_Source\PSoC4/cyfitter_cfg.c **** 	CY_SET_XTND_REG32((void CYFAR *)CYREG_SAR_MUX_SWITCH0, 0x00000081u);
 294:Generated_Source\PSoC4/cyfitter_cfg.c **** 	CY_SET_XTND_REG32((void CYFAR *)CYREG_SAR_MUX_SWITCH_HW_CTRL, 0x00000081u);
 295:Generated_Source\PSoC4/cyfitter_cfg.c **** 	CY_SET_XTND_REG32((void CYFAR *)CYREG_PASS_DSAB_DSAB_CTRL, 0x00000000u);
 296:Generated_Source\PSoC4/cyfitter_cfg.c **** 	SetAnalogRoutingPumps(1);
 297:Generated_Source\PSoC4/cyfitter_cfg.c **** }
 298:Generated_Source\PSoC4/cyfitter_cfg.c **** 
 299:Generated_Source\PSoC4/cyfitter_cfg.c **** 
 300:Generated_Source\PSoC4/cyfitter_cfg.c **** /*******************************************************************************
 301:Generated_Source\PSoC4/cyfitter_cfg.c **** * Function Name: SetAnalogRoutingPumps
 302:Generated_Source\PSoC4/cyfitter_cfg.c **** ********************************************************************************
 303:Generated_Source\PSoC4/cyfitter_cfg.c **** *
 304:Generated_Source\PSoC4/cyfitter_cfg.c **** * Summary:
 305:Generated_Source\PSoC4/cyfitter_cfg.c **** * Enables or disables the analog pumps feeding analog routing switches.
 306:Generated_Source\PSoC4/cyfitter_cfg.c **** * Intended to be called at startup, based on the Vdda system configuration;
 307:Generated_Source\PSoC4/cyfitter_cfg.c **** * may be called during operation when the user informs us that the Vdda voltage crossed the pump th
 308:Generated_Source\PSoC4/cyfitter_cfg.c **** *
 309:Generated_Source\PSoC4/cyfitter_cfg.c **** * Parameters:
 310:Generated_Source\PSoC4/cyfitter_cfg.c **** *  enabled - 1 to enable the pumps, 0 to disable the pumps
 311:Generated_Source\PSoC4/cyfitter_cfg.c **** *
 312:Generated_Source\PSoC4/cyfitter_cfg.c **** * Return:
 313:Generated_Source\PSoC4/cyfitter_cfg.c **** *  void
 314:Generated_Source\PSoC4/cyfitter_cfg.c **** *
 315:Generated_Source\PSoC4/cyfitter_cfg.c **** *******************************************************************************/
 316:Generated_Source\PSoC4/cyfitter_cfg.c **** void SetAnalogRoutingPumps(uint8 enabled)
 317:Generated_Source\PSoC4/cyfitter_cfg.c **** {
 295              		.loc 1 317 0
 296              		.cfi_startproc
 297              		@ args = 0, pretend = 0, frame = 0
 298              		@ frame_needed = 0, uses_anonymous_args = 0
 299              		@ link register save eliminated.
 300              	.LVL21:
 318:Generated_Source\PSoC4/cyfitter_cfg.c **** 	uint32 regValue = CY_GET_XTND_REG32((void *)(CYREG_SAR_PUMP_CTRL));
 301              		.loc 1 318 0
 302 0000 064B     		ldr	r3, .L13
 303 0002 1B68     		ldr	r3, [r3]
ARM GAS  C:\Users\austc\AppData\Local\Temp\cciv6yeu.s 			page 12


 304              	.LVL22:
 319:Generated_Source\PSoC4/cyfitter_cfg.c **** 	if (enabled != 0u)
 305              		.loc 1 319 0
 306 0004 0028     		cmp	r0, #0
 307 0006 03D0     		beq	.L11
 320:Generated_Source\PSoC4/cyfitter_cfg.c **** 	{
 321:Generated_Source\PSoC4/cyfitter_cfg.c **** 		regValue |= 0x80000000u;
 308              		.loc 1 321 0
 309 0008 8022     		movs	r2, #128
 310 000a 1206     		lsls	r2, r2, #24
 311 000c 1343     		orrs	r3, r2
 312              	.LVL23:
 313 000e 01E0     		b	.L12
 314              	.L11:
 322:Generated_Source\PSoC4/cyfitter_cfg.c **** 	}
 323:Generated_Source\PSoC4/cyfitter_cfg.c **** 	else
 324:Generated_Source\PSoC4/cyfitter_cfg.c **** 	{
 325:Generated_Source\PSoC4/cyfitter_cfg.c **** 		regValue &= ~0x80000000u;
 315              		.loc 1 325 0
 316 0010 5B00     		lsls	r3, r3, #1
 317              	.LVL24:
 318 0012 5B08     		lsrs	r3, r3, #1
 319              	.LVL25:
 320              	.L12:
 326:Generated_Source\PSoC4/cyfitter_cfg.c **** 	}
 327:Generated_Source\PSoC4/cyfitter_cfg.c **** 	CY_SET_XTND_REG32((void *)(CYREG_SAR_PUMP_CTRL), regValue);
 321              		.loc 1 327 0
 322 0014 014A     		ldr	r2, .L13
 323 0016 1360     		str	r3, [r2]
 328:Generated_Source\PSoC4/cyfitter_cfg.c **** }
 324              		.loc 1 328 0
 325              		@ sp needed
 326 0018 7047     		bx	lr
 327              	.L14:
 328 001a C046     		.align	2
 329              	.L13:
 330 001c 80033A40 		.word	1077543808
 331              		.cfi_endproc
 332              	.LFE40:
 333              		.size	SetAnalogRoutingPumps, .-SetAnalogRoutingPumps
 334              		.section	.text.AnalogSetDefault,"ax",%progbits
 335              		.align	2
 336              		.code	16
 337              		.thumb_func
 338              		.type	AnalogSetDefault, %function
 339              	AnalogSetDefault:
 340              	.LFB39:
 289:Generated_Source\PSoC4/cyfitter_cfg.c **** 	CY_SET_XTND_REG32((void CYFAR *)CYREG_CTBM0_DFT_CTRL, 0x00000003u);
 341              		.loc 1 289 0
 342              		.cfi_startproc
 343              		@ args = 0, pretend = 0, frame = 0
 344              		@ frame_needed = 0, uses_anonymous_args = 0
 345 0000 10B5     		push	{r4, lr}
 346              		.cfi_def_cfa_offset 8
 347              		.cfi_offset 4, -8
 348              		.cfi_offset 14, -4
 290:Generated_Source\PSoC4/cyfitter_cfg.c **** 	CY_SET_XTND_REG32((void CYFAR *)CYREG_CTBM1_DFT_CTRL, 0x00000003u);
ARM GAS  C:\Users\austc\AppData\Local\Temp\cciv6yeu.s 			page 13


 349              		.loc 1 290 0
 350 0002 0323     		movs	r3, #3
 351 0004 094A     		ldr	r2, .L16
 352 0006 1360     		str	r3, [r2]
 291:Generated_Source\PSoC4/cyfitter_cfg.c **** 	CY_SET_XTND_REG32((void CYFAR *)CYREG_SAR_CTRL, 0x80000000u);
 353              		.loc 1 291 0
 354 0008 094A     		ldr	r2, .L16+4
 355 000a 1360     		str	r3, [r2]
 292:Generated_Source\PSoC4/cyfitter_cfg.c **** 	CY_SET_XTND_REG32((void CYFAR *)CYREG_SAR_MUX_SWITCH0, 0x00000081u);
 356              		.loc 1 292 0
 357 000c 8022     		movs	r2, #128
 358 000e 1206     		lsls	r2, r2, #24
 359 0010 084B     		ldr	r3, .L16+8
 360 0012 1A60     		str	r2, [r3]
 293:Generated_Source\PSoC4/cyfitter_cfg.c **** 	CY_SET_XTND_REG32((void CYFAR *)CYREG_SAR_MUX_SWITCH_HW_CTRL, 0x00000081u);
 361              		.loc 1 293 0
 362 0014 8123     		movs	r3, #129
 363 0016 084A     		ldr	r2, .L16+12
 364 0018 1360     		str	r3, [r2]
 294:Generated_Source\PSoC4/cyfitter_cfg.c **** 	CY_SET_XTND_REG32((void CYFAR *)CYREG_PASS_DSAB_DSAB_CTRL, 0x00000000u);
 365              		.loc 1 294 0
 366 001a 084A     		ldr	r2, .L16+16
 367 001c 1360     		str	r3, [r2]
 295:Generated_Source\PSoC4/cyfitter_cfg.c **** 	SetAnalogRoutingPumps(1);
 368              		.loc 1 295 0
 369 001e 0022     		movs	r2, #0
 370 0020 074B     		ldr	r3, .L16+20
 371 0022 1A60     		str	r2, [r3]
 296:Generated_Source\PSoC4/cyfitter_cfg.c **** }
 372              		.loc 1 296 0
 373 0024 0120     		movs	r0, #1
 374 0026 FFF7FEFF 		bl	SetAnalogRoutingPumps
 375              	.LVL26:
 297:Generated_Source\PSoC4/cyfitter_cfg.c **** 
 376              		.loc 1 297 0
 377              		@ sp needed
 378 002a 10BD     		pop	{r4, pc}
 379              	.L17:
 380              		.align	2
 381              	.L16:
 382 002c 30003040 		.word	1076887600
 383 0030 30003140 		.word	1076953136
 384 0034 00003A40 		.word	1077542912
 385 0038 00033A40 		.word	1077543680
 386 003c 40033A40 		.word	1077543744
 387 0040 000E3F40 		.word	1077874176
 388              		.cfi_endproc
 389              	.LFE39:
 390              		.size	AnalogSetDefault, .-AnalogSetDefault
 391              		.section	.psocinit
 392              		.align	2
 393              		.global	cyfitter_cfg
 394              		.code	16
 395              		.thumb_func
 396              		.type	cyfitter_cfg, %function
 397              	cyfitter_cfg:
 398              	.LFB41:
ARM GAS  C:\Users\austc\AppData\Local\Temp\cciv6yeu.s 			page 14


 329:Generated_Source\PSoC4/cyfitter_cfg.c **** 
 330:Generated_Source\PSoC4/cyfitter_cfg.c **** 
 331:Generated_Source\PSoC4/cyfitter_cfg.c **** 
 332:Generated_Source\PSoC4/cyfitter_cfg.c **** 
 333:Generated_Source\PSoC4/cyfitter_cfg.c **** /*******************************************************************************
 334:Generated_Source\PSoC4/cyfitter_cfg.c **** * Function Name: cyfitter_cfg
 335:Generated_Source\PSoC4/cyfitter_cfg.c **** ********************************************************************************
 336:Generated_Source\PSoC4/cyfitter_cfg.c **** * Summary:
 337:Generated_Source\PSoC4/cyfitter_cfg.c **** *  This function is called by the start-up code for the selected device. It
 338:Generated_Source\PSoC4/cyfitter_cfg.c **** *  performs all of the necessary device configuration based on the design
 339:Generated_Source\PSoC4/cyfitter_cfg.c **** *  settings.  This includes settings from the Design Wide Resources (DWR) such
 340:Generated_Source\PSoC4/cyfitter_cfg.c **** *  as Clocks and Pins as well as any component configuration that is necessary.
 341:Generated_Source\PSoC4/cyfitter_cfg.c **** *
 342:Generated_Source\PSoC4/cyfitter_cfg.c **** * Parameters:
 343:Generated_Source\PSoC4/cyfitter_cfg.c **** *   void
 344:Generated_Source\PSoC4/cyfitter_cfg.c **** *
 345:Generated_Source\PSoC4/cyfitter_cfg.c **** * Return:
 346:Generated_Source\PSoC4/cyfitter_cfg.c **** *   void
 347:Generated_Source\PSoC4/cyfitter_cfg.c **** *
 348:Generated_Source\PSoC4/cyfitter_cfg.c **** *******************************************************************************/
 349:Generated_Source\PSoC4/cyfitter_cfg.c **** CY_CFG_SECTION
 350:Generated_Source\PSoC4/cyfitter_cfg.c **** void cyfitter_cfg(void)
 351:Generated_Source\PSoC4/cyfitter_cfg.c **** {
 399              		.loc 1 351 0
 400              		.cfi_startproc
 401              		@ args = 0, pretend = 0, frame = 0
 402              		@ frame_needed = 0, uses_anonymous_args = 0
 403 0110 10B5     		push	{r4, lr}
 404              		.cfi_def_cfa_offset 8
 405              		.cfi_offset 4, -8
 406              		.cfi_offset 14, -4
 352:Generated_Source\PSoC4/cyfitter_cfg.c **** 	/* Disable interrupts by default. Let user enable if/when they want. */
 353:Generated_Source\PSoC4/cyfitter_cfg.c **** 	CyGlobalIntDisable;
 407              		.loc 1 353 0
 408              		.syntax divided
 409              	@ 353 "Generated_Source\PSoC4\cyfitter_cfg.c" 1
 410 0112 72B6     		CPSID   i
 411              	@ 0 "" 2
 354:Generated_Source\PSoC4/cyfitter_cfg.c **** 
 355:Generated_Source\PSoC4/cyfitter_cfg.c **** 	/* Enable the clock in the interrupt controller for the routed interrupts */
 356:Generated_Source\PSoC4/cyfitter_cfg.c **** 	CY_SET_REG8((void *)CYREG_UDB_UDB_INT_CLK_CTL, 0x01u);
 412              		.loc 1 356 0
 413              		.thumb
 414              		.syntax unified
 415 0114 0122     		movs	r2, #1
 416 0116 3C4B     		ldr	r3, .L21
 417 0118 1A70     		strb	r2, [r3]
 418              	.LVL27:
 419              	.LBB3:
 357:Generated_Source\PSoC4/cyfitter_cfg.c **** 	{
 358:Generated_Source\PSoC4/cyfitter_cfg.c **** 		static const uint32 CYCODE cy_cfg_addr_table[] = {
 359:Generated_Source\PSoC4/cyfitter_cfg.c **** 			0x400F0003u, /* Base address: 0x400F0000 Count: 3 */
 360:Generated_Source\PSoC4/cyfitter_cfg.c **** 			0x400F303Fu, /* Base address: 0x400F3000 Count: 63 */
 361:Generated_Source\PSoC4/cyfitter_cfg.c **** 			0x400F312Eu, /* Base address: 0x400F3100 Count: 46 */
 362:Generated_Source\PSoC4/cyfitter_cfg.c **** 			0x400F325Cu, /* Base address: 0x400F3200 Count: 92 */
 363:Generated_Source\PSoC4/cyfitter_cfg.c **** 			0x400F333Eu, /* Base address: 0x400F3300 Count: 62 */
 364:Generated_Source\PSoC4/cyfitter_cfg.c **** 			0x400F343Fu, /* Base address: 0x400F3400 Count: 63 */
ARM GAS  C:\Users\austc\AppData\Local\Temp\cciv6yeu.s 			page 15


 365:Generated_Source\PSoC4/cyfitter_cfg.c **** 			0x400F3536u, /* Base address: 0x400F3500 Count: 54 */
 366:Generated_Source\PSoC4/cyfitter_cfg.c **** 			0x400F4005u, /* Base address: 0x400F4000 Count: 5 */
 367:Generated_Source\PSoC4/cyfitter_cfg.c **** 			0x400F4107u, /* Base address: 0x400F4100 Count: 7 */
 368:Generated_Source\PSoC4/cyfitter_cfg.c **** 			0x400F4205u, /* Base address: 0x400F4200 Count: 5 */
 369:Generated_Source\PSoC4/cyfitter_cfg.c **** 			0x400F4408u, /* Base address: 0x400F4400 Count: 8 */
 370:Generated_Source\PSoC4/cyfitter_cfg.c **** 			0x400F4507u, /* Base address: 0x400F4500 Count: 7 */
 371:Generated_Source\PSoC4/cyfitter_cfg.c **** 			0x400F4603u, /* Base address: 0x400F4600 Count: 3 */
 372:Generated_Source\PSoC4/cyfitter_cfg.c **** 			0x400F6003u, /* Base address: 0x400F6000 Count: 3 */
 373:Generated_Source\PSoC4/cyfitter_cfg.c **** 		};
 374:Generated_Source\PSoC4/cyfitter_cfg.c **** 
 375:Generated_Source\PSoC4/cyfitter_cfg.c **** 		static const cy_cfg_addrvalue_t CYCODE cy_cfg_data_table[] = {
 376:Generated_Source\PSoC4/cyfitter_cfg.c **** 			{0x80u, 0x6Fu},
 377:Generated_Source\PSoC4/cyfitter_cfg.c **** 			{0x84u, 0x0Fu},
 378:Generated_Source\PSoC4/cyfitter_cfg.c **** 			{0x85u, 0x03u},
 379:Generated_Source\PSoC4/cyfitter_cfg.c **** 			{0x01u, 0x10u},
 380:Generated_Source\PSoC4/cyfitter_cfg.c **** 			{0x07u, 0x10u},
 381:Generated_Source\PSoC4/cyfitter_cfg.c **** 			{0x09u, 0x04u},
 382:Generated_Source\PSoC4/cyfitter_cfg.c **** 			{0x0Bu, 0x08u},
 383:Generated_Source\PSoC4/cyfitter_cfg.c **** 			{0x0Du, 0x02u},
 384:Generated_Source\PSoC4/cyfitter_cfg.c **** 			{0x0Fu, 0x1Du},
 385:Generated_Source\PSoC4/cyfitter_cfg.c **** 			{0x14u, 0x04u},
 386:Generated_Source\PSoC4/cyfitter_cfg.c **** 			{0x15u, 0x1Cu},
 387:Generated_Source\PSoC4/cyfitter_cfg.c **** 			{0x18u, 0x01u},
 388:Generated_Source\PSoC4/cyfitter_cfg.c **** 			{0x19u, 0x04u},
 389:Generated_Source\PSoC4/cyfitter_cfg.c **** 			{0x1Bu, 0x08u},
 390:Generated_Source\PSoC4/cyfitter_cfg.c **** 			{0x1Du, 0x1Cu},
 391:Generated_Source\PSoC4/cyfitter_cfg.c **** 			{0x22u, 0x03u},
 392:Generated_Source\PSoC4/cyfitter_cfg.c **** 			{0x23u, 0x03u},
 393:Generated_Source\PSoC4/cyfitter_cfg.c **** 			{0x25u, 0x03u},
 394:Generated_Source\PSoC4/cyfitter_cfg.c **** 			{0x2Au, 0x0Cu},
 395:Generated_Source\PSoC4/cyfitter_cfg.c **** 			{0x2Bu, 0x20u},
 396:Generated_Source\PSoC4/cyfitter_cfg.c **** 			{0x30u, 0x04u},
 397:Generated_Source\PSoC4/cyfitter_cfg.c **** 			{0x31u, 0x3Cu},
 398:Generated_Source\PSoC4/cyfitter_cfg.c **** 			{0x32u, 0x08u},
 399:Generated_Source\PSoC4/cyfitter_cfg.c **** 			{0x34u, 0x02u},
 400:Generated_Source\PSoC4/cyfitter_cfg.c **** 			{0x35u, 0x02u},
 401:Generated_Source\PSoC4/cyfitter_cfg.c **** 			{0x36u, 0x01u},
 402:Generated_Source\PSoC4/cyfitter_cfg.c **** 			{0x37u, 0x01u},
 403:Generated_Source\PSoC4/cyfitter_cfg.c **** 			{0x3Eu, 0x41u},
 404:Generated_Source\PSoC4/cyfitter_cfg.c **** 			{0x3Fu, 0x50u},
 405:Generated_Source\PSoC4/cyfitter_cfg.c **** 			{0x54u, 0x0Fu},
 406:Generated_Source\PSoC4/cyfitter_cfg.c **** 			{0x58u, 0x04u},
 407:Generated_Source\PSoC4/cyfitter_cfg.c **** 			{0x59u, 0x04u},
 408:Generated_Source\PSoC4/cyfitter_cfg.c **** 			{0x5Bu, 0x04u},
 409:Generated_Source\PSoC4/cyfitter_cfg.c **** 			{0x5Cu, 0x11u},
 410:Generated_Source\PSoC4/cyfitter_cfg.c **** 			{0x5Du, 0x10u},
 411:Generated_Source\PSoC4/cyfitter_cfg.c **** 			{0x5Fu, 0x05u},
 412:Generated_Source\PSoC4/cyfitter_cfg.c **** 			{0x81u, 0x05u},
 413:Generated_Source\PSoC4/cyfitter_cfg.c **** 			{0x83u, 0x0Au},
 414:Generated_Source\PSoC4/cyfitter_cfg.c **** 			{0x84u, 0x9Eu},
 415:Generated_Source\PSoC4/cyfitter_cfg.c **** 			{0x85u, 0x07u},
 416:Generated_Source\PSoC4/cyfitter_cfg.c **** 			{0x86u, 0x60u},
 417:Generated_Source\PSoC4/cyfitter_cfg.c **** 			{0x88u, 0x94u},
 418:Generated_Source\PSoC4/cyfitter_cfg.c **** 			{0x8Au, 0x60u},
 419:Generated_Source\PSoC4/cyfitter_cfg.c **** 			{0x92u, 0x0Fu},
 420:Generated_Source\PSoC4/cyfitter_cfg.c **** 			{0x95u, 0x0Cu},
 421:Generated_Source\PSoC4/cyfitter_cfg.c **** 			{0x97u, 0x03u},
ARM GAS  C:\Users\austc\AppData\Local\Temp\cciv6yeu.s 			page 16


 422:Generated_Source\PSoC4/cyfitter_cfg.c **** 			{0x98u, 0x73u},
 423:Generated_Source\PSoC4/cyfitter_cfg.c **** 			{0x99u, 0x0Au},
 424:Generated_Source\PSoC4/cyfitter_cfg.c **** 			{0x9Bu, 0x05u},
 425:Generated_Source\PSoC4/cyfitter_cfg.c **** 			{0x9Cu, 0x30u},
 426:Generated_Source\PSoC4/cyfitter_cfg.c **** 			{0x9Du, 0x0Fu},
 427:Generated_Source\PSoC4/cyfitter_cfg.c **** 			{0x9Eu, 0xC9u},
 428:Generated_Source\PSoC4/cyfitter_cfg.c **** 			{0xA4u, 0xCFu},
 429:Generated_Source\PSoC4/cyfitter_cfg.c **** 			{0xA5u, 0x03u},
 430:Generated_Source\PSoC4/cyfitter_cfg.c **** 			{0xA6u, 0x30u},
 431:Generated_Source\PSoC4/cyfitter_cfg.c **** 			{0xA7u, 0x0Cu},
 432:Generated_Source\PSoC4/cyfitter_cfg.c **** 			{0xACu, 0xFDu},
 433:Generated_Source\PSoC4/cyfitter_cfg.c **** 			{0xAEu, 0x02u},
 434:Generated_Source\PSoC4/cyfitter_cfg.c **** 			{0xB1u, 0x0Fu},
 435:Generated_Source\PSoC4/cyfitter_cfg.c **** 			{0xB2u, 0xFFu},
 436:Generated_Source\PSoC4/cyfitter_cfg.c **** 			{0xBEu, 0x04u},
 437:Generated_Source\PSoC4/cyfitter_cfg.c **** 			{0xD8u, 0x04u},
 438:Generated_Source\PSoC4/cyfitter_cfg.c **** 			{0xD9u, 0x04u},
 439:Generated_Source\PSoC4/cyfitter_cfg.c **** 			{0xDBu, 0x04u},
 440:Generated_Source\PSoC4/cyfitter_cfg.c **** 			{0xDCu, 0x10u},
 441:Generated_Source\PSoC4/cyfitter_cfg.c **** 			{0xDFu, 0x01u},
 442:Generated_Source\PSoC4/cyfitter_cfg.c **** 			{0x05u, 0x10u},
 443:Generated_Source\PSoC4/cyfitter_cfg.c **** 			{0x06u, 0x18u},
 444:Generated_Source\PSoC4/cyfitter_cfg.c **** 			{0x07u, 0x10u},
 445:Generated_Source\PSoC4/cyfitter_cfg.c **** 			{0x0Au, 0x18u},
 446:Generated_Source\PSoC4/cyfitter_cfg.c **** 			{0x0Eu, 0x04u},
 447:Generated_Source\PSoC4/cyfitter_cfg.c **** 			{0x0Fu, 0x41u},
 448:Generated_Source\PSoC4/cyfitter_cfg.c **** 			{0x10u, 0x88u},
 449:Generated_Source\PSoC4/cyfitter_cfg.c **** 			{0x13u, 0x20u},
 450:Generated_Source\PSoC4/cyfitter_cfg.c **** 			{0x15u, 0x08u},
 451:Generated_Source\PSoC4/cyfitter_cfg.c **** 			{0x17u, 0x44u},
 452:Generated_Source\PSoC4/cyfitter_cfg.c **** 			{0x19u, 0x81u},
 453:Generated_Source\PSoC4/cyfitter_cfg.c **** 			{0x1Au, 0x18u},
 454:Generated_Source\PSoC4/cyfitter_cfg.c **** 			{0x1Bu, 0x10u},
 455:Generated_Source\PSoC4/cyfitter_cfg.c **** 			{0x1Fu, 0x08u},
 456:Generated_Source\PSoC4/cyfitter_cfg.c **** 			{0x22u, 0x50u},
 457:Generated_Source\PSoC4/cyfitter_cfg.c **** 			{0x23u, 0x40u},
 458:Generated_Source\PSoC4/cyfitter_cfg.c **** 			{0x24u, 0x80u},
 459:Generated_Source\PSoC4/cyfitter_cfg.c **** 			{0x27u, 0x40u},
 460:Generated_Source\PSoC4/cyfitter_cfg.c **** 			{0x2Bu, 0x58u},
 461:Generated_Source\PSoC4/cyfitter_cfg.c **** 			{0x2Eu, 0x08u},
 462:Generated_Source\PSoC4/cyfitter_cfg.c **** 			{0x30u, 0x04u},
 463:Generated_Source\PSoC4/cyfitter_cfg.c **** 			{0x31u, 0x10u},
 464:Generated_Source\PSoC4/cyfitter_cfg.c **** 			{0x33u, 0x40u},
 465:Generated_Source\PSoC4/cyfitter_cfg.c **** 			{0x37u, 0x54u},
 466:Generated_Source\PSoC4/cyfitter_cfg.c **** 			{0x39u, 0x08u},
 467:Generated_Source\PSoC4/cyfitter_cfg.c **** 			{0x3Au, 0x10u},
 468:Generated_Source\PSoC4/cyfitter_cfg.c **** 			{0x3Bu, 0x41u},
 469:Generated_Source\PSoC4/cyfitter_cfg.c **** 			{0x3Eu, 0x04u},
 470:Generated_Source\PSoC4/cyfitter_cfg.c **** 			{0x3Fu, 0x01u},
 471:Generated_Source\PSoC4/cyfitter_cfg.c **** 			{0x59u, 0x89u},
 472:Generated_Source\PSoC4/cyfitter_cfg.c **** 			{0x5Bu, 0x20u},
 473:Generated_Source\PSoC4/cyfitter_cfg.c **** 			{0x5Cu, 0x06u},
 474:Generated_Source\PSoC4/cyfitter_cfg.c **** 			{0x5Du, 0x40u},
 475:Generated_Source\PSoC4/cyfitter_cfg.c **** 			{0x5Fu, 0x10u},
 476:Generated_Source\PSoC4/cyfitter_cfg.c **** 			{0x61u, 0x24u},
 477:Generated_Source\PSoC4/cyfitter_cfg.c **** 			{0x78u, 0x04u},
 478:Generated_Source\PSoC4/cyfitter_cfg.c **** 			{0x8Du, 0x40u},
ARM GAS  C:\Users\austc\AppData\Local\Temp\cciv6yeu.s 			page 17


 479:Generated_Source\PSoC4/cyfitter_cfg.c **** 			{0xC0u, 0x60u},
 480:Generated_Source\PSoC4/cyfitter_cfg.c **** 			{0xC2u, 0xD6u},
 481:Generated_Source\PSoC4/cyfitter_cfg.c **** 			{0xC4u, 0xAAu},
 482:Generated_Source\PSoC4/cyfitter_cfg.c **** 			{0xCAu, 0x47u},
 483:Generated_Source\PSoC4/cyfitter_cfg.c **** 			{0xCCu, 0x7Eu},
 484:Generated_Source\PSoC4/cyfitter_cfg.c **** 			{0xCEu, 0xCFu},
 485:Generated_Source\PSoC4/cyfitter_cfg.c **** 			{0xD6u, 0xFFu},
 486:Generated_Source\PSoC4/cyfitter_cfg.c **** 			{0xD8u, 0x06u},
 487:Generated_Source\PSoC4/cyfitter_cfg.c **** 			{0xDEu, 0x02u},
 488:Generated_Source\PSoC4/cyfitter_cfg.c **** 			{0x04u, 0x06u},
 489:Generated_Source\PSoC4/cyfitter_cfg.c **** 			{0x0Cu, 0x05u},
 490:Generated_Source\PSoC4/cyfitter_cfg.c **** 			{0x18u, 0x03u},
 491:Generated_Source\PSoC4/cyfitter_cfg.c **** 			{0x24u, 0x06u},
 492:Generated_Source\PSoC4/cyfitter_cfg.c **** 			{0x2Du, 0x01u},
 493:Generated_Source\PSoC4/cyfitter_cfg.c **** 			{0x31u, 0x01u},
 494:Generated_Source\PSoC4/cyfitter_cfg.c **** 			{0x34u, 0x07u},
 495:Generated_Source\PSoC4/cyfitter_cfg.c **** 			{0x38u, 0x20u},
 496:Generated_Source\PSoC4/cyfitter_cfg.c **** 			{0x40u, 0x36u},
 497:Generated_Source\PSoC4/cyfitter_cfg.c **** 			{0x41u, 0x05u},
 498:Generated_Source\PSoC4/cyfitter_cfg.c **** 			{0x49u, 0xFFu},
 499:Generated_Source\PSoC4/cyfitter_cfg.c **** 			{0x4Au, 0xFFu},
 500:Generated_Source\PSoC4/cyfitter_cfg.c **** 			{0x4Bu, 0xFFu},
 501:Generated_Source\PSoC4/cyfitter_cfg.c **** 			{0x4Du, 0xA0u},
 502:Generated_Source\PSoC4/cyfitter_cfg.c **** 			{0x4Fu, 0x01u},
 503:Generated_Source\PSoC4/cyfitter_cfg.c **** 			{0x50u, 0x18u},
 504:Generated_Source\PSoC4/cyfitter_cfg.c **** 			{0x58u, 0x04u},
 505:Generated_Source\PSoC4/cyfitter_cfg.c **** 			{0x59u, 0x04u},
 506:Generated_Source\PSoC4/cyfitter_cfg.c **** 			{0x5Au, 0x04u},
 507:Generated_Source\PSoC4/cyfitter_cfg.c **** 			{0x5Cu, 0x31u},
 508:Generated_Source\PSoC4/cyfitter_cfg.c **** 			{0x5Du, 0x01u},
 509:Generated_Source\PSoC4/cyfitter_cfg.c **** 			{0x5Fu, 0x01u},
 510:Generated_Source\PSoC4/cyfitter_cfg.c **** 			{0x60u, 0x40u},
 511:Generated_Source\PSoC4/cyfitter_cfg.c **** 			{0x62u, 0x80u},
 512:Generated_Source\PSoC4/cyfitter_cfg.c **** 			{0x64u, 0x40u},
 513:Generated_Source\PSoC4/cyfitter_cfg.c **** 			{0x65u, 0x40u},
 514:Generated_Source\PSoC4/cyfitter_cfg.c **** 			{0x66u, 0x80u},
 515:Generated_Source\PSoC4/cyfitter_cfg.c **** 			{0x68u, 0x40u},
 516:Generated_Source\PSoC4/cyfitter_cfg.c **** 			{0x6Au, 0x80u},
 517:Generated_Source\PSoC4/cyfitter_cfg.c **** 			{0x6Cu, 0x40u},
 518:Generated_Source\PSoC4/cyfitter_cfg.c **** 			{0x6Du, 0x20u},
 519:Generated_Source\PSoC4/cyfitter_cfg.c **** 			{0x6Eu, 0x80u},
 520:Generated_Source\PSoC4/cyfitter_cfg.c **** 			{0x81u, 0x01u},
 521:Generated_Source\PSoC4/cyfitter_cfg.c **** 			{0x85u, 0x1Cu},
 522:Generated_Source\PSoC4/cyfitter_cfg.c **** 			{0x8Bu, 0x07u},
 523:Generated_Source\PSoC4/cyfitter_cfg.c **** 			{0x8Du, 0x18u},
 524:Generated_Source\PSoC4/cyfitter_cfg.c **** 			{0x8Fu, 0x04u},
 525:Generated_Source\PSoC4/cyfitter_cfg.c **** 			{0x90u, 0x08u},
 526:Generated_Source\PSoC4/cyfitter_cfg.c **** 			{0x97u, 0x20u},
 527:Generated_Source\PSoC4/cyfitter_cfg.c **** 			{0x98u, 0x01u},
 528:Generated_Source\PSoC4/cyfitter_cfg.c **** 			{0x99u, 0x18u},
 529:Generated_Source\PSoC4/cyfitter_cfg.c **** 			{0x9Du, 0x08u},
 530:Generated_Source\PSoC4/cyfitter_cfg.c **** 			{0x9Fu, 0x10u},
 531:Generated_Source\PSoC4/cyfitter_cfg.c **** 			{0xA5u, 0x0Cu},
 532:Generated_Source\PSoC4/cyfitter_cfg.c **** 			{0xA8u, 0x03u},
 533:Generated_Source\PSoC4/cyfitter_cfg.c **** 			{0xA9u, 0x14u},
 534:Generated_Source\PSoC4/cyfitter_cfg.c **** 			{0xABu, 0x08u},
 535:Generated_Source\PSoC4/cyfitter_cfg.c **** 			{0xACu, 0x03u},
ARM GAS  C:\Users\austc\AppData\Local\Temp\cciv6yeu.s 			page 18


 536:Generated_Source\PSoC4/cyfitter_cfg.c **** 			{0xAEu, 0x0Cu},
 537:Generated_Source\PSoC4/cyfitter_cfg.c **** 			{0xAFu, 0x01u},
 538:Generated_Source\PSoC4/cyfitter_cfg.c **** 			{0xB0u, 0x04u},
 539:Generated_Source\PSoC4/cyfitter_cfg.c **** 			{0xB1u, 0x02u},
 540:Generated_Source\PSoC4/cyfitter_cfg.c **** 			{0xB2u, 0x08u},
 541:Generated_Source\PSoC4/cyfitter_cfg.c **** 			{0xB3u, 0x01u},
 542:Generated_Source\PSoC4/cyfitter_cfg.c **** 			{0xB4u, 0x01u},
 543:Generated_Source\PSoC4/cyfitter_cfg.c **** 			{0xB5u, 0x1Cu},
 544:Generated_Source\PSoC4/cyfitter_cfg.c **** 			{0xB6u, 0x02u},
 545:Generated_Source\PSoC4/cyfitter_cfg.c **** 			{0xB7u, 0x20u},
 546:Generated_Source\PSoC4/cyfitter_cfg.c **** 			{0xB8u, 0xA0u},
 547:Generated_Source\PSoC4/cyfitter_cfg.c **** 			{0xBEu, 0x14u},
 548:Generated_Source\PSoC4/cyfitter_cfg.c **** 			{0xBFu, 0x04u},
 549:Generated_Source\PSoC4/cyfitter_cfg.c **** 			{0xC0u, 0x32u},
 550:Generated_Source\PSoC4/cyfitter_cfg.c **** 			{0xC1u, 0x05u},
 551:Generated_Source\PSoC4/cyfitter_cfg.c **** 			{0xC5u, 0x0Eu},
 552:Generated_Source\PSoC4/cyfitter_cfg.c **** 			{0xC6u, 0xC4u},
 553:Generated_Source\PSoC4/cyfitter_cfg.c **** 			{0xC7u, 0x32u},
 554:Generated_Source\PSoC4/cyfitter_cfg.c **** 			{0xC8u, 0x3Du},
 555:Generated_Source\PSoC4/cyfitter_cfg.c **** 			{0xC9u, 0xFFu},
 556:Generated_Source\PSoC4/cyfitter_cfg.c **** 			{0xCAu, 0xFFu},
 557:Generated_Source\PSoC4/cyfitter_cfg.c **** 			{0xCBu, 0xFFu},
 558:Generated_Source\PSoC4/cyfitter_cfg.c **** 			{0xCDu, 0xAFu},
 559:Generated_Source\PSoC4/cyfitter_cfg.c **** 			{0xCEu, 0x07u},
 560:Generated_Source\PSoC4/cyfitter_cfg.c **** 			{0xCFu, 0x01u},
 561:Generated_Source\PSoC4/cyfitter_cfg.c **** 			{0xD0u, 0x18u},
 562:Generated_Source\PSoC4/cyfitter_cfg.c **** 			{0xD2u, 0x80u},
 563:Generated_Source\PSoC4/cyfitter_cfg.c **** 			{0xD8u, 0x04u},
 564:Generated_Source\PSoC4/cyfitter_cfg.c **** 			{0xD9u, 0x04u},
 565:Generated_Source\PSoC4/cyfitter_cfg.c **** 			{0xDAu, 0x04u},
 566:Generated_Source\PSoC4/cyfitter_cfg.c **** 			{0xDBu, 0x04u},
 567:Generated_Source\PSoC4/cyfitter_cfg.c **** 			{0xDCu, 0x11u},
 568:Generated_Source\PSoC4/cyfitter_cfg.c **** 			{0xDDu, 0x11u},
 569:Generated_Source\PSoC4/cyfitter_cfg.c **** 			{0xDFu, 0x01u},
 570:Generated_Source\PSoC4/cyfitter_cfg.c **** 			{0xE0u, 0x40u},
 571:Generated_Source\PSoC4/cyfitter_cfg.c **** 			{0xE2u, 0x80u},
 572:Generated_Source\PSoC4/cyfitter_cfg.c **** 			{0xE4u, 0x40u},
 573:Generated_Source\PSoC4/cyfitter_cfg.c **** 			{0xE5u, 0x40u},
 574:Generated_Source\PSoC4/cyfitter_cfg.c **** 			{0xE6u, 0x80u},
 575:Generated_Source\PSoC4/cyfitter_cfg.c **** 			{0xE8u, 0x40u},
 576:Generated_Source\PSoC4/cyfitter_cfg.c **** 			{0xEAu, 0x80u},
 577:Generated_Source\PSoC4/cyfitter_cfg.c **** 			{0xECu, 0x40u},
 578:Generated_Source\PSoC4/cyfitter_cfg.c **** 			{0xEDu, 0x20u},
 579:Generated_Source\PSoC4/cyfitter_cfg.c **** 			{0xEEu, 0x80u},
 580:Generated_Source\PSoC4/cyfitter_cfg.c **** 			{0x04u, 0x80u},
 581:Generated_Source\PSoC4/cyfitter_cfg.c **** 			{0x07u, 0x11u},
 582:Generated_Source\PSoC4/cyfitter_cfg.c **** 			{0x09u, 0x10u},
 583:Generated_Source\PSoC4/cyfitter_cfg.c **** 			{0x0Au, 0x44u},
 584:Generated_Source\PSoC4/cyfitter_cfg.c **** 			{0x0Eu, 0x04u},
 585:Generated_Source\PSoC4/cyfitter_cfg.c **** 			{0x10u, 0x0Au},
 586:Generated_Source\PSoC4/cyfitter_cfg.c **** 			{0x15u, 0x08u},
 587:Generated_Source\PSoC4/cyfitter_cfg.c **** 			{0x18u, 0x04u},
 588:Generated_Source\PSoC4/cyfitter_cfg.c **** 			{0x19u, 0x08u},
 589:Generated_Source\PSoC4/cyfitter_cfg.c **** 			{0x1Au, 0x40u},
 590:Generated_Source\PSoC4/cyfitter_cfg.c **** 			{0x1Bu, 0x50u},
 591:Generated_Source\PSoC4/cyfitter_cfg.c **** 			{0x1Eu, 0x04u},
 592:Generated_Source\PSoC4/cyfitter_cfg.c **** 			{0x1Fu, 0x20u},
ARM GAS  C:\Users\austc\AppData\Local\Temp\cciv6yeu.s 			page 19


 593:Generated_Source\PSoC4/cyfitter_cfg.c **** 			{0x20u, 0x01u},
 594:Generated_Source\PSoC4/cyfitter_cfg.c **** 			{0x21u, 0x19u},
 595:Generated_Source\PSoC4/cyfitter_cfg.c **** 			{0x24u, 0x40u},
 596:Generated_Source\PSoC4/cyfitter_cfg.c **** 			{0x2Au, 0x90u},
 597:Generated_Source\PSoC4/cyfitter_cfg.c **** 			{0x2Bu, 0x20u},
 598:Generated_Source\PSoC4/cyfitter_cfg.c **** 			{0x2Fu, 0x01u},
 599:Generated_Source\PSoC4/cyfitter_cfg.c **** 			{0x31u, 0x10u},
 600:Generated_Source\PSoC4/cyfitter_cfg.c **** 			{0x32u, 0x80u},
 601:Generated_Source\PSoC4/cyfitter_cfg.c **** 			{0x33u, 0x04u},
 602:Generated_Source\PSoC4/cyfitter_cfg.c **** 			{0x38u, 0x80u},
 603:Generated_Source\PSoC4/cyfitter_cfg.c **** 			{0x39u, 0x2Au},
 604:Generated_Source\PSoC4/cyfitter_cfg.c **** 			{0x40u, 0x04u},
 605:Generated_Source\PSoC4/cyfitter_cfg.c **** 			{0x41u, 0x08u},
 606:Generated_Source\PSoC4/cyfitter_cfg.c **** 			{0x45u, 0x08u},
 607:Generated_Source\PSoC4/cyfitter_cfg.c **** 			{0x49u, 0x04u},
 608:Generated_Source\PSoC4/cyfitter_cfg.c **** 			{0x4Bu, 0x40u},
 609:Generated_Source\PSoC4/cyfitter_cfg.c **** 			{0x4Fu, 0x60u},
 610:Generated_Source\PSoC4/cyfitter_cfg.c **** 			{0x50u, 0x8Au},
 611:Generated_Source\PSoC4/cyfitter_cfg.c **** 			{0x51u, 0x20u},
 612:Generated_Source\PSoC4/cyfitter_cfg.c **** 			{0x58u, 0x04u},
 613:Generated_Source\PSoC4/cyfitter_cfg.c **** 			{0x5Au, 0x04u},
 614:Generated_Source\PSoC4/cyfitter_cfg.c **** 			{0x72u, 0x80u},
 615:Generated_Source\PSoC4/cyfitter_cfg.c **** 			{0x90u, 0x80u},
 616:Generated_Source\PSoC4/cyfitter_cfg.c **** 			{0x92u, 0xA0u},
 617:Generated_Source\PSoC4/cyfitter_cfg.c **** 			{0x93u, 0x40u},
 618:Generated_Source\PSoC4/cyfitter_cfg.c **** 			{0x95u, 0x08u},
 619:Generated_Source\PSoC4/cyfitter_cfg.c **** 			{0x96u, 0x04u},
 620:Generated_Source\PSoC4/cyfitter_cfg.c **** 			{0x97u, 0x01u},
 621:Generated_Source\PSoC4/cyfitter_cfg.c **** 			{0x9Au, 0x10u},
 622:Generated_Source\PSoC4/cyfitter_cfg.c **** 			{0x9Bu, 0x08u},
 623:Generated_Source\PSoC4/cyfitter_cfg.c **** 			{0x9Cu, 0x04u},
 624:Generated_Source\PSoC4/cyfitter_cfg.c **** 			{0x9Du, 0x1Cu},
 625:Generated_Source\PSoC4/cyfitter_cfg.c **** 			{0x9Fu, 0x10u},
 626:Generated_Source\PSoC4/cyfitter_cfg.c **** 			{0xA3u, 0x04u},
 627:Generated_Source\PSoC4/cyfitter_cfg.c **** 			{0xA4u, 0x88u},
 628:Generated_Source\PSoC4/cyfitter_cfg.c **** 			{0xA5u, 0x20u},
 629:Generated_Source\PSoC4/cyfitter_cfg.c **** 			{0xA7u, 0x40u},
 630:Generated_Source\PSoC4/cyfitter_cfg.c **** 			{0xABu, 0x04u},
 631:Generated_Source\PSoC4/cyfitter_cfg.c **** 			{0xAFu, 0x08u},
 632:Generated_Source\PSoC4/cyfitter_cfg.c **** 			{0xB3u, 0x10u},
 633:Generated_Source\PSoC4/cyfitter_cfg.c **** 			{0xB4u, 0x06u},
 634:Generated_Source\PSoC4/cyfitter_cfg.c **** 			{0xC0u, 0xA0u},
 635:Generated_Source\PSoC4/cyfitter_cfg.c **** 			{0xC2u, 0x4Au},
 636:Generated_Source\PSoC4/cyfitter_cfg.c **** 			{0xC4u, 0x23u},
 637:Generated_Source\PSoC4/cyfitter_cfg.c **** 			{0xCAu, 0x1Eu},
 638:Generated_Source\PSoC4/cyfitter_cfg.c **** 			{0xCCu, 0x0Eu},
 639:Generated_Source\PSoC4/cyfitter_cfg.c **** 			{0xCEu, 0x0Fu},
 640:Generated_Source\PSoC4/cyfitter_cfg.c **** 			{0xD0u, 0x46u},
 641:Generated_Source\PSoC4/cyfitter_cfg.c **** 			{0xD2u, 0x38u},
 642:Generated_Source\PSoC4/cyfitter_cfg.c **** 			{0x00u, 0x01u},
 643:Generated_Source\PSoC4/cyfitter_cfg.c **** 			{0x01u, 0x10u},
 644:Generated_Source\PSoC4/cyfitter_cfg.c **** 			{0x03u, 0x20u},
 645:Generated_Source\PSoC4/cyfitter_cfg.c **** 			{0x05u, 0x0Cu},
 646:Generated_Source\PSoC4/cyfitter_cfg.c **** 			{0x07u, 0x02u},
 647:Generated_Source\PSoC4/cyfitter_cfg.c **** 			{0x09u, 0x0Cu},
 648:Generated_Source\PSoC4/cyfitter_cfg.c **** 			{0x0Bu, 0x01u},
 649:Generated_Source\PSoC4/cyfitter_cfg.c **** 			{0x0Du, 0x0Bu},
ARM GAS  C:\Users\austc\AppData\Local\Temp\cciv6yeu.s 			page 20


 650:Generated_Source\PSoC4/cyfitter_cfg.c **** 			{0x0Fu, 0x04u},
 651:Generated_Source\PSoC4/cyfitter_cfg.c **** 			{0x11u, 0x10u},
 652:Generated_Source\PSoC4/cyfitter_cfg.c **** 			{0x13u, 0x20u},
 653:Generated_Source\PSoC4/cyfitter_cfg.c **** 			{0x15u, 0x10u},
 654:Generated_Source\PSoC4/cyfitter_cfg.c **** 			{0x17u, 0x20u},
 655:Generated_Source\PSoC4/cyfitter_cfg.c **** 			{0x1Bu, 0x0Fu},
 656:Generated_Source\PSoC4/cyfitter_cfg.c **** 			{0x1Du, 0x28u},
 657:Generated_Source\PSoC4/cyfitter_cfg.c **** 			{0x1Fu, 0x11u},
 658:Generated_Source\PSoC4/cyfitter_cfg.c **** 			{0x29u, 0x07u},
 659:Generated_Source\PSoC4/cyfitter_cfg.c **** 			{0x33u, 0x0Fu},
 660:Generated_Source\PSoC4/cyfitter_cfg.c **** 			{0x34u, 0x01u},
 661:Generated_Source\PSoC4/cyfitter_cfg.c **** 			{0x37u, 0x30u},
 662:Generated_Source\PSoC4/cyfitter_cfg.c **** 			{0x3Bu, 0x80u},
 663:Generated_Source\PSoC4/cyfitter_cfg.c **** 			{0x54u, 0x0Fu},
 664:Generated_Source\PSoC4/cyfitter_cfg.c **** 			{0x58u, 0x04u},
 665:Generated_Source\PSoC4/cyfitter_cfg.c **** 			{0x59u, 0x04u},
 666:Generated_Source\PSoC4/cyfitter_cfg.c **** 			{0x5Bu, 0x04u},
 667:Generated_Source\PSoC4/cyfitter_cfg.c **** 			{0x5Cu, 0x13u},
 668:Generated_Source\PSoC4/cyfitter_cfg.c **** 			{0x5Du, 0x10u},
 669:Generated_Source\PSoC4/cyfitter_cfg.c **** 			{0x5Fu, 0x01u},
 670:Generated_Source\PSoC4/cyfitter_cfg.c **** 			{0x80u, 0x01u},
 671:Generated_Source\PSoC4/cyfitter_cfg.c **** 			{0x82u, 0x02u},
 672:Generated_Source\PSoC4/cyfitter_cfg.c **** 			{0x83u, 0x0Fu},
 673:Generated_Source\PSoC4/cyfitter_cfg.c **** 			{0x87u, 0x20u},
 674:Generated_Source\PSoC4/cyfitter_cfg.c **** 			{0x88u, 0x02u},
 675:Generated_Source\PSoC4/cyfitter_cfg.c **** 			{0x89u, 0x07u},
 676:Generated_Source\PSoC4/cyfitter_cfg.c **** 			{0x8Au, 0x01u},
 677:Generated_Source\PSoC4/cyfitter_cfg.c **** 			{0x93u, 0x10u},
 678:Generated_Source\PSoC4/cyfitter_cfg.c **** 			{0x94u, 0x01u},
 679:Generated_Source\PSoC4/cyfitter_cfg.c **** 			{0x95u, 0x0Cu},
 680:Generated_Source\PSoC4/cyfitter_cfg.c **** 			{0x96u, 0x0Au},
 681:Generated_Source\PSoC4/cyfitter_cfg.c **** 			{0x97u, 0x01u},
 682:Generated_Source\PSoC4/cyfitter_cfg.c **** 			{0x99u, 0x0Cu},
 683:Generated_Source\PSoC4/cyfitter_cfg.c **** 			{0x9Bu, 0x02u},
 684:Generated_Source\PSoC4/cyfitter_cfg.c **** 			{0x9Cu, 0x01u},
 685:Generated_Source\PSoC4/cyfitter_cfg.c **** 			{0x9Eu, 0x06u},
 686:Generated_Source\PSoC4/cyfitter_cfg.c **** 			{0xA1u, 0x0Bu},
 687:Generated_Source\PSoC4/cyfitter_cfg.c **** 			{0xA3u, 0x04u},
 688:Generated_Source\PSoC4/cyfitter_cfg.c **** 			{0xA5u, 0x08u},
 689:Generated_Source\PSoC4/cyfitter_cfg.c **** 			{0xA6u, 0x10u},
 690:Generated_Source\PSoC4/cyfitter_cfg.c **** 			{0xA7u, 0x01u},
 691:Generated_Source\PSoC4/cyfitter_cfg.c **** 			{0xB0u, 0x04u},
 692:Generated_Source\PSoC4/cyfitter_cfg.c **** 			{0xB1u, 0x20u},
 693:Generated_Source\PSoC4/cyfitter_cfg.c **** 			{0xB2u, 0x10u},
 694:Generated_Source\PSoC4/cyfitter_cfg.c **** 			{0xB3u, 0x0Fu},
 695:Generated_Source\PSoC4/cyfitter_cfg.c **** 			{0xB4u, 0x03u},
 696:Generated_Source\PSoC4/cyfitter_cfg.c **** 			{0xB5u, 0x10u},
 697:Generated_Source\PSoC4/cyfitter_cfg.c **** 			{0xB6u, 0x08u},
 698:Generated_Source\PSoC4/cyfitter_cfg.c **** 			{0xBAu, 0x20u},
 699:Generated_Source\PSoC4/cyfitter_cfg.c **** 			{0xD6u, 0x04u},
 700:Generated_Source\PSoC4/cyfitter_cfg.c **** 			{0xD8u, 0x04u},
 701:Generated_Source\PSoC4/cyfitter_cfg.c **** 			{0xD9u, 0x04u},
 702:Generated_Source\PSoC4/cyfitter_cfg.c **** 			{0xDBu, 0x04u},
 703:Generated_Source\PSoC4/cyfitter_cfg.c **** 			{0xDCu, 0x11u},
 704:Generated_Source\PSoC4/cyfitter_cfg.c **** 			{0xDFu, 0x01u},
 705:Generated_Source\PSoC4/cyfitter_cfg.c **** 			{0x03u, 0x80u},
 706:Generated_Source\PSoC4/cyfitter_cfg.c **** 			{0x05u, 0x11u},
ARM GAS  C:\Users\austc\AppData\Local\Temp\cciv6yeu.s 			page 21


 707:Generated_Source\PSoC4/cyfitter_cfg.c **** 			{0x0Eu, 0x22u},
 708:Generated_Source\PSoC4/cyfitter_cfg.c **** 			{0x17u, 0x08u},
 709:Generated_Source\PSoC4/cyfitter_cfg.c **** 			{0x19u, 0x20u},
 710:Generated_Source\PSoC4/cyfitter_cfg.c **** 			{0x1Du, 0x11u},
 711:Generated_Source\PSoC4/cyfitter_cfg.c **** 			{0x1Eu, 0x22u},
 712:Generated_Source\PSoC4/cyfitter_cfg.c **** 			{0x1Fu, 0x10u},
 713:Generated_Source\PSoC4/cyfitter_cfg.c **** 			{0x21u, 0x04u},
 714:Generated_Source\PSoC4/cyfitter_cfg.c **** 			{0x22u, 0x88u},
 715:Generated_Source\PSoC4/cyfitter_cfg.c **** 			{0x23u, 0x01u},
 716:Generated_Source\PSoC4/cyfitter_cfg.c **** 			{0x24u, 0x10u},
 717:Generated_Source\PSoC4/cyfitter_cfg.c **** 			{0x26u, 0x02u},
 718:Generated_Source\PSoC4/cyfitter_cfg.c **** 			{0x27u, 0x14u},
 719:Generated_Source\PSoC4/cyfitter_cfg.c **** 			{0x28u, 0x04u},
 720:Generated_Source\PSoC4/cyfitter_cfg.c **** 			{0x2Fu, 0x50u},
 721:Generated_Source\PSoC4/cyfitter_cfg.c **** 			{0x31u, 0x10u},
 722:Generated_Source\PSoC4/cyfitter_cfg.c **** 			{0x32u, 0x82u},
 723:Generated_Source\PSoC4/cyfitter_cfg.c **** 			{0x33u, 0x04u},
 724:Generated_Source\PSoC4/cyfitter_cfg.c **** 			{0x36u, 0x0Au},
 725:Generated_Source\PSoC4/cyfitter_cfg.c **** 			{0x37u, 0x10u},
 726:Generated_Source\PSoC4/cyfitter_cfg.c **** 			{0x38u, 0x91u},
 727:Generated_Source\PSoC4/cyfitter_cfg.c **** 			{0x39u, 0x08u},
 728:Generated_Source\PSoC4/cyfitter_cfg.c **** 			{0x3Bu, 0x80u},
 729:Generated_Source\PSoC4/cyfitter_cfg.c **** 			{0x3Du, 0x20u},
 730:Generated_Source\PSoC4/cyfitter_cfg.c **** 			{0x3Fu, 0x09u},
 731:Generated_Source\PSoC4/cyfitter_cfg.c **** 			{0x58u, 0x04u},
 732:Generated_Source\PSoC4/cyfitter_cfg.c **** 			{0x5Au, 0xA0u},
 733:Generated_Source\PSoC4/cyfitter_cfg.c **** 			{0x5Bu, 0x01u},
 734:Generated_Source\PSoC4/cyfitter_cfg.c **** 			{0x5Cu, 0x40u},
 735:Generated_Source\PSoC4/cyfitter_cfg.c **** 			{0x5Du, 0x20u},
 736:Generated_Source\PSoC4/cyfitter_cfg.c **** 			{0x67u, 0x40u},
 737:Generated_Source\PSoC4/cyfitter_cfg.c **** 			{0x87u, 0x40u},
 738:Generated_Source\PSoC4/cyfitter_cfg.c **** 			{0x8Bu, 0x80u},
 739:Generated_Source\PSoC4/cyfitter_cfg.c **** 			{0x90u, 0xC1u},
 740:Generated_Source\PSoC4/cyfitter_cfg.c **** 			{0x92u, 0xA0u},
 741:Generated_Source\PSoC4/cyfitter_cfg.c **** 			{0x95u, 0x08u},
 742:Generated_Source\PSoC4/cyfitter_cfg.c **** 			{0x97u, 0x01u},
 743:Generated_Source\PSoC4/cyfitter_cfg.c **** 			{0x98u, 0x04u},
 744:Generated_Source\PSoC4/cyfitter_cfg.c **** 			{0x9Bu, 0x09u},
 745:Generated_Source\PSoC4/cyfitter_cfg.c **** 			{0x9Du, 0x10u},
 746:Generated_Source\PSoC4/cyfitter_cfg.c **** 			{0x9Fu, 0x14u},
 747:Generated_Source\PSoC4/cyfitter_cfg.c **** 			{0xA1u, 0x10u},
 748:Generated_Source\PSoC4/cyfitter_cfg.c **** 			{0xA3u, 0x04u},
 749:Generated_Source\PSoC4/cyfitter_cfg.c **** 			{0xA6u, 0x80u},
 750:Generated_Source\PSoC4/cyfitter_cfg.c **** 			{0xABu, 0x01u},
 751:Generated_Source\PSoC4/cyfitter_cfg.c **** 			{0xC0u, 0x58u},
 752:Generated_Source\PSoC4/cyfitter_cfg.c **** 			{0xC2u, 0xA0u},
 753:Generated_Source\PSoC4/cyfitter_cfg.c **** 			{0xC4u, 0x20u},
 754:Generated_Source\PSoC4/cyfitter_cfg.c **** 			{0xCAu, 0xC4u},
 755:Generated_Source\PSoC4/cyfitter_cfg.c **** 			{0xCCu, 0xEFu},
 756:Generated_Source\PSoC4/cyfitter_cfg.c **** 			{0xCEu, 0xEFu},
 757:Generated_Source\PSoC4/cyfitter_cfg.c **** 			{0xD6u, 0x3Fu},
 758:Generated_Source\PSoC4/cyfitter_cfg.c **** 			{0xD8u, 0x80u},
 759:Generated_Source\PSoC4/cyfitter_cfg.c **** 			{0x0Bu, 0x02u},
 760:Generated_Source\PSoC4/cyfitter_cfg.c **** 			{0x0Fu, 0x10u},
 761:Generated_Source\PSoC4/cyfitter_cfg.c **** 			{0x6Bu, 0x02u},
 762:Generated_Source\PSoC4/cyfitter_cfg.c **** 			{0xC2u, 0x60u},
 763:Generated_Source\PSoC4/cyfitter_cfg.c **** 			{0xDAu, 0x40u},
ARM GAS  C:\Users\austc\AppData\Local\Temp\cciv6yeu.s 			page 22


 764:Generated_Source\PSoC4/cyfitter_cfg.c **** 			{0x0Fu, 0x08u},
 765:Generated_Source\PSoC4/cyfitter_cfg.c **** 			{0x9Fu, 0x02u},
 766:Generated_Source\PSoC4/cyfitter_cfg.c **** 			{0xABu, 0x01u},
 767:Generated_Source\PSoC4/cyfitter_cfg.c **** 			{0xAFu, 0x10u},
 768:Generated_Source\PSoC4/cyfitter_cfg.c **** 			{0xC2u, 0x80u},
 769:Generated_Source\PSoC4/cyfitter_cfg.c **** 			{0xE8u, 0x10u},
 770:Generated_Source\PSoC4/cyfitter_cfg.c **** 			{0xECu, 0x20u},
 771:Generated_Source\PSoC4/cyfitter_cfg.c **** 			{0x87u, 0x02u},
 772:Generated_Source\PSoC4/cyfitter_cfg.c **** 			{0x9Fu, 0x02u},
 773:Generated_Source\PSoC4/cyfitter_cfg.c **** 			{0xABu, 0x04u},
 774:Generated_Source\PSoC4/cyfitter_cfg.c **** 			{0xE6u, 0x40u},
 775:Generated_Source\PSoC4/cyfitter_cfg.c **** 			{0xECu, 0x20u},
 776:Generated_Source\PSoC4/cyfitter_cfg.c **** 			{0x01u, 0x80u},
 777:Generated_Source\PSoC4/cyfitter_cfg.c **** 			{0x04u, 0x08u},
 778:Generated_Source\PSoC4/cyfitter_cfg.c **** 			{0x07u, 0x08u},
 779:Generated_Source\PSoC4/cyfitter_cfg.c **** 			{0x0Bu, 0x02u},
 780:Generated_Source\PSoC4/cyfitter_cfg.c **** 			{0x8Fu, 0x01u},
 781:Generated_Source\PSoC4/cyfitter_cfg.c **** 			{0xC0u, 0x07u},
 782:Generated_Source\PSoC4/cyfitter_cfg.c **** 			{0xC2u, 0x02u},
 783:Generated_Source\PSoC4/cyfitter_cfg.c **** 			{0xE2u, 0x02u},
 784:Generated_Source\PSoC4/cyfitter_cfg.c **** 			{0x0Cu, 0x40u},
 785:Generated_Source\PSoC4/cyfitter_cfg.c **** 			{0xB3u, 0x08u},
 786:Generated_Source\PSoC4/cyfitter_cfg.c **** 			{0xB4u, 0x04u},
 787:Generated_Source\PSoC4/cyfitter_cfg.c **** 			{0xB5u, 0x80u},
 788:Generated_Source\PSoC4/cyfitter_cfg.c **** 			{0xC2u, 0x01u},
 789:Generated_Source\PSoC4/cyfitter_cfg.c **** 			{0xEAu, 0x08u},
 790:Generated_Source\PSoC4/cyfitter_cfg.c **** 			{0xEEu, 0x03u},
 791:Generated_Source\PSoC4/cyfitter_cfg.c **** 			{0x88u, 0x40u},
 792:Generated_Source\PSoC4/cyfitter_cfg.c **** 			{0x98u, 0x40u},
 793:Generated_Source\PSoC4/cyfitter_cfg.c **** 			{0xE2u, 0x01u},
 794:Generated_Source\PSoC4/cyfitter_cfg.c **** 			{0x01u, 0x0Au},
 795:Generated_Source\PSoC4/cyfitter_cfg.c **** 			{0x10u, 0x0Au},
 796:Generated_Source\PSoC4/cyfitter_cfg.c **** 			{0x12u, 0x0Au},
 797:Generated_Source\PSoC4/cyfitter_cfg.c **** 		};
 798:Generated_Source\PSoC4/cyfitter_cfg.c **** 
 799:Generated_Source\PSoC4/cyfitter_cfg.c **** 
 800:Generated_Source\PSoC4/cyfitter_cfg.c **** 
 801:Generated_Source\PSoC4/cyfitter_cfg.c **** 		CYPACKED typedef struct {
 802:Generated_Source\PSoC4/cyfitter_cfg.c **** 			void CYFAR *address;
 803:Generated_Source\PSoC4/cyfitter_cfg.c **** 			uint16 size;
 804:Generated_Source\PSoC4/cyfitter_cfg.c **** 		} CYPACKED_ATTR cfg_memset_t;
 805:Generated_Source\PSoC4/cyfitter_cfg.c **** 
 806:Generated_Source\PSoC4/cyfitter_cfg.c **** 		static const cfg_memset_t CYCODE cfg_memset_list[] = {
 807:Generated_Source\PSoC4/cyfitter_cfg.c **** 			/* address, size */
 808:Generated_Source\PSoC4/cyfitter_cfg.c **** 			{(void CYFAR *)(CYDEV_UDB_P0_U0_BASE), 2048u},
 809:Generated_Source\PSoC4/cyfitter_cfg.c **** 			{(void CYFAR *)(CYDEV_UDB_DSI0_BASE), 2048u},
 810:Generated_Source\PSoC4/cyfitter_cfg.c **** 		};
 811:Generated_Source\PSoC4/cyfitter_cfg.c **** 
 812:Generated_Source\PSoC4/cyfitter_cfg.c **** 		uint8 CYDATA i;
 813:Generated_Source\PSoC4/cyfitter_cfg.c **** 
 814:Generated_Source\PSoC4/cyfitter_cfg.c **** 		/* Zero out critical memory blocks before beginning configuration */
 815:Generated_Source\PSoC4/cyfitter_cfg.c **** 		for (i = 0u; i < (sizeof(cfg_memset_list)/sizeof(cfg_memset_list[0])); i++)
 420              		.loc 1 815 0
 421 011a 0024     		movs	r4, #0
 422 011c 0FE0     		b	.L19
 423              	.LVL28:
 424              	.L20:
ARM GAS  C:\Users\austc\AppData\Local\Temp\cciv6yeu.s 			page 23


 425              	.LBB4:
 816:Generated_Source\PSoC4/cyfitter_cfg.c **** 		{
 817:Generated_Source\PSoC4/cyfitter_cfg.c **** 			const cfg_memset_t CYCODE * CYDATA ms = &cfg_memset_list[i];
 818:Generated_Source\PSoC4/cyfitter_cfg.c **** 			CYMEMZERO(ms->address, (size_t)(uint32)(ms->size));
 426              		.loc 1 818 0 discriminator 3
 427 011e 3B48     		ldr	r0, .L21+4
 428 0120 6200     		lsls	r2, r4, #1
 429 0122 1319     		adds	r3, r2, r4
 430 0124 5900     		lsls	r1, r3, #1
 431 0126 0B00     		movs	r3, r1
 432 0128 4118     		adds	r1, r0, r1
 433 012a 8988     		ldrh	r1, [r1, #4]
 434 012c 1A5A     		ldrh	r2, [r3, r0]
 435 012e C318     		adds	r3, r0, r3
 436 0130 5888     		ldrh	r0, [r3, #2]
 437 0132 0004     		lsls	r0, r0, #16
 438 0134 1043     		orrs	r0, r2
 439 0136 FFF7FEFF 		bl	CYMEMZERO
 440              	.LVL29:
 441              	.LBE4:
 815:Generated_Source\PSoC4/cyfitter_cfg.c **** 		{
 442              		.loc 1 815 0 discriminator 3
 443 013a 0134     		adds	r4, r4, #1
 444              	.LVL30:
 445 013c E4B2     		uxtb	r4, r4
 446              	.LVL31:
 447              	.L19:
 815:Generated_Source\PSoC4/cyfitter_cfg.c **** 		{
 448              		.loc 1 815 0 is_stmt 0 discriminator 1
 449 013e 012C     		cmp	r4, #1
 450 0140 EDD9     		bls	.L20
 819:Generated_Source\PSoC4/cyfitter_cfg.c **** 		}
 820:Generated_Source\PSoC4/cyfitter_cfg.c **** 
 821:Generated_Source\PSoC4/cyfitter_cfg.c **** 		cfg_write_bytes32(cy_cfg_addr_table, cy_cfg_data_table);
 451              		.loc 1 821 0 is_stmt 1
 452 0142 3249     		ldr	r1, .L21+4
 453 0144 0C31     		adds	r1, r1, #12
 454 0146 3248     		ldr	r0, .L21+8
 455 0148 5830     		adds	r0, r0, #88
 456 014a FFF7FEFF 		bl	cfg_write_bytes32
 457              	.LVL32:
 822:Generated_Source\PSoC4/cyfitter_cfg.c **** 
 823:Generated_Source\PSoC4/cyfitter_cfg.c **** 		/* HSIOM Starting address: CYDEV_HSIOM_BASE */
 824:Generated_Source\PSoC4/cyfitter_cfg.c **** 		CY_SET_REG32((void *)(CYDEV_HSIOM_BASE), 0x0000000Au);
 458              		.loc 1 824 0
 459 014e 0A22     		movs	r2, #10
 460 0150 304B     		ldr	r3, .L21+12
 461 0152 1A60     		str	r2, [r3]
 825:Generated_Source\PSoC4/cyfitter_cfg.c **** 		CY_SET_REG32((void *)(CYREG_HSIOM_PORT_SEL1), 0x08000000u);
 462              		.loc 1 825 0
 463 0154 8022     		movs	r2, #128
 464 0156 1205     		lsls	r2, r2, #20
 465 0158 2F4B     		ldr	r3, .L21+16
 466 015a 1A60     		str	r2, [r3]
 826:Generated_Source\PSoC4/cyfitter_cfg.c **** 		CY_SET_REG32((void *)(CYREG_HSIOM_PORT_SEL3), 0x0000EE99u);
 467              		.loc 1 826 0
 468 015c 2F4A     		ldr	r2, .L21+20
ARM GAS  C:\Users\austc\AppData\Local\Temp\cciv6yeu.s 			page 24


 469 015e 304B     		ldr	r3, .L21+24
 470 0160 1A60     		str	r2, [r3]
 827:Generated_Source\PSoC4/cyfitter_cfg.c **** 		CY_SET_REG32((void *)(CYREG_HSIOM_PORT_SEL4), 0x0A000000u);
 471              		.loc 1 827 0
 472 0162 A022     		movs	r2, #160
 473 0164 1205     		lsls	r2, r2, #20
 474 0166 2F4B     		ldr	r3, .L21+28
 475 0168 1A60     		str	r2, [r3]
 828:Generated_Source\PSoC4/cyfitter_cfg.c **** 
 829:Generated_Source\PSoC4/cyfitter_cfg.c **** 		/* UDB_PA_0 Starting address: CYDEV_UDB_PA0_BASE */
 830:Generated_Source\PSoC4/cyfitter_cfg.c **** 		CY_SET_REG32((void *)(CYDEV_UDB_PA0_BASE), 0x00990000u);
 476              		.loc 1 830 0
 477 016a 9923     		movs	r3, #153
 478 016c 1B04     		lsls	r3, r3, #16
 479 016e 2E4A     		ldr	r2, .L21+32
 480 0170 1360     		str	r3, [r2]
 831:Generated_Source\PSoC4/cyfitter_cfg.c **** 
 832:Generated_Source\PSoC4/cyfitter_cfg.c **** 		/* UDB_PA_1 Starting address: CYDEV_UDB_PA1_BASE */
 833:Generated_Source\PSoC4/cyfitter_cfg.c **** 		CY_SET_REG32((void *)(CYDEV_UDB_PA1_BASE), 0x00990000u);
 481              		.loc 1 833 0
 482 0172 2E4A     		ldr	r2, .L21+36
 483 0174 1360     		str	r3, [r2]
 834:Generated_Source\PSoC4/cyfitter_cfg.c **** 
 835:Generated_Source\PSoC4/cyfitter_cfg.c **** 		/* UDB_PA_2 Starting address: CYDEV_UDB_PA2_BASE */
 836:Generated_Source\PSoC4/cyfitter_cfg.c **** 		CY_SET_REG32((void *)(CYDEV_UDB_PA2_BASE), 0x00990000u);
 484              		.loc 1 836 0
 485 0176 2E4A     		ldr	r2, .L21+40
 486 0178 1360     		str	r3, [r2]
 837:Generated_Source\PSoC4/cyfitter_cfg.c **** 
 838:Generated_Source\PSoC4/cyfitter_cfg.c **** 		/* UDB_PA_4 Starting address: CYDEV_UDB_PA4_BASE */
 839:Generated_Source\PSoC4/cyfitter_cfg.c **** 		CY_SET_REG32((void *)(CYDEV_UDB_PA4_BASE), 0x00990000u);
 487              		.loc 1 839 0
 488 017a 2E4A     		ldr	r2, .L21+44
 489 017c 1360     		str	r3, [r2]
 840:Generated_Source\PSoC4/cyfitter_cfg.c **** 
 841:Generated_Source\PSoC4/cyfitter_cfg.c **** 		/* UDB_PA_5 Starting address: CYDEV_UDB_PA5_BASE */
 842:Generated_Source\PSoC4/cyfitter_cfg.c **** 		CY_SET_REG32((void *)(CYDEV_UDB_PA5_BASE), 0x00990000u);
 490              		.loc 1 842 0
 491 017e 2E4A     		ldr	r2, .L21+48
 492 0180 1360     		str	r3, [r2]
 843:Generated_Source\PSoC4/cyfitter_cfg.c **** 
 844:Generated_Source\PSoC4/cyfitter_cfg.c **** 		/* UDB_PA_7 Starting address: CYDEV_UDB_PA7_BASE */
 845:Generated_Source\PSoC4/cyfitter_cfg.c **** 		CY_SET_REG32((void *)(CYDEV_UDB_PA7_BASE), 0x00990000u);
 493              		.loc 1 845 0
 494 0182 2E4A     		ldr	r2, .L21+52
 495 0184 1360     		str	r3, [r2]
 846:Generated_Source\PSoC4/cyfitter_cfg.c **** 
 847:Generated_Source\PSoC4/cyfitter_cfg.c **** 		/* UDB_P0_U0_CFG24 Starting address: CYDEV_UDB_P0_U0_CFG24 */
 848:Generated_Source\PSoC4/cyfitter_cfg.c **** 		CY_SET_REG32((void *)(CYREG_UDB_P0_U0_CFG24), 0x84000404u);
 496              		.loc 1 848 0
 497 0186 2E4A     		ldr	r2, .L21+56
 498 0188 2E4B     		ldr	r3, .L21+60
 499 018a 1A60     		str	r2, [r3]
 849:Generated_Source\PSoC4/cyfitter_cfg.c **** 
 850:Generated_Source\PSoC4/cyfitter_cfg.c **** 		/* INT_SELECT Starting address: CYDEV_CPUSS_INT_SEL */
 851:Generated_Source\PSoC4/cyfitter_cfg.c **** 		CY_SET_REG32((void *)(CYREG_CPUSS_INT_SEL), 0x00000001u);
 500              		.loc 1 851 0
ARM GAS  C:\Users\austc\AppData\Local\Temp\cciv6yeu.s 			page 25


 501 018c 0123     		movs	r3, #1
 502 018e 2E4A     		ldr	r2, .L21+64
 503 0190 1360     		str	r3, [r2]
 852:Generated_Source\PSoC4/cyfitter_cfg.c **** 
 853:Generated_Source\PSoC4/cyfitter_cfg.c **** 		/* INT_CONFIG Starting address: CYDEV_UDB_INT_CFG */
 854:Generated_Source\PSoC4/cyfitter_cfg.c **** 		CY_SET_REG32((void *)(CYREG_UDB_INT_CFG), 0x00000001u);
 504              		.loc 1 854 0
 505 0192 2E4A     		ldr	r2, .L21+68
 506 0194 1360     		str	r3, [r2]
 855:Generated_Source\PSoC4/cyfitter_cfg.c **** 
 856:Generated_Source\PSoC4/cyfitter_cfg.c **** 		/* Enable UDB array and digital routing */
 857:Generated_Source\PSoC4/cyfitter_cfg.c **** 		CY_SET_XTND_REG8((void *)CYREG_UDB_UDB_WAIT_CFG, (uint8)((CY_GET_XTND_REG8((void *)CYREG_UDB_UDB_
 507              		.loc 1 857 0
 508 0196 2E49     		ldr	r1, .L21+72
 509 0198 0B78     		ldrb	r3, [r1]
 510 019a 3C22     		movs	r2, #60
 511 019c 9343     		bics	r3, r2
 512 019e 1422     		movs	r2, #20
 513 01a0 1343     		orrs	r3, r2
 514 01a2 DBB2     		uxtb	r3, r3
 515 01a4 0B70     		strb	r3, [r1]
 858:Generated_Source\PSoC4/cyfitter_cfg.c **** 		CY_SET_XTND_REG8((void *)CYREG_UDB_UDB_BANK_CTL, (uint8)(CY_GET_XTND_REG8((void *)CYREG_UDB_UDB_B
 516              		.loc 1 858 0
 517 01a6 2B4A     		ldr	r2, .L21+76
 518 01a8 1178     		ldrb	r1, [r2]
 519 01aa 1623     		movs	r3, #22
 520 01ac 0B43     		orrs	r3, r1
 521 01ae DBB2     		uxtb	r3, r3
 522 01b0 1370     		strb	r3, [r2]
 523              	.LBE3:
 859:Generated_Source\PSoC4/cyfitter_cfg.c **** 	}
 860:Generated_Source\PSoC4/cyfitter_cfg.c **** 
 861:Generated_Source\PSoC4/cyfitter_cfg.c **** 	/* Perform second pass device configuration. These items must be configured in specific order afte
 862:Generated_Source\PSoC4/cyfitter_cfg.c **** 	/* IOPINS0_0 Starting address: CYDEV_GPIO_PRT0_BASE */
 863:Generated_Source\PSoC4/cyfitter_cfg.c **** 	CY_SET_REG32((void *)(CYDEV_GPIO_PRT0_BASE), 0x0000004Eu);
 524              		.loc 1 863 0
 525 01b2 4E22     		movs	r2, #78
 526 01b4 284B     		ldr	r3, .L21+80
 527 01b6 1A60     		str	r2, [r3]
 864:Generated_Source\PSoC4/cyfitter_cfg.c **** 	CY_SET_REG32((void *)(CYREG_GPIO_PRT0_PC), 0x00080491u);
 528              		.loc 1 864 0
 529 01b8 284A     		ldr	r2, .L21+84
 530 01ba 294B     		ldr	r3, .L21+88
 531 01bc 1A60     		str	r2, [r3]
 865:Generated_Source\PSoC4/cyfitter_cfg.c **** 
 866:Generated_Source\PSoC4/cyfitter_cfg.c **** 	/* IOPINS0_1 Starting address: CYDEV_GPIO_PRT1_BASE */
 867:Generated_Source\PSoC4/cyfitter_cfg.c **** 	CY_SET_REG32((void *)(CYDEV_GPIO_PRT1_BASE), 0x000000C0u);
 532              		.loc 1 867 0
 533 01be C023     		movs	r3, #192
 534 01c0 284A     		ldr	r2, .L21+92
 535 01c2 1360     		str	r3, [r2]
 868:Generated_Source\PSoC4/cyfitter_cfg.c **** 	CY_SET_REG32((void *)(CYREG_GPIO_PRT1_PC), 0x00586D80u);
 536              		.loc 1 868 0
 537 01c4 2849     		ldr	r1, .L21+96
 538 01c6 294A     		ldr	r2, .L21+100
 539 01c8 1160     		str	r1, [r2]
 869:Generated_Source\PSoC4/cyfitter_cfg.c **** 
ARM GAS  C:\Users\austc\AppData\Local\Temp\cciv6yeu.s 			page 26


 870:Generated_Source\PSoC4/cyfitter_cfg.c **** 	/* IOPINS0_2 Starting address: CYDEV_GPIO_PRT2_BASE */
 871:Generated_Source\PSoC4/cyfitter_cfg.c **** 	CY_SET_REG32((void *)(CYDEV_GPIO_PRT2_BASE), 0x00000081u);
 540              		.loc 1 871 0
 541 01ca 8122     		movs	r2, #129
 542 01cc 2849     		ldr	r1, .L21+104
 543 01ce 0A60     		str	r2, [r1]
 872:Generated_Source\PSoC4/cyfitter_cfg.c **** 	CY_SET_REG32((void *)(CYREG_GPIO_PRT2_PC2), 0x00000081u);
 544              		.loc 1 872 0
 545 01d0 2849     		ldr	r1, .L21+108
 546 01d2 0A60     		str	r2, [r1]
 873:Generated_Source\PSoC4/cyfitter_cfg.c **** 
 874:Generated_Source\PSoC4/cyfitter_cfg.c **** 	/* IOPINS0_3 Starting address: CYDEV_GPIO_PRT3_BASE */
 875:Generated_Source\PSoC4/cyfitter_cfg.c **** 	CY_SET_REG32((void *)(CYDEV_GPIO_PRT3_BASE), 0x00000002u);
 547              		.loc 1 875 0
 548 01d4 7F3A     		subs	r2, r2, #127
 549 01d6 2849     		ldr	r1, .L21+112
 550 01d8 0A60     		str	r2, [r1]
 876:Generated_Source\PSoC4/cyfitter_cfg.c **** 	CY_SET_REG32((void *)(CYREG_GPIO_PRT3_PC), 0x00000DB1u);
 551              		.loc 1 876 0
 552 01da 2848     		ldr	r0, .L21+116
 553 01dc 2849     		ldr	r1, .L21+120
 554 01de 0860     		str	r0, [r1]
 877:Generated_Source\PSoC4/cyfitter_cfg.c **** 	CY_SET_REG32((void *)(CYREG_GPIO_PRT3_PC2), 0x00000002u);
 555              		.loc 1 877 0
 556 01e0 2849     		ldr	r1, .L21+124
 557 01e2 0A60     		str	r2, [r1]
 878:Generated_Source\PSoC4/cyfitter_cfg.c **** 
 879:Generated_Source\PSoC4/cyfitter_cfg.c **** 	/* IOPINS0_4 Starting address: CYDEV_GPIO_PRT4_BASE */
 880:Generated_Source\PSoC4/cyfitter_cfg.c **** 	CY_SET_REG32((void *)(CYDEV_GPIO_PRT4_BASE), 0x000000C0u);
 558              		.loc 1 880 0
 559 01e4 284A     		ldr	r2, .L21+128
 560 01e6 1360     		str	r3, [r2]
 881:Generated_Source\PSoC4/cyfitter_cfg.c **** 	CY_SET_REG32((void *)(CYREG_GPIO_PRT4_PC), 0x00580000u);
 561              		.loc 1 881 0
 562 01e8 B022     		movs	r2, #176
 563 01ea D203     		lsls	r2, r2, #15
 564 01ec 274B     		ldr	r3, .L21+132
 565 01ee 1A60     		str	r2, [r3]
 882:Generated_Source\PSoC4/cyfitter_cfg.c **** 
 883:Generated_Source\PSoC4/cyfitter_cfg.c **** 	/* IOPINS0_5 Starting address: CYDEV_GPIO_PRT5_BASE */
 884:Generated_Source\PSoC4/cyfitter_cfg.c **** 	CY_SET_REG32((void *)(CYDEV_GPIO_PRT5_BASE), 0x00000008u);
 566              		.loc 1 884 0
 567 01f0 0822     		movs	r2, #8
 568 01f2 274B     		ldr	r3, .L21+136
 569 01f4 1A60     		str	r2, [r3]
 885:Generated_Source\PSoC4/cyfitter_cfg.c **** 	CY_SET_REG32((void *)(CYREG_GPIO_PRT5_PC), 0x00048400u);
 570              		.loc 1 885 0
 571 01f6 274A     		ldr	r2, .L21+140
 572 01f8 274B     		ldr	r3, .L21+144
 573 01fa 1A60     		str	r2, [r3]
 886:Generated_Source\PSoC4/cyfitter_cfg.c **** 
 887:Generated_Source\PSoC4/cyfitter_cfg.c **** 
 888:Generated_Source\PSoC4/cyfitter_cfg.c **** 	/* Setup clocks based on selections from Clock DWR */
 889:Generated_Source\PSoC4/cyfitter_cfg.c **** 	ClockSetup();
 574              		.loc 1 889 0
 575 01fc FFF700FF 		bl	ClockSetup
 576              	.LVL33:
ARM GAS  C:\Users\austc\AppData\Local\Temp\cciv6yeu.s 			page 27


 890:Generated_Source\PSoC4/cyfitter_cfg.c **** 
 891:Generated_Source\PSoC4/cyfitter_cfg.c **** 	/* Perform basic analog initialization to defaults */
 892:Generated_Source\PSoC4/cyfitter_cfg.c **** 	AnalogSetDefault();
 577              		.loc 1 892 0
 578 0200 FFF7FEFF 		bl	AnalogSetDefault
 579              	.LVL34:
 893:Generated_Source\PSoC4/cyfitter_cfg.c **** 
 894:Generated_Source\PSoC4/cyfitter_cfg.c **** }
 580              		.loc 1 894 0
 581              		@ sp needed
 582              	.LVL35:
 583 0204 10BD     		pop	{r4, pc}
 584              	.L22:
 585 0206 C046     		.align	2
 586              	.L21:
 587 0208 1C700F40 		.word	1074753564
 588 020c 00000000 		.word	.LANCHOR0
 589 0210 00030000 		.word	.LANCHOR1
 590 0214 00000240 		.word	1073872896
 591 0218 00010240 		.word	1073873152
 592 021c 99EE0000 		.word	61081
 593 0220 00030240 		.word	1073873664
 594 0224 00040240 		.word	1073873920
 595 0228 00500F40 		.word	1074745344
 596 022c 10500F40 		.word	1074745360
 597 0230 20500F40 		.word	1074745376
 598 0234 40500F40 		.word	1074745408
 599 0238 50500F40 		.word	1074745424
 600 023c 70500F40 		.word	1074745456
 601 0240 04040084 		.word	-2080373756
 602 0244 58300F40 		.word	1074737240
 603 0248 20001040 		.word	1074790432
 604 024c 00800F40 		.word	1074757632
 605 0250 01700F40 		.word	1074753537
 606 0254 00700F40 		.word	1074753536
 607 0258 00000440 		.word	1074003968
 608 025c 91040800 		.word	525457
 609 0260 08000440 		.word	1074003976
 610 0264 00010440 		.word	1074004224
 611 0268 806D5800 		.word	5795200
 612 026c 08010440 		.word	1074004232
 613 0270 00020440 		.word	1074004480
 614 0274 18020440 		.word	1074004504
 615 0278 00030440 		.word	1074004736
 616 027c B10D0000 		.word	3505
 617 0280 08030440 		.word	1074004744
 618 0284 18030440 		.word	1074004760
 619 0288 00040440 		.word	1074004992
 620 028c 08040440 		.word	1074005000
 621 0290 00050440 		.word	1074005248
 622 0294 00840400 		.word	295936
 623 0298 08050440 		.word	1074005256
 624              		.cfi_endproc
 625              	.LFE41:
 626              		.size	cyfitter_cfg, .-cyfitter_cfg
 627              		.section	.rodata
 628              		.align	2
ARM GAS  C:\Users\austc\AppData\Local\Temp\cciv6yeu.s 			page 28


 629              		.set	.LANCHOR0,. + 0
 630              		.set	.LANCHOR1,. + 768
 631              		.type	cfg_memset_list.6505, %object
 632              		.size	cfg_memset_list.6505, 12
 633              	cfg_memset_list.6505:
 634 0000 00300F40 		.word	1074737152
 635 0004 0008     		.short	2048
 636 0006 00400F40 		.4byte	1074741248
 637 000a 0008     		.short	2048
 638              		.type	cy_cfg_data_table.6500, %object
 639              		.size	cy_cfg_data_table.6500, 842
 640              	cy_cfg_data_table.6500:
 641 000c 80       		.byte	-128
 642 000d 6F       		.byte	111
 643 000e 84       		.byte	-124
 644 000f 0F       		.byte	15
 645 0010 85       		.byte	-123
 646 0011 03       		.byte	3
 647 0012 01       		.byte	1
 648 0013 10       		.byte	16
 649 0014 07       		.byte	7
 650 0015 10       		.byte	16
 651 0016 09       		.byte	9
 652 0017 04       		.byte	4
 653 0018 0B       		.byte	11
 654 0019 08       		.byte	8
 655 001a 0D       		.byte	13
 656 001b 02       		.byte	2
 657 001c 0F       		.byte	15
 658 001d 1D       		.byte	29
 659 001e 14       		.byte	20
 660 001f 04       		.byte	4
 661 0020 15       		.byte	21
 662 0021 1C       		.byte	28
 663 0022 18       		.byte	24
 664 0023 01       		.byte	1
 665 0024 19       		.byte	25
 666 0025 04       		.byte	4
 667 0026 1B       		.byte	27
 668 0027 08       		.byte	8
 669 0028 1D       		.byte	29
 670 0029 1C       		.byte	28
 671 002a 22       		.byte	34
 672 002b 03       		.byte	3
 673 002c 23       		.byte	35
 674 002d 03       		.byte	3
 675 002e 25       		.byte	37
 676 002f 03       		.byte	3
 677 0030 2A       		.byte	42
 678 0031 0C       		.byte	12
 679 0032 2B       		.byte	43
 680 0033 20       		.byte	32
 681 0034 30       		.byte	48
 682 0035 04       		.byte	4
 683 0036 31       		.byte	49
 684 0037 3C       		.byte	60
 685 0038 32       		.byte	50
ARM GAS  C:\Users\austc\AppData\Local\Temp\cciv6yeu.s 			page 29


 686 0039 08       		.byte	8
 687 003a 34       		.byte	52
 688 003b 02       		.byte	2
 689 003c 35       		.byte	53
 690 003d 02       		.byte	2
 691 003e 36       		.byte	54
 692 003f 01       		.byte	1
 693 0040 37       		.byte	55
 694 0041 01       		.byte	1
 695 0042 3E       		.byte	62
 696 0043 41       		.byte	65
 697 0044 3F       		.byte	63
 698 0045 50       		.byte	80
 699 0046 54       		.byte	84
 700 0047 0F       		.byte	15
 701 0048 58       		.byte	88
 702 0049 04       		.byte	4
 703 004a 59       		.byte	89
 704 004b 04       		.byte	4
 705 004c 5B       		.byte	91
 706 004d 04       		.byte	4
 707 004e 5C       		.byte	92
 708 004f 11       		.byte	17
 709 0050 5D       		.byte	93
 710 0051 10       		.byte	16
 711 0052 5F       		.byte	95
 712 0053 05       		.byte	5
 713 0054 81       		.byte	-127
 714 0055 05       		.byte	5
 715 0056 83       		.byte	-125
 716 0057 0A       		.byte	10
 717 0058 84       		.byte	-124
 718 0059 9E       		.byte	-98
 719 005a 85       		.byte	-123
 720 005b 07       		.byte	7
 721 005c 86       		.byte	-122
 722 005d 60       		.byte	96
 723 005e 88       		.byte	-120
 724 005f 94       		.byte	-108
 725 0060 8A       		.byte	-118
 726 0061 60       		.byte	96
 727 0062 92       		.byte	-110
 728 0063 0F       		.byte	15
 729 0064 95       		.byte	-107
 730 0065 0C       		.byte	12
 731 0066 97       		.byte	-105
 732 0067 03       		.byte	3
 733 0068 98       		.byte	-104
 734 0069 73       		.byte	115
 735 006a 99       		.byte	-103
 736 006b 0A       		.byte	10
 737 006c 9B       		.byte	-101
 738 006d 05       		.byte	5
 739 006e 9C       		.byte	-100
 740 006f 30       		.byte	48
 741 0070 9D       		.byte	-99
 742 0071 0F       		.byte	15
ARM GAS  C:\Users\austc\AppData\Local\Temp\cciv6yeu.s 			page 30


 743 0072 9E       		.byte	-98
 744 0073 C9       		.byte	-55
 745 0074 A4       		.byte	-92
 746 0075 CF       		.byte	-49
 747 0076 A5       		.byte	-91
 748 0077 03       		.byte	3
 749 0078 A6       		.byte	-90
 750 0079 30       		.byte	48
 751 007a A7       		.byte	-89
 752 007b 0C       		.byte	12
 753 007c AC       		.byte	-84
 754 007d FD       		.byte	-3
 755 007e AE       		.byte	-82
 756 007f 02       		.byte	2
 757 0080 B1       		.byte	-79
 758 0081 0F       		.byte	15
 759 0082 B2       		.byte	-78
 760 0083 FF       		.byte	-1
 761 0084 BE       		.byte	-66
 762 0085 04       		.byte	4
 763 0086 D8       		.byte	-40
 764 0087 04       		.byte	4
 765 0088 D9       		.byte	-39
 766 0089 04       		.byte	4
 767 008a DB       		.byte	-37
 768 008b 04       		.byte	4
 769 008c DC       		.byte	-36
 770 008d 10       		.byte	16
 771 008e DF       		.byte	-33
 772 008f 01       		.byte	1
 773 0090 05       		.byte	5
 774 0091 10       		.byte	16
 775 0092 06       		.byte	6
 776 0093 18       		.byte	24
 777 0094 07       		.byte	7
 778 0095 10       		.byte	16
 779 0096 0A       		.byte	10
 780 0097 18       		.byte	24
 781 0098 0E       		.byte	14
 782 0099 04       		.byte	4
 783 009a 0F       		.byte	15
 784 009b 41       		.byte	65
 785 009c 10       		.byte	16
 786 009d 88       		.byte	-120
 787 009e 13       		.byte	19
 788 009f 20       		.byte	32
 789 00a0 15       		.byte	21
 790 00a1 08       		.byte	8
 791 00a2 17       		.byte	23
 792 00a3 44       		.byte	68
 793 00a4 19       		.byte	25
 794 00a5 81       		.byte	-127
 795 00a6 1A       		.byte	26
 796 00a7 18       		.byte	24
 797 00a8 1B       		.byte	27
 798 00a9 10       		.byte	16
 799 00aa 1F       		.byte	31
ARM GAS  C:\Users\austc\AppData\Local\Temp\cciv6yeu.s 			page 31


 800 00ab 08       		.byte	8
 801 00ac 22       		.byte	34
 802 00ad 50       		.byte	80
 803 00ae 23       		.byte	35
 804 00af 40       		.byte	64
 805 00b0 24       		.byte	36
 806 00b1 80       		.byte	-128
 807 00b2 27       		.byte	39
 808 00b3 40       		.byte	64
 809 00b4 2B       		.byte	43
 810 00b5 58       		.byte	88
 811 00b6 2E       		.byte	46
 812 00b7 08       		.byte	8
 813 00b8 30       		.byte	48
 814 00b9 04       		.byte	4
 815 00ba 31       		.byte	49
 816 00bb 10       		.byte	16
 817 00bc 33       		.byte	51
 818 00bd 40       		.byte	64
 819 00be 37       		.byte	55
 820 00bf 54       		.byte	84
 821 00c0 39       		.byte	57
 822 00c1 08       		.byte	8
 823 00c2 3A       		.byte	58
 824 00c3 10       		.byte	16
 825 00c4 3B       		.byte	59
 826 00c5 41       		.byte	65
 827 00c6 3E       		.byte	62
 828 00c7 04       		.byte	4
 829 00c8 3F       		.byte	63
 830 00c9 01       		.byte	1
 831 00ca 59       		.byte	89
 832 00cb 89       		.byte	-119
 833 00cc 5B       		.byte	91
 834 00cd 20       		.byte	32
 835 00ce 5C       		.byte	92
 836 00cf 06       		.byte	6
 837 00d0 5D       		.byte	93
 838 00d1 40       		.byte	64
 839 00d2 5F       		.byte	95
 840 00d3 10       		.byte	16
 841 00d4 61       		.byte	97
 842 00d5 24       		.byte	36
 843 00d6 78       		.byte	120
 844 00d7 04       		.byte	4
 845 00d8 8D       		.byte	-115
 846 00d9 40       		.byte	64
 847 00da C0       		.byte	-64
 848 00db 60       		.byte	96
 849 00dc C2       		.byte	-62
 850 00dd D6       		.byte	-42
 851 00de C4       		.byte	-60
 852 00df AA       		.byte	-86
 853 00e0 CA       		.byte	-54
 854 00e1 47       		.byte	71
 855 00e2 CC       		.byte	-52
 856 00e3 7E       		.byte	126
ARM GAS  C:\Users\austc\AppData\Local\Temp\cciv6yeu.s 			page 32


 857 00e4 CE       		.byte	-50
 858 00e5 CF       		.byte	-49
 859 00e6 D6       		.byte	-42
 860 00e7 FF       		.byte	-1
 861 00e8 D8       		.byte	-40
 862 00e9 06       		.byte	6
 863 00ea DE       		.byte	-34
 864 00eb 02       		.byte	2
 865 00ec 04       		.byte	4
 866 00ed 06       		.byte	6
 867 00ee 0C       		.byte	12
 868 00ef 05       		.byte	5
 869 00f0 18       		.byte	24
 870 00f1 03       		.byte	3
 871 00f2 24       		.byte	36
 872 00f3 06       		.byte	6
 873 00f4 2D       		.byte	45
 874 00f5 01       		.byte	1
 875 00f6 31       		.byte	49
 876 00f7 01       		.byte	1
 877 00f8 34       		.byte	52
 878 00f9 07       		.byte	7
 879 00fa 38       		.byte	56
 880 00fb 20       		.byte	32
 881 00fc 40       		.byte	64
 882 00fd 36       		.byte	54
 883 00fe 41       		.byte	65
 884 00ff 05       		.byte	5
 885 0100 49       		.byte	73
 886 0101 FF       		.byte	-1
 887 0102 4A       		.byte	74
 888 0103 FF       		.byte	-1
 889 0104 4B       		.byte	75
 890 0105 FF       		.byte	-1
 891 0106 4D       		.byte	77
 892 0107 A0       		.byte	-96
 893 0108 4F       		.byte	79
 894 0109 01       		.byte	1
 895 010a 50       		.byte	80
 896 010b 18       		.byte	24
 897 010c 58       		.byte	88
 898 010d 04       		.byte	4
 899 010e 59       		.byte	89
 900 010f 04       		.byte	4
 901 0110 5A       		.byte	90
 902 0111 04       		.byte	4
 903 0112 5C       		.byte	92
 904 0113 31       		.byte	49
 905 0114 5D       		.byte	93
 906 0115 01       		.byte	1
 907 0116 5F       		.byte	95
 908 0117 01       		.byte	1
 909 0118 60       		.byte	96
 910 0119 40       		.byte	64
 911 011a 62       		.byte	98
 912 011b 80       		.byte	-128
 913 011c 64       		.byte	100
ARM GAS  C:\Users\austc\AppData\Local\Temp\cciv6yeu.s 			page 33


 914 011d 40       		.byte	64
 915 011e 65       		.byte	101
 916 011f 40       		.byte	64
 917 0120 66       		.byte	102
 918 0121 80       		.byte	-128
 919 0122 68       		.byte	104
 920 0123 40       		.byte	64
 921 0124 6A       		.byte	106
 922 0125 80       		.byte	-128
 923 0126 6C       		.byte	108
 924 0127 40       		.byte	64
 925 0128 6D       		.byte	109
 926 0129 20       		.byte	32
 927 012a 6E       		.byte	110
 928 012b 80       		.byte	-128
 929 012c 81       		.byte	-127
 930 012d 01       		.byte	1
 931 012e 85       		.byte	-123
 932 012f 1C       		.byte	28
 933 0130 8B       		.byte	-117
 934 0131 07       		.byte	7
 935 0132 8D       		.byte	-115
 936 0133 18       		.byte	24
 937 0134 8F       		.byte	-113
 938 0135 04       		.byte	4
 939 0136 90       		.byte	-112
 940 0137 08       		.byte	8
 941 0138 97       		.byte	-105
 942 0139 20       		.byte	32
 943 013a 98       		.byte	-104
 944 013b 01       		.byte	1
 945 013c 99       		.byte	-103
 946 013d 18       		.byte	24
 947 013e 9D       		.byte	-99
 948 013f 08       		.byte	8
 949 0140 9F       		.byte	-97
 950 0141 10       		.byte	16
 951 0142 A5       		.byte	-91
 952 0143 0C       		.byte	12
 953 0144 A8       		.byte	-88
 954 0145 03       		.byte	3
 955 0146 A9       		.byte	-87
 956 0147 14       		.byte	20
 957 0148 AB       		.byte	-85
 958 0149 08       		.byte	8
 959 014a AC       		.byte	-84
 960 014b 03       		.byte	3
 961 014c AE       		.byte	-82
 962 014d 0C       		.byte	12
 963 014e AF       		.byte	-81
 964 014f 01       		.byte	1
 965 0150 B0       		.byte	-80
 966 0151 04       		.byte	4
 967 0152 B1       		.byte	-79
 968 0153 02       		.byte	2
 969 0154 B2       		.byte	-78
 970 0155 08       		.byte	8
ARM GAS  C:\Users\austc\AppData\Local\Temp\cciv6yeu.s 			page 34


 971 0156 B3       		.byte	-77
 972 0157 01       		.byte	1
 973 0158 B4       		.byte	-76
 974 0159 01       		.byte	1
 975 015a B5       		.byte	-75
 976 015b 1C       		.byte	28
 977 015c B6       		.byte	-74
 978 015d 02       		.byte	2
 979 015e B7       		.byte	-73
 980 015f 20       		.byte	32
 981 0160 B8       		.byte	-72
 982 0161 A0       		.byte	-96
 983 0162 BE       		.byte	-66
 984 0163 14       		.byte	20
 985 0164 BF       		.byte	-65
 986 0165 04       		.byte	4
 987 0166 C0       		.byte	-64
 988 0167 32       		.byte	50
 989 0168 C1       		.byte	-63
 990 0169 05       		.byte	5
 991 016a C5       		.byte	-59
 992 016b 0E       		.byte	14
 993 016c C6       		.byte	-58
 994 016d C4       		.byte	-60
 995 016e C7       		.byte	-57
 996 016f 32       		.byte	50
 997 0170 C8       		.byte	-56
 998 0171 3D       		.byte	61
 999 0172 C9       		.byte	-55
 1000 0173 FF       		.byte	-1
 1001 0174 CA       		.byte	-54
 1002 0175 FF       		.byte	-1
 1003 0176 CB       		.byte	-53
 1004 0177 FF       		.byte	-1
 1005 0178 CD       		.byte	-51
 1006 0179 AF       		.byte	-81
 1007 017a CE       		.byte	-50
 1008 017b 07       		.byte	7
 1009 017c CF       		.byte	-49
 1010 017d 01       		.byte	1
 1011 017e D0       		.byte	-48
 1012 017f 18       		.byte	24
 1013 0180 D2       		.byte	-46
 1014 0181 80       		.byte	-128
 1015 0182 D8       		.byte	-40
 1016 0183 04       		.byte	4
 1017 0184 D9       		.byte	-39
 1018 0185 04       		.byte	4
 1019 0186 DA       		.byte	-38
 1020 0187 04       		.byte	4
 1021 0188 DB       		.byte	-37
 1022 0189 04       		.byte	4
 1023 018a DC       		.byte	-36
 1024 018b 11       		.byte	17
 1025 018c DD       		.byte	-35
 1026 018d 11       		.byte	17
 1027 018e DF       		.byte	-33
ARM GAS  C:\Users\austc\AppData\Local\Temp\cciv6yeu.s 			page 35


 1028 018f 01       		.byte	1
 1029 0190 E0       		.byte	-32
 1030 0191 40       		.byte	64
 1031 0192 E2       		.byte	-30
 1032 0193 80       		.byte	-128
 1033 0194 E4       		.byte	-28
 1034 0195 40       		.byte	64
 1035 0196 E5       		.byte	-27
 1036 0197 40       		.byte	64
 1037 0198 E6       		.byte	-26
 1038 0199 80       		.byte	-128
 1039 019a E8       		.byte	-24
 1040 019b 40       		.byte	64
 1041 019c EA       		.byte	-22
 1042 019d 80       		.byte	-128
 1043 019e EC       		.byte	-20
 1044 019f 40       		.byte	64
 1045 01a0 ED       		.byte	-19
 1046 01a1 20       		.byte	32
 1047 01a2 EE       		.byte	-18
 1048 01a3 80       		.byte	-128
 1049 01a4 04       		.byte	4
 1050 01a5 80       		.byte	-128
 1051 01a6 07       		.byte	7
 1052 01a7 11       		.byte	17
 1053 01a8 09       		.byte	9
 1054 01a9 10       		.byte	16
 1055 01aa 0A       		.byte	10
 1056 01ab 44       		.byte	68
 1057 01ac 0E       		.byte	14
 1058 01ad 04       		.byte	4
 1059 01ae 10       		.byte	16
 1060 01af 0A       		.byte	10
 1061 01b0 15       		.byte	21
 1062 01b1 08       		.byte	8
 1063 01b2 18       		.byte	24
 1064 01b3 04       		.byte	4
 1065 01b4 19       		.byte	25
 1066 01b5 08       		.byte	8
 1067 01b6 1A       		.byte	26
 1068 01b7 40       		.byte	64
 1069 01b8 1B       		.byte	27
 1070 01b9 50       		.byte	80
 1071 01ba 1E       		.byte	30
 1072 01bb 04       		.byte	4
 1073 01bc 1F       		.byte	31
 1074 01bd 20       		.byte	32
 1075 01be 20       		.byte	32
 1076 01bf 01       		.byte	1
 1077 01c0 21       		.byte	33
 1078 01c1 19       		.byte	25
 1079 01c2 24       		.byte	36
 1080 01c3 40       		.byte	64
 1081 01c4 2A       		.byte	42
 1082 01c5 90       		.byte	-112
 1083 01c6 2B       		.byte	43
 1084 01c7 20       		.byte	32
ARM GAS  C:\Users\austc\AppData\Local\Temp\cciv6yeu.s 			page 36


 1085 01c8 2F       		.byte	47
 1086 01c9 01       		.byte	1
 1087 01ca 31       		.byte	49
 1088 01cb 10       		.byte	16
 1089 01cc 32       		.byte	50
 1090 01cd 80       		.byte	-128
 1091 01ce 33       		.byte	51
 1092 01cf 04       		.byte	4
 1093 01d0 38       		.byte	56
 1094 01d1 80       		.byte	-128
 1095 01d2 39       		.byte	57
 1096 01d3 2A       		.byte	42
 1097 01d4 40       		.byte	64
 1098 01d5 04       		.byte	4
 1099 01d6 41       		.byte	65
 1100 01d7 08       		.byte	8
 1101 01d8 45       		.byte	69
 1102 01d9 08       		.byte	8
 1103 01da 49       		.byte	73
 1104 01db 04       		.byte	4
 1105 01dc 4B       		.byte	75
 1106 01dd 40       		.byte	64
 1107 01de 4F       		.byte	79
 1108 01df 60       		.byte	96
 1109 01e0 50       		.byte	80
 1110 01e1 8A       		.byte	-118
 1111 01e2 51       		.byte	81
 1112 01e3 20       		.byte	32
 1113 01e4 58       		.byte	88
 1114 01e5 04       		.byte	4
 1115 01e6 5A       		.byte	90
 1116 01e7 04       		.byte	4
 1117 01e8 72       		.byte	114
 1118 01e9 80       		.byte	-128
 1119 01ea 90       		.byte	-112
 1120 01eb 80       		.byte	-128
 1121 01ec 92       		.byte	-110
 1122 01ed A0       		.byte	-96
 1123 01ee 93       		.byte	-109
 1124 01ef 40       		.byte	64
 1125 01f0 95       		.byte	-107
 1126 01f1 08       		.byte	8
 1127 01f2 96       		.byte	-106
 1128 01f3 04       		.byte	4
 1129 01f4 97       		.byte	-105
 1130 01f5 01       		.byte	1
 1131 01f6 9A       		.byte	-102
 1132 01f7 10       		.byte	16
 1133 01f8 9B       		.byte	-101
 1134 01f9 08       		.byte	8
 1135 01fa 9C       		.byte	-100
 1136 01fb 04       		.byte	4
 1137 01fc 9D       		.byte	-99
 1138 01fd 1C       		.byte	28
 1139 01fe 9F       		.byte	-97
 1140 01ff 10       		.byte	16
 1141 0200 A3       		.byte	-93
ARM GAS  C:\Users\austc\AppData\Local\Temp\cciv6yeu.s 			page 37


 1142 0201 04       		.byte	4
 1143 0202 A4       		.byte	-92
 1144 0203 88       		.byte	-120
 1145 0204 A5       		.byte	-91
 1146 0205 20       		.byte	32
 1147 0206 A7       		.byte	-89
 1148 0207 40       		.byte	64
 1149 0208 AB       		.byte	-85
 1150 0209 04       		.byte	4
 1151 020a AF       		.byte	-81
 1152 020b 08       		.byte	8
 1153 020c B3       		.byte	-77
 1154 020d 10       		.byte	16
 1155 020e B4       		.byte	-76
 1156 020f 06       		.byte	6
 1157 0210 C0       		.byte	-64
 1158 0211 A0       		.byte	-96
 1159 0212 C2       		.byte	-62
 1160 0213 4A       		.byte	74
 1161 0214 C4       		.byte	-60
 1162 0215 23       		.byte	35
 1163 0216 CA       		.byte	-54
 1164 0217 1E       		.byte	30
 1165 0218 CC       		.byte	-52
 1166 0219 0E       		.byte	14
 1167 021a CE       		.byte	-50
 1168 021b 0F       		.byte	15
 1169 021c D0       		.byte	-48
 1170 021d 46       		.byte	70
 1171 021e D2       		.byte	-46
 1172 021f 38       		.byte	56
 1173 0220 00       		.byte	0
 1174 0221 01       		.byte	1
 1175 0222 01       		.byte	1
 1176 0223 10       		.byte	16
 1177 0224 03       		.byte	3
 1178 0225 20       		.byte	32
 1179 0226 05       		.byte	5
 1180 0227 0C       		.byte	12
 1181 0228 07       		.byte	7
 1182 0229 02       		.byte	2
 1183 022a 09       		.byte	9
 1184 022b 0C       		.byte	12
 1185 022c 0B       		.byte	11
 1186 022d 01       		.byte	1
 1187 022e 0D       		.byte	13
 1188 022f 0B       		.byte	11
 1189 0230 0F       		.byte	15
 1190 0231 04       		.byte	4
 1191 0232 11       		.byte	17
 1192 0233 10       		.byte	16
 1193 0234 13       		.byte	19
 1194 0235 20       		.byte	32
 1195 0236 15       		.byte	21
 1196 0237 10       		.byte	16
 1197 0238 17       		.byte	23
 1198 0239 20       		.byte	32
ARM GAS  C:\Users\austc\AppData\Local\Temp\cciv6yeu.s 			page 38


 1199 023a 1B       		.byte	27
 1200 023b 0F       		.byte	15
 1201 023c 1D       		.byte	29
 1202 023d 28       		.byte	40
 1203 023e 1F       		.byte	31
 1204 023f 11       		.byte	17
 1205 0240 29       		.byte	41
 1206 0241 07       		.byte	7
 1207 0242 33       		.byte	51
 1208 0243 0F       		.byte	15
 1209 0244 34       		.byte	52
 1210 0245 01       		.byte	1
 1211 0246 37       		.byte	55
 1212 0247 30       		.byte	48
 1213 0248 3B       		.byte	59
 1214 0249 80       		.byte	-128
 1215 024a 54       		.byte	84
 1216 024b 0F       		.byte	15
 1217 024c 58       		.byte	88
 1218 024d 04       		.byte	4
 1219 024e 59       		.byte	89
 1220 024f 04       		.byte	4
 1221 0250 5B       		.byte	91
 1222 0251 04       		.byte	4
 1223 0252 5C       		.byte	92
 1224 0253 13       		.byte	19
 1225 0254 5D       		.byte	93
 1226 0255 10       		.byte	16
 1227 0256 5F       		.byte	95
 1228 0257 01       		.byte	1
 1229 0258 80       		.byte	-128
 1230 0259 01       		.byte	1
 1231 025a 82       		.byte	-126
 1232 025b 02       		.byte	2
 1233 025c 83       		.byte	-125
 1234 025d 0F       		.byte	15
 1235 025e 87       		.byte	-121
 1236 025f 20       		.byte	32
 1237 0260 88       		.byte	-120
 1238 0261 02       		.byte	2
 1239 0262 89       		.byte	-119
 1240 0263 07       		.byte	7
 1241 0264 8A       		.byte	-118
 1242 0265 01       		.byte	1
 1243 0266 93       		.byte	-109
 1244 0267 10       		.byte	16
 1245 0268 94       		.byte	-108
 1246 0269 01       		.byte	1
 1247 026a 95       		.byte	-107
 1248 026b 0C       		.byte	12
 1249 026c 96       		.byte	-106
 1250 026d 0A       		.byte	10
 1251 026e 97       		.byte	-105
 1252 026f 01       		.byte	1
 1253 0270 99       		.byte	-103
 1254 0271 0C       		.byte	12
 1255 0272 9B       		.byte	-101
ARM GAS  C:\Users\austc\AppData\Local\Temp\cciv6yeu.s 			page 39


 1256 0273 02       		.byte	2
 1257 0274 9C       		.byte	-100
 1258 0275 01       		.byte	1
 1259 0276 9E       		.byte	-98
 1260 0277 06       		.byte	6
 1261 0278 A1       		.byte	-95
 1262 0279 0B       		.byte	11
 1263 027a A3       		.byte	-93
 1264 027b 04       		.byte	4
 1265 027c A5       		.byte	-91
 1266 027d 08       		.byte	8
 1267 027e A6       		.byte	-90
 1268 027f 10       		.byte	16
 1269 0280 A7       		.byte	-89
 1270 0281 01       		.byte	1
 1271 0282 B0       		.byte	-80
 1272 0283 04       		.byte	4
 1273 0284 B1       		.byte	-79
 1274 0285 20       		.byte	32
 1275 0286 B2       		.byte	-78
 1276 0287 10       		.byte	16
 1277 0288 B3       		.byte	-77
 1278 0289 0F       		.byte	15
 1279 028a B4       		.byte	-76
 1280 028b 03       		.byte	3
 1281 028c B5       		.byte	-75
 1282 028d 10       		.byte	16
 1283 028e B6       		.byte	-74
 1284 028f 08       		.byte	8
 1285 0290 BA       		.byte	-70
 1286 0291 20       		.byte	32
 1287 0292 D6       		.byte	-42
 1288 0293 04       		.byte	4
 1289 0294 D8       		.byte	-40
 1290 0295 04       		.byte	4
 1291 0296 D9       		.byte	-39
 1292 0297 04       		.byte	4
 1293 0298 DB       		.byte	-37
 1294 0299 04       		.byte	4
 1295 029a DC       		.byte	-36
 1296 029b 11       		.byte	17
 1297 029c DF       		.byte	-33
 1298 029d 01       		.byte	1
 1299 029e 03       		.byte	3
 1300 029f 80       		.byte	-128
 1301 02a0 05       		.byte	5
 1302 02a1 11       		.byte	17
 1303 02a2 0E       		.byte	14
 1304 02a3 22       		.byte	34
 1305 02a4 17       		.byte	23
 1306 02a5 08       		.byte	8
 1307 02a6 19       		.byte	25
 1308 02a7 20       		.byte	32
 1309 02a8 1D       		.byte	29
 1310 02a9 11       		.byte	17
 1311 02aa 1E       		.byte	30
 1312 02ab 22       		.byte	34
ARM GAS  C:\Users\austc\AppData\Local\Temp\cciv6yeu.s 			page 40


 1313 02ac 1F       		.byte	31
 1314 02ad 10       		.byte	16
 1315 02ae 21       		.byte	33
 1316 02af 04       		.byte	4
 1317 02b0 22       		.byte	34
 1318 02b1 88       		.byte	-120
 1319 02b2 23       		.byte	35
 1320 02b3 01       		.byte	1
 1321 02b4 24       		.byte	36
 1322 02b5 10       		.byte	16
 1323 02b6 26       		.byte	38
 1324 02b7 02       		.byte	2
 1325 02b8 27       		.byte	39
 1326 02b9 14       		.byte	20
 1327 02ba 28       		.byte	40
 1328 02bb 04       		.byte	4
 1329 02bc 2F       		.byte	47
 1330 02bd 50       		.byte	80
 1331 02be 31       		.byte	49
 1332 02bf 10       		.byte	16
 1333 02c0 32       		.byte	50
 1334 02c1 82       		.byte	-126
 1335 02c2 33       		.byte	51
 1336 02c3 04       		.byte	4
 1337 02c4 36       		.byte	54
 1338 02c5 0A       		.byte	10
 1339 02c6 37       		.byte	55
 1340 02c7 10       		.byte	16
 1341 02c8 38       		.byte	56
 1342 02c9 91       		.byte	-111
 1343 02ca 39       		.byte	57
 1344 02cb 08       		.byte	8
 1345 02cc 3B       		.byte	59
 1346 02cd 80       		.byte	-128
 1347 02ce 3D       		.byte	61
 1348 02cf 20       		.byte	32
 1349 02d0 3F       		.byte	63
 1350 02d1 09       		.byte	9
 1351 02d2 58       		.byte	88
 1352 02d3 04       		.byte	4
 1353 02d4 5A       		.byte	90
 1354 02d5 A0       		.byte	-96
 1355 02d6 5B       		.byte	91
 1356 02d7 01       		.byte	1
 1357 02d8 5C       		.byte	92
 1358 02d9 40       		.byte	64
 1359 02da 5D       		.byte	93
 1360 02db 20       		.byte	32
 1361 02dc 67       		.byte	103
 1362 02dd 40       		.byte	64
 1363 02de 87       		.byte	-121
 1364 02df 40       		.byte	64
 1365 02e0 8B       		.byte	-117
 1366 02e1 80       		.byte	-128
 1367 02e2 90       		.byte	-112
 1368 02e3 C1       		.byte	-63
 1369 02e4 92       		.byte	-110
ARM GAS  C:\Users\austc\AppData\Local\Temp\cciv6yeu.s 			page 41


 1370 02e5 A0       		.byte	-96
 1371 02e6 95       		.byte	-107
 1372 02e7 08       		.byte	8
 1373 02e8 97       		.byte	-105
 1374 02e9 01       		.byte	1
 1375 02ea 98       		.byte	-104
 1376 02eb 04       		.byte	4
 1377 02ec 9B       		.byte	-101
 1378 02ed 09       		.byte	9
 1379 02ee 9D       		.byte	-99
 1380 02ef 10       		.byte	16
 1381 02f0 9F       		.byte	-97
 1382 02f1 14       		.byte	20
 1383 02f2 A1       		.byte	-95
 1384 02f3 10       		.byte	16
 1385 02f4 A3       		.byte	-93
 1386 02f5 04       		.byte	4
 1387 02f6 A6       		.byte	-90
 1388 02f7 80       		.byte	-128
 1389 02f8 AB       		.byte	-85
 1390 02f9 01       		.byte	1
 1391 02fa C0       		.byte	-64
 1392 02fb 58       		.byte	88
 1393 02fc C2       		.byte	-62
 1394 02fd A0       		.byte	-96
 1395 02fe C4       		.byte	-60
 1396 02ff 20       		.byte	32
 1397 0300 CA       		.byte	-54
 1398 0301 C4       		.byte	-60
 1399 0302 CC       		.byte	-52
 1400 0303 EF       		.byte	-17
 1401 0304 CE       		.byte	-50
 1402 0305 EF       		.byte	-17
 1403 0306 D6       		.byte	-42
 1404 0307 3F       		.byte	63
 1405 0308 D8       		.byte	-40
 1406 0309 80       		.byte	-128
 1407 030a 0B       		.byte	11
 1408 030b 02       		.byte	2
 1409 030c 0F       		.byte	15
 1410 030d 10       		.byte	16
 1411 030e 6B       		.byte	107
 1412 030f 02       		.byte	2
 1413 0310 C2       		.byte	-62
 1414 0311 60       		.byte	96
 1415 0312 DA       		.byte	-38
 1416 0313 40       		.byte	64
 1417 0314 0F       		.byte	15
 1418 0315 08       		.byte	8
 1419 0316 9F       		.byte	-97
 1420 0317 02       		.byte	2
 1421 0318 AB       		.byte	-85
 1422 0319 01       		.byte	1
 1423 031a AF       		.byte	-81
 1424 031b 10       		.byte	16
 1425 031c C2       		.byte	-62
 1426 031d 80       		.byte	-128
ARM GAS  C:\Users\austc\AppData\Local\Temp\cciv6yeu.s 			page 42


 1427 031e E8       		.byte	-24
 1428 031f 10       		.byte	16
 1429 0320 EC       		.byte	-20
 1430 0321 20       		.byte	32
 1431 0322 87       		.byte	-121
 1432 0323 02       		.byte	2
 1433 0324 9F       		.byte	-97
 1434 0325 02       		.byte	2
 1435 0326 AB       		.byte	-85
 1436 0327 04       		.byte	4
 1437 0328 E6       		.byte	-26
 1438 0329 40       		.byte	64
 1439 032a EC       		.byte	-20
 1440 032b 20       		.byte	32
 1441 032c 01       		.byte	1
 1442 032d 80       		.byte	-128
 1443 032e 04       		.byte	4
 1444 032f 08       		.byte	8
 1445 0330 07       		.byte	7
 1446 0331 08       		.byte	8
 1447 0332 0B       		.byte	11
 1448 0333 02       		.byte	2
 1449 0334 8F       		.byte	-113
 1450 0335 01       		.byte	1
 1451 0336 C0       		.byte	-64
 1452 0337 07       		.byte	7
 1453 0338 C2       		.byte	-62
 1454 0339 02       		.byte	2
 1455 033a E2       		.byte	-30
 1456 033b 02       		.byte	2
 1457 033c 0C       		.byte	12
 1458 033d 40       		.byte	64
 1459 033e B3       		.byte	-77
 1460 033f 08       		.byte	8
 1461 0340 B4       		.byte	-76
 1462 0341 04       		.byte	4
 1463 0342 B5       		.byte	-75
 1464 0343 80       		.byte	-128
 1465 0344 C2       		.byte	-62
 1466 0345 01       		.byte	1
 1467 0346 EA       		.byte	-22
 1468 0347 08       		.byte	8
 1469 0348 EE       		.byte	-18
 1470 0349 03       		.byte	3
 1471 034a 88       		.byte	-120
 1472 034b 40       		.byte	64
 1473 034c 98       		.byte	-104
 1474 034d 40       		.byte	64
 1475 034e E2       		.byte	-30
 1476 034f 01       		.byte	1
 1477 0350 01       		.byte	1
 1478 0351 0A       		.byte	10
 1479 0352 10       		.byte	16
 1480 0353 0A       		.byte	10
 1481 0354 12       		.byte	18
 1482 0355 0A       		.byte	10
 1483 0356 0000     		.space	2
ARM GAS  C:\Users\austc\AppData\Local\Temp\cciv6yeu.s 			page 43


 1484              		.type	cy_cfg_addr_table.6499, %object
 1485              		.size	cy_cfg_addr_table.6499, 56
 1486              	cy_cfg_addr_table.6499:
 1487 0358 03000F40 		.word	1074724867
 1488 035c 3F300F40 		.word	1074737215
 1489 0360 2E310F40 		.word	1074737454
 1490 0364 5C320F40 		.word	1074737756
 1491 0368 3E330F40 		.word	1074737982
 1492 036c 3F340F40 		.word	1074738239
 1493 0370 36350F40 		.word	1074738486
 1494 0374 05400F40 		.word	1074741253
 1495 0378 07410F40 		.word	1074741511
 1496 037c 05420F40 		.word	1074741765
 1497 0380 08440F40 		.word	1074742280
 1498 0384 07450F40 		.word	1074742535
 1499 0388 03460F40 		.word	1074742787
 1500 038c 03600F40 		.word	1074749443
 1501              		.text
 1502              	.Letext0:
 1503              		.file 2 "c:\\program files (x86)\\cypress\\psoc creator\\4.2\\psoc creator\\import\\gnu\\arm\\5.4.
 1504              		.file 3 "Generated_Source\\PSoC4\\cytypes.h"
 1505              		.file 4 "Generated_Source\\PSoC4\\CyLFClk.h"
 1506              		.file 5 "Generated_Source\\PSoC4\\CyLib.h"