ARM GAS  C:\Users\austc\AppData\Local\Temp\ccf7rf46.s 			page 1


   1              		.syntax unified
   2              		.cpu cortex-m0
   3              		.fpu softvfp
   4              		.eabi_attribute 20, 1
   5              		.eabi_attribute 21, 1
   6              		.eabi_attribute 23, 3
   7              		.eabi_attribute 24, 1
   8              		.eabi_attribute 25, 1
   9              		.eabi_attribute 26, 1
  10              		.eabi_attribute 30, 1
  11              		.eabi_attribute 34, 0
  12              		.eabi_attribute 18, 4
  13              		.thumb
  14              		.syntax unified
  15              		.file	"main.c"
  16              		.text
  17              	.Ltext0:
  18              		.cfi_sections	.debug_frame
  19              		.section	.text.ISR_CAN,"ax",%progbits
  20              		.align	2
  21              		.global	ISR_CAN
  22              		.code	16
  23              		.thumb_func
  24              		.type	ISR_CAN, %function
  25              	ISR_CAN:
  26              	.LFB44:
  27              		.file 1 "main.c"
   1:main.c        **** /* ========================================
   2:main.c        ****  *
   3:main.c        ****  * Copyright YOUR COMPANY, THE YEAR
   4:main.c        ****  * All Rights Reserved
   5:main.c        ****  * UNPUBLISHED, LICENSED SOFTWARE.
   6:main.c        ****  *
   7:main.c        ****  * CONFIDENTIAL AND PROPRIETARY INFORMATION
   8:main.c        ****  * WHICH IS THE PROPERTY OF your company.
   9:main.c        ****  *
  10:main.c        ****  * ========================================
  11:main.c        **** */
  12:main.c        **** #include <project.h>
  13:main.c        **** #include "cyapicallbacks.h"
  14:main.c        **** #include <stdio.h>
  15:main.c        **** 
  16:main.c        **** uint32 message_id = 0;
  17:main.c        **** #define MESSAGE_IDE             (0u)    /* Standard message */
  18:main.c        **** #define MESSAGE_IRQ             (0u)    /* No transmit IRQ */
  19:main.c        **** #define MESSAGE_RTR             (0u)    /* No RTR */
  20:main.c        **** 
  21:main.c        **** #define TX_DATA_SIZE            (50u)
  22:main.c        **** #define PWM_PERIOD = 1000;
  23:main.c        **** 
  24:main.c        **** CY_ISR_PROTO(ISR_CAN);
  25:main.c        **** //global var
  26:main.c        **** uint8 uart_debug = 1;
  27:main.c        **** int GEAR_RATIO;
  28:main.c        **** int CAN_TIMEOUT;
  29:main.c        **** int pwm_compare;
  30:main.c        **** int i = 0;
ARM GAS  C:\Users\austc\AppData\Local\Temp\ccf7rf46.s 			page 2


  31:main.c        **** int lastp = 0;
  32:main.c        **** int kp,ki,kd;
  33:main.c        **** volatile uint8 isrFlag = 0u;
  34:main.c        **** 
  35:main.c        **** int mailbox = 0x000;
  36:main.c        **** uint8 emergency = 0;
  37:main.c        **** char8 txData[TX_DATA_SIZE];
  38:main.c        **** /* Global variables used to store configuration and data for BASIC CAN mailbox */
  39:main.c        **** CAN_DATA_BYTES_MSG data;
  40:main.c        **** CAN_TX_MSG message;
  41:main.c        **** 
  42:main.c        **** 
  43:main.c        **** 
  44:main.c        **** 
  45:main.c        **** CY_ISR(Pin_Limit_1_Handler){// void Pin_SW_Handler(void)
  46:main.c        ****     set_PWM(pwm_compare);
  47:main.c        ****     Pin_Limit_1_ClearInterrupt();
  48:main.c        **** }
  49:main.c        **** 
  50:main.c        **** int main(void)
  51:main.c        **** {
  52:main.c        **** 
  53:main.c        ****     initialize_can_addr();
  54:main.c        ****         /* BASIC CAN mailbox configuration */
  55:main.c        ****     message.dlc = CAN_TX_DLC_MAX_VALUE;
  56:main.c        ****     set_CAN_ID(0b1);
  57:main.c        ****     message.ide = MESSAGE_IDE;
  58:main.c        ****     message.irq = MESSAGE_IRQ;
  59:main.c        ****     message.msg = &data;
  60:main.c        ****     message.rtr = MESSAGE_RTR;
  61:main.c        ****     CyIntSetVector(CAN_ISR_NUMBER, ISR_CAN);
  62:main.c        ****     CyGlobalIntEnable; /* Enable global interrupts. */
  63:main.c        ****     initialize();
  64:main.c        ****     int test = 0b1;
  65:main.c        ****     for(;;)
  66:main.c        ****     {
  67:main.c        ****         if(!emergency) {
  68:main.c        ****            //Spare1_Write((Status_Reg_Switches_Read() & 0b10) >> 0b1);
  69:main.c        ****            //Spare2_Write(Status_Reg_Switches_Read() & 0b01);
  70:main.c        ****             CAN_Send_Model();
  71:main.c        ****             CyDelay(1000);
  72:main.c        ****             /*CyDelay(1000);
  73:main.c        ****             CAN_Send_Encoder();
  74:main.c        ****             CyDelay(1000);
  75:main.c        ****             CAN_Send_Telemetry();
  76:main.c        ****             CyDelay(1000);
  77:main.c        ****             */
  78:main.c        **** 
  79:main.c        ****            //set_PWM(pwm_compare); 
  80:main.c        ****            /* CyDelay(100);
  81:main.c        ****             if(up){
  82:main.c        ****                 pwm_compare += 100;
  83:main.c        ****             } else {
  84:main.c        ****                 pwm_compare -= 100;   
  85:main.c        ****             }
  86:main.c        ****             if(pwm_compare > 1000) {
  87:main.c        ****                 up = 0;   
ARM GAS  C:\Users\austc\AppData\Local\Temp\ccf7rf46.s 			page 3


  88:main.c        ****             } else if (pwm_compare < -1000) {
  89:main.c        ****                 up = 1;
  90:main.c        ****             }
  91:main.c        ****             */
  92:main.c        ****             // inturupts limit switch, stops motor
  93:main.c        ****             // intrupts second priority to read CAN
  94:main.c        ****             // sets PWM
  95:main.c        ****             // hardware encoder counter
  96:main.c        ****             // read pot info
  97:main.c        ****             // Sends to BB info over CAN
  98:main.c        ****             // if no CAN data after ~100ms stop motors
  99:main.c        ****         }
 100:main.c        ****     }
 101:main.c        **** }
 102:main.c        **** /*
 103:main.c        **** void check_Pin(void) {
 104:main.c        ****     if(Status_Reg_Switches_ReadMask() & 0b01) {
 105:main.c        ****         limit_1_pressed = 0;
 106:main.c        ****     }
 107:main.c        ****     if(Status_Reg_Switches_ReadMask() & 0b10) {
 108:main.c        ****         limit_2_pressed = 0;   
 109:main.c        ****     }
 110:main.c        **** }
 111:main.c        **** */
 112:main.c        **** void emergency_halt(void) {
 113:main.c        ****     PWM_Motor_Stop();
 114:main.c        ****     emergency = 1;
 115:main.c        ****     // stops all motors;
 116:main.c        ****     // waits for restart CAN signal.
 117:main.c        **** }
 118:main.c        **** 
 119:main.c        **** 
 120:main.c        **** //11000000010 0x602 base rotation to BBB 
 121:main.c        **** //11000100010 0x622 shoulder to BBB
 122:main.c        **** //11001000010 0x642 elbow ""
 123:main.c        **** //11001100010 0x662 forearm rotation ""
 124:main.c        **** //11010000010 0x682 diff wrist 1 ""
 125:main.c        **** //11010100010 0x6A2 diff wrist 2 ""
 126:main.c        **** //11011000010 0x6C2 hand ""
 127:main.c        **** void initialize_can_addr(void) {
 128:main.c        ****     uint8 setting = Can_addr_Read();
 129:main.c        ****     switch(Can_addr_Read()) {
 130:main.c        ****         case 0b1111:
 131:main.c        ****             message_id = 0b10000;
 132:main.c        ****         case 0b0001:
 133:main.c        ****             message_id = 0b10001;
 134:main.c        ****         case 0b0010:
 135:main.c        ****             message_id = 0b10011;
 136:main.c        ****         case 0b0011:
 137:main.c        ****             message_id = 0b10100;
 138:main.c        ****         case 0b0100:
 139:main.c        ****             message_id = 0b10100;
 140:main.c        ****         case 0b0101:
 141:main.c        ****             message_id = 0b10101;
 142:main.c        ****         case 0b0110:
 143:main.c        ****             message_id = 0b10110;
 144:main.c        ****     }
ARM GAS  C:\Users\austc\AppData\Local\Temp\ccf7rf46.s 			page 4


 145:main.c        ****    // MESSAGE_ID = 0x6C2u;
 146:main.c        ****     if(uart_debug) {
 147:main.c        ****         sprintf(txData, "CAN dip setting:  %x Message ID: %lx\r\n",setting, message_id);
 148:main.c        ****         UART_UartPutString(txData); 
 149:main.c        ****     }
 150:main.c        **** }
 151:main.c        **** 
 152:main.c        **** void set_CAN_ID(uint32 priority) {
 153:main.c        ****     message.id = (priority << 10) | (message_id << 5) | 0b00010;
 154:main.c        **** }
 155:main.c        **** 
 156:main.c        **** void initialize(void) {
 157:main.c        ****     int can_start = CAN_Start();
 158:main.c        ****   //  int can_global = CAN_GlobalIntEnable();
 159:main.c        ****     ADC_SAR_Seq_1_Start();
 160:main.c        ****     ADC_SAR_Seq_1_StartConvert();
 161:main.c        ****     QuadDec_Start();// QuadDec_GetCounter()
 162:main.c        ****     PWM_Motor_Start();
 163:main.c        ****     if(uart_debug) {
 164:main.c        ****         UART_Start();
 165:main.c        ****         sprintf(txData, "CAN_Start():  %u\r\n",can_start);
 166:main.c        ****         UART_UartPutString(txData); 
 167:main.c        ****       //  sprintf(txData, "CAN_GlobalIntEnable():  %u\r\n",can_global);
 168:main.c        ****      //   UART_UartPutString(txData); 
 169:main.c        ****     }
 170:main.c        **** }
 171:main.c        **** void CAN_Send_Encoder(void){
 172:main.c        ****     //message.id = 0x1;
 173:main.c        ****     data.byte[0u] = 0x14u;
 174:main.c        ****     data.byte[1u] = LO8(QuadDec_GetCounter());
 175:main.c        ****     data.byte[2u] = HI8(QuadDec_GetCounter());
 176:main.c        ****     data.byte[3u] = 0;
 177:main.c        ****     data.byte[4u] = 0;
 178:main.c        ****     CAN_SendMsg(&message);
 179:main.c        ****     if(uart_debug) {
 180:main.c        ****         sprintf(txData, "CAN_Send_Encoder: byte[0u] %x byte[1u] %x\r\n",data.byte[0u],data.byte[1u]
 181:main.c        ****         UART_UartPutString(txData); 
 182:main.c        ****     }
 183:main.c        **** }
 184:main.c        **** 
 185:main.c        **** void CAN_Send_Telemetry(void) {
 186:main.c        ****     //message.id = 0x2;
 187:main.c        ****     data.byte[0u] = 0x18u;
 188:main.c        ****     data.byte[1u] = 1;
 189:main.c        ****     data.byte[2u] = 2;
 190:main.c        ****     data.byte[3u] = 3;
 191:main.c        ****     data.byte[4u] = 4;
 192:main.c        ****     CAN_SendMsg(&message);
 193:main.c        ****     if(uart_debug) {
 194:main.c        ****         sprintf(txData, "Telemerty: byte[0u] %x byte[1u] %x\r\n",data.byte[0u],data.byte[1u]);
 195:main.c        ****         UART_UartPutString(txData); 
 196:main.c        ****     }
 197:main.c        **** }
 198:main.c        **** 
 199:main.c        **** void CAN_Send_Model(void) {
 200:main.c        ****     //message.id = 0x3;
 201:main.c        ****     data.byte[0u] = 0x12u;
ARM GAS  C:\Users\austc\AppData\Local\Temp\ccf7rf46.s 			page 5


 202:main.c        ****     data.byte[1u] = Can_addr_Read();
 203:main.c        ****    // data.byte[2u] = 0;
 204:main.c        ****     //data.byte[3u] = 0;
 205:main.c        ****    // data.byte[4u] = 0;
 206:main.c        ****     CAN_SendMsg(&message);
 207:main.c        ****     if(uart_debug) {
 208:main.c        ****         sprintf(txData, "Model: byte[0u] %x byte[1u] %x\r\n",data.byte[0u],data.byte[1u]);
 209:main.c        ****         UART_UartPutString(txData); 
 210:main.c        ****     }
 211:main.c        **** }
 212:main.c        **** /*
 213:main.c        **** void CAN_Read(int *read) {
 214:main.c        ****     // writes to the read array the data that was sent
 215:main.c        **** }
 216:main.c        **** 
 217:main.c        **** void CAN_Send(int Mailbox, uint8 type, uint8 b1, uint8 b2, uint8 b3, uint8 b4) {
 218:main.c        ****     int send_msg = CAN_SendMsg();
 219:main.c        ****     if(uart_debug) {
 220:main.c        ****         sprintf(txData, "Can send adc msg:  %u\r\n", send_msg );
 221:main.c        ****         UART_UartPutString(txData);
 222:main.c        ****     }
 223:main.c        **** }
 224:main.c        **** */
 225:main.c        **** CY_ISR(ISR_CAN)
 226:main.c        **** {
  28              		.loc 1 226 0
  29              		.cfi_startproc
  30              		@ args = 0, pretend = 0, frame = 0
  31              		@ frame_needed = 0, uses_anonymous_args = 0
  32              		@ link register save eliminated.
 227:main.c        ****     /* Clear Receive Message flag */
 228:main.c        ****     CAN_INT_SR_REG = CAN_RX_MESSAGE_MASK;
  33              		.loc 1 228 0
  34 0000 8022     		movs	r2, #128
  35 0002 5201     		lsls	r2, r2, #5
  36 0004 044B     		ldr	r3, .L2
  37 0006 1A60     		str	r2, [r3]
 229:main.c        **** 
 230:main.c        ****     /* Set the isrFlag */
 231:main.c        ****     isrFlag = 1u;
  38              		.loc 1 231 0
  39 0008 0123     		movs	r3, #1
  40 000a 044A     		ldr	r2, .L2+4
  41 000c 1370     		strb	r3, [r2]
 232:main.c        **** 
 233:main.c        ****     /* Acknowledges receipt of new message */
 234:main.c        ****     CAN_RX_ACK_MESSAGE(CAN_RX_MAILBOX_0);
  42              		.loc 1 234 0
  43 000e 044A     		ldr	r2, .L2+8
  44 0010 1168     		ldr	r1, [r2]
  45 0012 0B43     		orrs	r3, r1
  46 0014 1360     		str	r3, [r2]
 235:main.c        **** }
  47              		.loc 1 235 0
  48              		@ sp needed
  49 0016 7047     		bx	lr
  50              	.L3:
ARM GAS  C:\Users\austc\AppData\Local\Temp\ccf7rf46.s 			page 6


  51              		.align	2
  52              	.L2:
  53 0018 00002F40 		.word	1076822016
  54 001c 00000000 		.word	.LANCHOR0
  55 0020 A0002F40 		.word	1076822176
  56              		.cfi_endproc
  57              	.LFE44:
  58              		.size	ISR_CAN, .-ISR_CAN
  59              		.section	.text.emergency_halt,"ax",%progbits
  60              		.align	2
  61              		.global	emergency_halt
  62              		.code	16
  63              		.thumb_func
  64              		.type	emergency_halt, %function
  65              	emergency_halt:
  66              	.LFB37:
 112:main.c        ****     PWM_Motor_Stop();
  67              		.loc 1 112 0
  68              		.cfi_startproc
  69              		@ args = 0, pretend = 0, frame = 0
  70              		@ frame_needed = 0, uses_anonymous_args = 0
  71 0000 10B5     		push	{r4, lr}
  72              		.cfi_def_cfa_offset 8
  73              		.cfi_offset 4, -8
  74              		.cfi_offset 14, -4
 113:main.c        ****     emergency = 1;
  75              		.loc 1 113 0
  76 0002 FFF7FEFF 		bl	PWM_Motor_Stop
  77              	.LVL0:
 114:main.c        ****     // stops all motors;
  78              		.loc 1 114 0
  79 0006 0122     		movs	r2, #1
  80 0008 014B     		ldr	r3, .L5
  81 000a 5A70     		strb	r2, [r3, #1]
 117:main.c        **** 
  82              		.loc 1 117 0
  83              		@ sp needed
  84 000c 10BD     		pop	{r4, pc}
  85              	.L6:
  86 000e C046     		.align	2
  87              	.L5:
  88 0010 00000000 		.word	.LANCHOR0
  89              		.cfi_endproc
  90              	.LFE37:
  91              		.size	emergency_halt, .-emergency_halt
  92              		.section	.text.initialize_can_addr,"ax",%progbits
  93              		.align	2
  94              		.global	initialize_can_addr
  95              		.code	16
  96              		.thumb_func
  97              		.type	initialize_can_addr, %function
  98              	initialize_can_addr:
  99              	.LFB38:
 127:main.c        ****     uint8 setting = Can_addr_Read();
 100              		.loc 1 127 0
 101              		.cfi_startproc
 102              		@ args = 0, pretend = 0, frame = 0
ARM GAS  C:\Users\austc\AppData\Local\Temp\ccf7rf46.s 			page 7


 103              		@ frame_needed = 0, uses_anonymous_args = 0
 104 0000 70B5     		push	{r4, r5, r6, lr}
 105              		.cfi_def_cfa_offset 16
 106              		.cfi_offset 4, -16
 107              		.cfi_offset 5, -12
 108              		.cfi_offset 6, -8
 109              		.cfi_offset 14, -4
 128:main.c        ****     switch(Can_addr_Read()) {
 110              		.loc 1 128 0
 111 0002 FFF7FEFF 		bl	Can_addr_Read
 112              	.LVL1:
 113 0006 0400     		movs	r4, r0
 114              	.LVL2:
 129:main.c        ****         case 0b1111:
 115              		.loc 1 129 0
 116 0008 FFF7FEFF 		bl	Can_addr_Read
 117              	.LVL3:
 118 000c 0F28     		cmp	r0, #15
 119 000e 06D8     		bhi	.L8
 120 0010 8000     		lsls	r0, r0, #2
 121 0012 0B4B     		ldr	r3, .L18
 122 0014 1B58     		ldr	r3, [r3, r0]
 123 0016 9F46     		mov	pc, r3
 124              		.section	.rodata
 125              		.align	2
 126              	.L10:
 127 0000 1E000000 		.word	.L8
 128 0004 18000000 		.word	.L15
 129 0008 18000000 		.word	.L15
 130 000c 18000000 		.word	.L15
 131 0010 18000000 		.word	.L15
 132 0014 18000000 		.word	.L15
 133 0018 18000000 		.word	.L15
 134 001c 1E000000 		.word	.L8
 135 0020 1E000000 		.word	.L8
 136 0024 1E000000 		.word	.L8
 137 0028 1E000000 		.word	.L8
 138 002c 1E000000 		.word	.L8
 139 0030 1E000000 		.word	.L8
 140 0034 1E000000 		.word	.L8
 141 0038 1E000000 		.word	.L8
 142 003c 18000000 		.word	.L15
 143              		.section	.text.initialize_can_addr
 144              	.L15:
 143:main.c        ****     }
 145              		.loc 1 143 0
 146 0018 1622     		movs	r2, #22
 147 001a 0A4B     		ldr	r3, .L18+4
 148 001c 5A60     		str	r2, [r3, #4]
 149              	.L8:
 146:main.c        ****         sprintf(txData, "CAN dip setting:  %x Message ID: %lx\r\n",setting, message_id);
 150              		.loc 1 146 0
 151 001e 0A4B     		ldr	r3, .L18+8
 152 0020 1B78     		ldrb	r3, [r3]
 153 0022 002B     		cmp	r3, #0
 154 0024 0AD0     		beq	.L7
 147:main.c        ****         UART_UartPutString(txData); 
ARM GAS  C:\Users\austc\AppData\Local\Temp\ccf7rf46.s 			page 8


 155              		.loc 1 147 0
 156 0026 074B     		ldr	r3, .L18+4
 157 0028 5B68     		ldr	r3, [r3, #4]
 158 002a 084D     		ldr	r5, .L18+12
 159 002c 2200     		movs	r2, r4
 160 002e 0849     		ldr	r1, .L18+16
 161 0030 2800     		movs	r0, r5
 162 0032 FFF7FEFF 		bl	sprintf
 163              	.LVL4:
 148:main.c        ****     }
 164              		.loc 1 148 0
 165 0036 2800     		movs	r0, r5
 166 0038 FFF7FEFF 		bl	UART_UartPutString
 167              	.LVL5:
 168              	.L7:
 150:main.c        **** 
 169              		.loc 1 150 0
 170              		@ sp needed
 171              	.LVL6:
 172 003c 70BD     		pop	{r4, r5, r6, pc}
 173              	.L19:
 174 003e C046     		.align	2
 175              	.L18:
 176 0040 00000000 		.word	.L10
 177 0044 00000000 		.word	.LANCHOR0
 178 0048 00000000 		.word	.LANCHOR1
 179 004c 00000000 		.word	txData
 180 0050 00000000 		.word	.LC5
 181              		.cfi_endproc
 182              	.LFE38:
 183              		.size	initialize_can_addr, .-initialize_can_addr
 184              		.section	.text.set_CAN_ID,"ax",%progbits
 185              		.align	2
 186              		.global	set_CAN_ID
 187              		.code	16
 188              		.thumb_func
 189              		.type	set_CAN_ID, %function
 190              	set_CAN_ID:
 191              	.LFB39:
 152:main.c        ****     message.id = (priority << 10) | (message_id << 5) | 0b00010;
 192              		.loc 1 152 0
 193              		.cfi_startproc
 194              		@ args = 0, pretend = 0, frame = 0
 195              		@ frame_needed = 0, uses_anonymous_args = 0
 196              		@ link register save eliminated.
 197              	.LVL7:
 153:main.c        **** }
 198              		.loc 1 153 0
 199 0000 8002     		lsls	r0, r0, #10
 200              	.LVL8:
 201 0002 044B     		ldr	r3, .L21
 202 0004 5B68     		ldr	r3, [r3, #4]
 203 0006 5B01     		lsls	r3, r3, #5
 204 0008 1843     		orrs	r0, r3
 205 000a 0223     		movs	r3, #2
 206 000c 1843     		orrs	r0, r3
 207 000e 024B     		ldr	r3, .L21+4
ARM GAS  C:\Users\austc\AppData\Local\Temp\ccf7rf46.s 			page 9


 208 0010 1860     		str	r0, [r3]
 154:main.c        **** 
 209              		.loc 1 154 0
 210              		@ sp needed
 211 0012 7047     		bx	lr
 212              	.L22:
 213              		.align	2
 214              	.L21:
 215 0014 00000000 		.word	.LANCHOR0
 216 0018 00000000 		.word	message
 217              		.cfi_endproc
 218              	.LFE39:
 219              		.size	set_CAN_ID, .-set_CAN_ID
 220              		.section	.text.initialize,"ax",%progbits
 221              		.align	2
 222              		.global	initialize
 223              		.code	16
 224              		.thumb_func
 225              		.type	initialize, %function
 226              	initialize:
 227              	.LFB40:
 156:main.c        ****     int can_start = CAN_Start();
 228              		.loc 1 156 0
 229              		.cfi_startproc
 230              		@ args = 0, pretend = 0, frame = 0
 231              		@ frame_needed = 0, uses_anonymous_args = 0
 232 0000 70B5     		push	{r4, r5, r6, lr}
 233              		.cfi_def_cfa_offset 16
 234              		.cfi_offset 4, -16
 235              		.cfi_offset 5, -12
 236              		.cfi_offset 6, -8
 237              		.cfi_offset 14, -4
 157:main.c        ****   //  int can_global = CAN_GlobalIntEnable();
 238              		.loc 1 157 0
 239 0002 FFF7FEFF 		bl	CAN_Start
 240              	.LVL9:
 241 0006 0400     		movs	r4, r0
 242              	.LVL10:
 159:main.c        ****     ADC_SAR_Seq_1_StartConvert();
 243              		.loc 1 159 0
 244 0008 FFF7FEFF 		bl	ADC_SAR_Seq_1_Start
 245              	.LVL11:
 160:main.c        ****     QuadDec_Start();// QuadDec_GetCounter()
 246              		.loc 1 160 0
 247 000c FFF7FEFF 		bl	ADC_SAR_Seq_1_StartConvert
 248              	.LVL12:
 161:main.c        ****     PWM_Motor_Start();
 249              		.loc 1 161 0
 250 0010 FFF7FEFF 		bl	QuadDec_Start
 251              	.LVL13:
 162:main.c        ****     if(uart_debug) {
 252              		.loc 1 162 0
 253 0014 FFF7FEFF 		bl	PWM_Motor_Start
 254              	.LVL14:
 163:main.c        ****         UART_Start();
 255              		.loc 1 163 0
 256 0018 074B     		ldr	r3, .L25
ARM GAS  C:\Users\austc\AppData\Local\Temp\ccf7rf46.s 			page 10


 257 001a 1B78     		ldrb	r3, [r3]
 258 001c 002B     		cmp	r3, #0
 259 001e 0AD0     		beq	.L23
 164:main.c        ****         sprintf(txData, "CAN_Start():  %u\r\n",can_start);
 260              		.loc 1 164 0
 261 0020 FFF7FEFF 		bl	UART_Start
 262              	.LVL15:
 165:main.c        ****         UART_UartPutString(txData); 
 263              		.loc 1 165 0
 264 0024 054D     		ldr	r5, .L25+4
 265 0026 2200     		movs	r2, r4
 266 0028 0549     		ldr	r1, .L25+8
 267 002a 2800     		movs	r0, r5
 268 002c FFF7FEFF 		bl	sprintf
 269              	.LVL16:
 166:main.c        ****       //  sprintf(txData, "CAN_GlobalIntEnable():  %u\r\n",can_global);
 270              		.loc 1 166 0
 271 0030 2800     		movs	r0, r5
 272 0032 FFF7FEFF 		bl	UART_UartPutString
 273              	.LVL17:
 274              	.L23:
 170:main.c        **** void CAN_Send_Encoder(void){
 275              		.loc 1 170 0
 276              		@ sp needed
 277              	.LVL18:
 278 0036 70BD     		pop	{r4, r5, r6, pc}
 279              	.L26:
 280              		.align	2
 281              	.L25:
 282 0038 00000000 		.word	.LANCHOR1
 283 003c 00000000 		.word	txData
 284 0040 28000000 		.word	.LC11
 285              		.cfi_endproc
 286              	.LFE40:
 287              		.size	initialize, .-initialize
 288              		.section	.text.CAN_Send_Encoder,"ax",%progbits
 289              		.align	2
 290              		.global	CAN_Send_Encoder
 291              		.code	16
 292              		.thumb_func
 293              		.type	CAN_Send_Encoder, %function
 294              	CAN_Send_Encoder:
 295              	.LFB41:
 171:main.c        ****     //message.id = 0x1;
 296              		.loc 1 171 0
 297              		.cfi_startproc
 298              		@ args = 0, pretend = 0, frame = 0
 299              		@ frame_needed = 0, uses_anonymous_args = 0
 300 0000 10B5     		push	{r4, lr}
 301              		.cfi_def_cfa_offset 8
 302              		.cfi_offset 4, -8
 303              		.cfi_offset 14, -4
 173:main.c        ****     data.byte[1u] = LO8(QuadDec_GetCounter());
 304              		.loc 1 173 0
 305 0002 104C     		ldr	r4, .L29
 306 0004 1423     		movs	r3, #20
 307 0006 2370     		strb	r3, [r4]
ARM GAS  C:\Users\austc\AppData\Local\Temp\ccf7rf46.s 			page 11


 174:main.c        ****     data.byte[2u] = HI8(QuadDec_GetCounter());
 308              		.loc 1 174 0
 309 0008 FFF7FEFF 		bl	QuadDec_GetCounter
 310              	.LVL19:
 311 000c 6070     		strb	r0, [r4, #1]
 175:main.c        ****     data.byte[3u] = 0;
 312              		.loc 1 175 0
 313 000e FFF7FEFF 		bl	QuadDec_GetCounter
 314              	.LVL20:
 315 0012 80B2     		uxth	r0, r0
 316 0014 000A     		lsrs	r0, r0, #8
 317 0016 A070     		strb	r0, [r4, #2]
 176:main.c        ****     data.byte[4u] = 0;
 318              		.loc 1 176 0
 319 0018 0023     		movs	r3, #0
 320 001a E370     		strb	r3, [r4, #3]
 177:main.c        ****     CAN_SendMsg(&message);
 321              		.loc 1 177 0
 322 001c 2371     		strb	r3, [r4, #4]
 178:main.c        ****     if(uart_debug) {
 323              		.loc 1 178 0
 324 001e 0A48     		ldr	r0, .L29+4
 325 0020 FFF7FEFF 		bl	CAN_SendMsg
 326              	.LVL21:
 179:main.c        ****         sprintf(txData, "CAN_Send_Encoder: byte[0u] %x byte[1u] %x\r\n",data.byte[0u],data.byte[1u]
 327              		.loc 1 179 0
 328 0024 094B     		ldr	r3, .L29+8
 329 0026 1B78     		ldrb	r3, [r3]
 330 0028 002B     		cmp	r3, #0
 331 002a 0AD0     		beq	.L27
 180:main.c        ****         UART_UartPutString(txData); 
 332              		.loc 1 180 0
 333 002c 054B     		ldr	r3, .L29
 334 002e 1A78     		ldrb	r2, [r3]
 335 0030 5B78     		ldrb	r3, [r3, #1]
 336 0032 074C     		ldr	r4, .L29+12
 337 0034 0749     		ldr	r1, .L29+16
 338 0036 2000     		movs	r0, r4
 339 0038 FFF7FEFF 		bl	sprintf
 340              	.LVL22:
 181:main.c        ****     }
 341              		.loc 1 181 0
 342 003c 2000     		movs	r0, r4
 343 003e FFF7FEFF 		bl	UART_UartPutString
 344              	.LVL23:
 345              	.L27:
 183:main.c        **** 
 346              		.loc 1 183 0
 347              		@ sp needed
 348 0042 10BD     		pop	{r4, pc}
 349              	.L30:
 350              		.align	2
 351              	.L29:
 352 0044 00000000 		.word	data
 353 0048 00000000 		.word	message
 354 004c 00000000 		.word	.LANCHOR1
 355 0050 00000000 		.word	txData
ARM GAS  C:\Users\austc\AppData\Local\Temp\ccf7rf46.s 			page 12


 356 0054 3C000000 		.word	.LC17
 357              		.cfi_endproc
 358              	.LFE41:
 359              		.size	CAN_Send_Encoder, .-CAN_Send_Encoder
 360              		.section	.text.CAN_Send_Telemetry,"ax",%progbits
 361              		.align	2
 362              		.global	CAN_Send_Telemetry
 363              		.code	16
 364              		.thumb_func
 365              		.type	CAN_Send_Telemetry, %function
 366              	CAN_Send_Telemetry:
 367              	.LFB42:
 185:main.c        ****     //message.id = 0x2;
 368              		.loc 1 185 0
 369              		.cfi_startproc
 370              		@ args = 0, pretend = 0, frame = 0
 371              		@ frame_needed = 0, uses_anonymous_args = 0
 372 0000 10B5     		push	{r4, lr}
 373              		.cfi_def_cfa_offset 8
 374              		.cfi_offset 4, -8
 375              		.cfi_offset 14, -4
 187:main.c        ****     data.byte[1u] = 1;
 376              		.loc 1 187 0
 377 0002 0F4B     		ldr	r3, .L33
 378 0004 1822     		movs	r2, #24
 379 0006 1A70     		strb	r2, [r3]
 188:main.c        ****     data.byte[2u] = 2;
 380              		.loc 1 188 0
 381 0008 173A     		subs	r2, r2, #23
 382 000a 5A70     		strb	r2, [r3, #1]
 189:main.c        ****     data.byte[3u] = 3;
 383              		.loc 1 189 0
 384 000c 0132     		adds	r2, r2, #1
 385 000e 9A70     		strb	r2, [r3, #2]
 190:main.c        ****     data.byte[4u] = 4;
 386              		.loc 1 190 0
 387 0010 0132     		adds	r2, r2, #1
 388 0012 DA70     		strb	r2, [r3, #3]
 191:main.c        ****     CAN_SendMsg(&message);
 389              		.loc 1 191 0
 390 0014 0132     		adds	r2, r2, #1
 391 0016 1A71     		strb	r2, [r3, #4]
 192:main.c        ****     if(uart_debug) {
 392              		.loc 1 192 0
 393 0018 0A48     		ldr	r0, .L33+4
 394 001a FFF7FEFF 		bl	CAN_SendMsg
 395              	.LVL24:
 193:main.c        ****         sprintf(txData, "Telemerty: byte[0u] %x byte[1u] %x\r\n",data.byte[0u],data.byte[1u]);
 396              		.loc 1 193 0
 397 001e 0A4B     		ldr	r3, .L33+8
 398 0020 1B78     		ldrb	r3, [r3]
 399 0022 002B     		cmp	r3, #0
 400 0024 0AD0     		beq	.L31
 194:main.c        ****         UART_UartPutString(txData); 
 401              		.loc 1 194 0
 402 0026 064B     		ldr	r3, .L33
 403 0028 1A78     		ldrb	r2, [r3]
ARM GAS  C:\Users\austc\AppData\Local\Temp\ccf7rf46.s 			page 13


 404 002a 5B78     		ldrb	r3, [r3, #1]
 405 002c 074C     		ldr	r4, .L33+12
 406 002e 0849     		ldr	r1, .L33+16
 407 0030 2000     		movs	r0, r4
 408 0032 FFF7FEFF 		bl	sprintf
 409              	.LVL25:
 195:main.c        ****     }
 410              		.loc 1 195 0
 411 0036 2000     		movs	r0, r4
 412 0038 FFF7FEFF 		bl	UART_UartPutString
 413              	.LVL26:
 414              	.L31:
 197:main.c        **** 
 415              		.loc 1 197 0
 416              		@ sp needed
 417 003c 10BD     		pop	{r4, pc}
 418              	.L34:
 419 003e C046     		.align	2
 420              	.L33:
 421 0040 00000000 		.word	data
 422 0044 00000000 		.word	message
 423 0048 00000000 		.word	.LANCHOR1
 424 004c 00000000 		.word	txData
 425 0050 68000000 		.word	.LC23
 426              		.cfi_endproc
 427              	.LFE42:
 428              		.size	CAN_Send_Telemetry, .-CAN_Send_Telemetry
 429              		.section	.text.CAN_Send_Model,"ax",%progbits
 430              		.align	2
 431              		.global	CAN_Send_Model
 432              		.code	16
 433              		.thumb_func
 434              		.type	CAN_Send_Model, %function
 435              	CAN_Send_Model:
 436              	.LFB43:
 199:main.c        ****     //message.id = 0x3;
 437              		.loc 1 199 0
 438              		.cfi_startproc
 439              		@ args = 0, pretend = 0, frame = 0
 440              		@ frame_needed = 0, uses_anonymous_args = 0
 441 0000 10B5     		push	{r4, lr}
 442              		.cfi_def_cfa_offset 8
 443              		.cfi_offset 4, -8
 444              		.cfi_offset 14, -4
 201:main.c        ****     data.byte[1u] = Can_addr_Read();
 445              		.loc 1 201 0
 446 0002 0C4C     		ldr	r4, .L37
 447 0004 1223     		movs	r3, #18
 448 0006 2370     		strb	r3, [r4]
 202:main.c        ****    // data.byte[2u] = 0;
 449              		.loc 1 202 0
 450 0008 FFF7FEFF 		bl	Can_addr_Read
 451              	.LVL27:
 452 000c 6070     		strb	r0, [r4, #1]
 206:main.c        ****     if(uart_debug) {
 453              		.loc 1 206 0
 454 000e 0A48     		ldr	r0, .L37+4
ARM GAS  C:\Users\austc\AppData\Local\Temp\ccf7rf46.s 			page 14


 455 0010 FFF7FEFF 		bl	CAN_SendMsg
 456              	.LVL28:
 207:main.c        ****         sprintf(txData, "Model: byte[0u] %x byte[1u] %x\r\n",data.byte[0u],data.byte[1u]);
 457              		.loc 1 207 0
 458 0014 094B     		ldr	r3, .L37+8
 459 0016 1B78     		ldrb	r3, [r3]
 460 0018 002B     		cmp	r3, #0
 461 001a 0AD0     		beq	.L35
 208:main.c        ****         UART_UartPutString(txData); 
 462              		.loc 1 208 0
 463 001c 054B     		ldr	r3, .L37
 464 001e 1A78     		ldrb	r2, [r3]
 465 0020 5B78     		ldrb	r3, [r3, #1]
 466 0022 074C     		ldr	r4, .L37+12
 467 0024 0749     		ldr	r1, .L37+16
 468 0026 2000     		movs	r0, r4
 469 0028 FFF7FEFF 		bl	sprintf
 470              	.LVL29:
 209:main.c        ****     }
 471              		.loc 1 209 0
 472 002c 2000     		movs	r0, r4
 473 002e FFF7FEFF 		bl	UART_UartPutString
 474              	.LVL30:
 475              	.L35:
 211:main.c        **** /*
 476              		.loc 1 211 0
 477              		@ sp needed
 478 0032 10BD     		pop	{r4, pc}
 479              	.L38:
 480              		.align	2
 481              	.L37:
 482 0034 00000000 		.word	data
 483 0038 00000000 		.word	message
 484 003c 00000000 		.word	.LANCHOR1
 485 0040 00000000 		.word	txData
 486 0044 90000000 		.word	.LC29
 487              		.cfi_endproc
 488              	.LFE43:
 489              		.size	CAN_Send_Model, .-CAN_Send_Model
 490              		.section	.text.main,"ax",%progbits
 491              		.align	2
 492              		.global	main
 493              		.code	16
 494              		.thumb_func
 495              		.type	main, %function
 496              	main:
 497              	.LFB36:
  51:main.c        **** 
 498              		.loc 1 51 0
 499              		.cfi_startproc
 500              		@ args = 0, pretend = 0, frame = 0
 501              		@ frame_needed = 0, uses_anonymous_args = 0
 502 0000 10B5     		push	{r4, lr}
 503              		.cfi_def_cfa_offset 8
 504              		.cfi_offset 4, -8
 505              		.cfi_offset 14, -4
  53:main.c        ****         /* BASIC CAN mailbox configuration */
ARM GAS  C:\Users\austc\AppData\Local\Temp\ccf7rf46.s 			page 15


 506              		.loc 1 53 0
 507 0002 FFF7FEFF 		bl	initialize_can_addr
 508              	.LVL31:
  55:main.c        ****     set_CAN_ID(0b1);
 509              		.loc 1 55 0
 510 0006 0F4C     		ldr	r4, .L42
 511 0008 0823     		movs	r3, #8
 512 000a A371     		strb	r3, [r4, #6]
  56:main.c        ****     message.ide = MESSAGE_IDE;
 513              		.loc 1 56 0
 514 000c 0120     		movs	r0, #1
 515 000e FFF7FEFF 		bl	set_CAN_ID
 516              	.LVL32:
  57:main.c        ****     message.irq = MESSAGE_IRQ;
 517              		.loc 1 57 0
 518 0012 0023     		movs	r3, #0
 519 0014 6371     		strb	r3, [r4, #5]
  58:main.c        ****     message.msg = &data;
 520              		.loc 1 58 0
 521 0016 E371     		strb	r3, [r4, #7]
  59:main.c        ****     message.rtr = MESSAGE_RTR;
 522              		.loc 1 59 0
 523 0018 0B4A     		ldr	r2, .L42+4
 524 001a E260     		str	r2, [r4, #12]
  60:main.c        ****     CyIntSetVector(CAN_ISR_NUMBER, ISR_CAN);
 525              		.loc 1 60 0
 526 001c 2371     		strb	r3, [r4, #4]
  61:main.c        ****     CyGlobalIntEnable; /* Enable global interrupts. */
 527              		.loc 1 61 0
 528 001e 0B49     		ldr	r1, .L42+8
 529 0020 1D20     		movs	r0, #29
 530 0022 FFF7FEFF 		bl	CyIntSetVector
 531              	.LVL33:
  62:main.c        ****     initialize();
 532              		.loc 1 62 0
 533              		.syntax divided
 534              	@ 62 "main.c" 1
 535 0026 62B6     		CPSIE   i
 536              	@ 0 "" 2
  63:main.c        ****     int test = 0b1;
 537              		.loc 1 63 0
 538              		.thumb
 539              		.syntax unified
 540 0028 FFF7FEFF 		bl	initialize
 541              	.LVL34:
 542              	.L40:
  67:main.c        ****            //Spare1_Write((Status_Reg_Switches_Read() & 0b10) >> 0b1);
 543              		.loc 1 67 0
 544 002c 084B     		ldr	r3, .L42+12
 545 002e 5B78     		ldrb	r3, [r3, #1]
 546 0030 002B     		cmp	r3, #0
 547 0032 FBD1     		bne	.L40
  70:main.c        ****             CyDelay(1000);
 548              		.loc 1 70 0
 549 0034 FFF7FEFF 		bl	CAN_Send_Model
 550              	.LVL35:
  71:main.c        ****             /*CyDelay(1000);
ARM GAS  C:\Users\austc\AppData\Local\Temp\ccf7rf46.s 			page 16


 551              		.loc 1 71 0
 552 0038 FA20     		movs	r0, #250
 553 003a 8000     		lsls	r0, r0, #2
 554 003c FFF7FEFF 		bl	CyDelay
 555              	.LVL36:
 556 0040 F4E7     		b	.L40
 557              	.L43:
 558 0042 C046     		.align	2
 559              	.L42:
 560 0044 00000000 		.word	message
 561 0048 00000000 		.word	data
 562 004c 00000000 		.word	ISR_CAN
 563 0050 00000000 		.word	.LANCHOR0
 564              		.cfi_endproc
 565              	.LFE36:
 566              		.size	main, .-main
 567              		.section	.text.set_PWM,"ax",%progbits
 568              		.align	2
 569              		.global	set_PWM
 570              		.code	16
 571              		.thumb_func
 572              		.type	set_PWM, %function
 573              	set_PWM:
 574              	.LFB45:
 236:main.c        **** 
 237:main.c        **** /*
 238:main.c        **** uint32 pot_Read(void) {
 239:main.c        ****     // returns a position of the pot
 240:main.c        **** }
 241:main.c        ****  
 242:main.c        **** */
 243:main.c        ****     // takes between -1000 and 1000
 244:main.c        **** void set_PWM(int compare) {
 575              		.loc 1 244 0
 576              		.cfi_startproc
 577              		@ args = 0, pretend = 0, frame = 0
 578              		@ frame_needed = 0, uses_anonymous_args = 0
 579              	.LVL37:
 580 0000 10B5     		push	{r4, lr}
 581              		.cfi_def_cfa_offset 8
 582              		.cfi_offset 4, -8
 583              		.cfi_offset 14, -4
 584 0002 0400     		movs	r4, r0
 245:main.c        ****     if (compare < -1000 || compare > 1000) { return; }
 585              		.loc 1 245 0
 586 0004 FA23     		movs	r3, #250
 587 0006 9B00     		lsls	r3, r3, #2
 588 0008 C218     		adds	r2, r0, r3
 589 000a FA23     		movs	r3, #250
 590 000c DB00     		lsls	r3, r3, #3
 591 000e 9A42     		cmp	r2, r3
 592 0010 1CD8     		bhi	.L44
 246:main.c        ****     if (compare < 0 && !(Status_Reg_Switches_Read() & 0b01)) {
 593              		.loc 1 246 0
 594 0012 0028     		cmp	r0, #0
 595 0014 0ADA     		bge	.L46
 596              		.loc 1 246 0 is_stmt 0 discriminator 1
ARM GAS  C:\Users\austc\AppData\Local\Temp\ccf7rf46.s 			page 17


 597 0016 FFF7FEFF 		bl	Status_Reg_Switches_Read
 598              	.LVL38:
 599 001a C307     		lsls	r3, r0, #31
 600 001c 06D4     		bmi	.L46
 247:main.c        ****         Pin_Direction_Write(0);
 601              		.loc 1 247 0 is_stmt 1
 602 001e 0020     		movs	r0, #0
 603 0020 FFF7FEFF 		bl	Pin_Direction_Write
 604              	.LVL39:
 248:main.c        ****         PWM_Motor_WriteCompare(-compare);
 605              		.loc 1 248 0
 606 0024 6042     		rsbs	r0, r4, #0
 607 0026 FFF7FEFF 		bl	PWM_Motor_WriteCompare
 608              	.LVL40:
 609 002a 0FE0     		b	.L44
 610              	.L46:
 249:main.c        ****     } else if (compare > 0 && !(Status_Reg_Switches_Read() & 0b10)){
 611              		.loc 1 249 0
 612 002c 002C     		cmp	r4, #0
 613 002e 0ADD     		ble	.L47
 614              		.loc 1 249 0 is_stmt 0 discriminator 1
 615 0030 FFF7FEFF 		bl	Status_Reg_Switches_Read
 616              	.LVL41:
 617 0034 8307     		lsls	r3, r0, #30
 618 0036 06D4     		bmi	.L47
 250:main.c        ****         Pin_Direction_Write(1);
 619              		.loc 1 250 0 is_stmt 1
 620 0038 0120     		movs	r0, #1
 621 003a FFF7FEFF 		bl	Pin_Direction_Write
 622              	.LVL42:
 251:main.c        ****         PWM_Motor_WriteCompare(compare);
 623              		.loc 1 251 0
 624 003e 2000     		movs	r0, r4
 625 0040 FFF7FEFF 		bl	PWM_Motor_WriteCompare
 626              	.LVL43:
 627 0044 02E0     		b	.L44
 628              	.L47:
 252:main.c        ****     } else {
 253:main.c        ****         PWM_Motor_WriteCompare(0);   
 629              		.loc 1 253 0
 630 0046 0020     		movs	r0, #0
 631 0048 FFF7FEFF 		bl	PWM_Motor_WriteCompare
 632              	.LVL44:
 633              	.L44:
 254:main.c        ****     }
 255:main.c        **** }
 634              		.loc 1 255 0
 635              		@ sp needed
 636              	.LVL45:
 637 004c 10BD     		pop	{r4, pc}
 638              		.cfi_endproc
 639              	.LFE45:
 640              		.size	set_PWM, .-set_PWM
 641 004e C046     		.section	.text.Pin_Limit_1_Handler,"ax",%progbits
 642              		.align	2
 643              		.global	Pin_Limit_1_Handler
 644              		.code	16
ARM GAS  C:\Users\austc\AppData\Local\Temp\ccf7rf46.s 			page 18


 645              		.thumb_func
 646              		.type	Pin_Limit_1_Handler, %function
 647              	Pin_Limit_1_Handler:
 648              	.LFB35:
  45:main.c        ****     set_PWM(pwm_compare);
 649              		.loc 1 45 0
 650              		.cfi_startproc
 651              		@ args = 0, pretend = 0, frame = 0
 652              		@ frame_needed = 0, uses_anonymous_args = 0
 653 0000 10B5     		push	{r4, lr}
 654              		.cfi_def_cfa_offset 8
 655              		.cfi_offset 4, -8
 656              		.cfi_offset 14, -4
  46:main.c        ****     Pin_Limit_1_ClearInterrupt();
 657              		.loc 1 46 0
 658 0002 034B     		ldr	r3, .L49
 659 0004 1868     		ldr	r0, [r3]
 660 0006 FFF7FEFF 		bl	set_PWM
 661              	.LVL46:
  47:main.c        **** }
 662              		.loc 1 47 0
 663 000a FFF7FEFF 		bl	Pin_Limit_1_ClearInterrupt
 664              	.LVL47:
  48:main.c        **** 
 665              		.loc 1 48 0
 666              		@ sp needed
 667 000e 10BD     		pop	{r4, pc}
 668              	.L50:
 669              		.align	2
 670              	.L49:
 671 0010 00000000 		.word	pwm_compare
 672              		.cfi_endproc
 673              	.LFE35:
 674              		.size	Pin_Limit_1_Handler, .-Pin_Limit_1_Handler
 675              		.section	.text.degrees_to_tick,"ax",%progbits
 676              		.align	2
 677              		.global	degrees_to_tick
 678              		.code	16
 679              		.thumb_func
 680              		.type	degrees_to_tick, %function
 681              	degrees_to_tick:
 682              	.LFB47:
 256:main.c        **** 
 257:main.c        **** 
 258:main.c        **** void set_Position(int degrees) {
 259:main.c        ****     int PWM = position_PID(degrees_to_tick(degrees));
 260:main.c        ****     if(PWM > 1000){
 261:main.c        ****         set_PWM(1000);   
 262:main.c        ****     } else if(PWM < -1000) {
 263:main.c        ****         set_PWM(-1000);
 264:main.c        ****     } else {
 265:main.c        ****         set_PWM(PWM);   
 266:main.c        ****     }
 267:main.c        **** }
 268:main.c        **** 
 269:main.c        **** int degrees_to_tick(int degrees){
 683              		.loc 1 269 0
ARM GAS  C:\Users\austc\AppData\Local\Temp\ccf7rf46.s 			page 19


 684              		.cfi_startproc
 685              		@ args = 0, pretend = 0, frame = 0
 686              		@ frame_needed = 0, uses_anonymous_args = 0
 687              		@ link register save eliminated.
 688              	.LVL48:
 270:main.c        ****     int ratio = 1;
 271:main.c        ****     return(degrees * ratio);
 272:main.c        **** }
 689              		.loc 1 272 0
 690              		@ sp needed
 691 0000 7047     		bx	lr
 692              		.cfi_endproc
 693              	.LFE47:
 694              		.size	degrees_to_tick, .-degrees_to_tick
 695 0002 C046     		.section	.text.position_PID,"ax",%progbits
 696              		.align	2
 697              		.global	position_PID
 698              		.code	16
 699              		.thumb_func
 700              		.type	position_PID, %function
 701              	position_PID:
 702              	.LFB48:
 273:main.c        **** 
 274:main.c        **** int position_PID(int target){
 703              		.loc 1 274 0
 704              		.cfi_startproc
 705              		@ args = 0, pretend = 0, frame = 0
 706              		@ frame_needed = 0, uses_anonymous_args = 0
 707              	.LVL49:
 708 0000 10B5     		push	{r4, lr}
 709              		.cfi_def_cfa_offset 8
 710              		.cfi_offset 4, -8
 711              		.cfi_offset 14, -4
 712 0002 0400     		movs	r4, r0
 275:main.c        ****     int current =  QuadDec_GetCounter();
 713              		.loc 1 275 0
 714 0004 FFF7FEFF 		bl	QuadDec_GetCounter
 715              	.LVL50:
 276:main.c        ****     int p = target - current;
 716              		.loc 1 276 0
 717 0008 211A     		subs	r1, r4, r0
 718              	.LVL51:
 277:main.c        ****     i = i + p;
 719              		.loc 1 277 0
 720 000a 064C     		ldr	r4, .L53
 721              	.LVL52:
 722 000c A368     		ldr	r3, [r4, #8]
 723 000e CA18     		adds	r2, r1, r3
 724 0010 A260     		str	r2, [r4, #8]
 278:main.c        ****     int d = p - lastp;
 725              		.loc 1 278 0
 726 0012 E368     		ldr	r3, [r4, #12]
 727 0014 CB1A     		subs	r3, r1, r3
 728              	.LVL53:
 279:main.c        ****     lastp = current;
 729              		.loc 1 279 0
 730 0016 E060     		str	r0, [r4, #12]
ARM GAS  C:\Users\austc\AppData\Local\Temp\ccf7rf46.s 			page 20


 280:main.c        ****     return (p*10 + i*10 + d*10);
 731              		.loc 1 280 0
 732 0018 8A18     		adds	r2, r1, r2
 733 001a 9B18     		adds	r3, r3, r2
 734              	.LVL54:
 735 001c 9A00     		lsls	r2, r3, #2
 736 001e D318     		adds	r3, r2, r3
 737 0020 5800     		lsls	r0, r3, #1
 738              	.LVL55:
 281:main.c        **** }
 739              		.loc 1 281 0
 740              		@ sp needed
 741 0022 10BD     		pop	{r4, pc}
 742              	.L54:
 743              		.align	2
 744              	.L53:
 745 0024 00000000 		.word	.LANCHOR0
 746              		.cfi_endproc
 747              	.LFE48:
 748              		.size	position_PID, .-position_PID
 749              		.section	.text.set_Position,"ax",%progbits
 750              		.align	2
 751              		.global	set_Position
 752              		.code	16
 753              		.thumb_func
 754              		.type	set_Position, %function
 755              	set_Position:
 756              	.LFB46:
 258:main.c        ****     int PWM = position_PID(degrees_to_tick(degrees));
 757              		.loc 1 258 0
 758              		.cfi_startproc
 759              		@ args = 0, pretend = 0, frame = 0
 760              		@ frame_needed = 0, uses_anonymous_args = 0
 761              	.LVL56:
 762 0000 10B5     		push	{r4, lr}
 763              		.cfi_def_cfa_offset 8
 764              		.cfi_offset 4, -8
 765              		.cfi_offset 14, -4
 259:main.c        ****     if(PWM > 1000){
 766              		.loc 1 259 0
 767 0002 FFF7FEFF 		bl	degrees_to_tick
 768              	.LVL57:
 769 0006 FFF7FEFF 		bl	position_PID
 770              	.LVL58:
 260:main.c        ****         set_PWM(1000);   
 771              		.loc 1 260 0
 772 000a FA23     		movs	r3, #250
 773 000c 9B00     		lsls	r3, r3, #2
 774 000e 9842     		cmp	r0, r3
 775 0010 03DD     		ble	.L56
 261:main.c        ****     } else if(PWM < -1000) {
 776              		.loc 1 261 0
 777 0012 1800     		movs	r0, r3
 778              	.LVL59:
 779 0014 FFF7FEFF 		bl	set_PWM
 780              	.LVL60:
 781 0018 08E0     		b	.L55
ARM GAS  C:\Users\austc\AppData\Local\Temp\ccf7rf46.s 			page 21


 782              	.LVL61:
 783              	.L56:
 262:main.c        ****         set_PWM(-1000);
 784              		.loc 1 262 0
 785 001a 054B     		ldr	r3, .L59
 786 001c 9842     		cmp	r0, r3
 787 001e 03DA     		bge	.L58
 263:main.c        ****     } else {
 788              		.loc 1 263 0
 789 0020 1800     		movs	r0, r3
 790              	.LVL62:
 791 0022 FFF7FEFF 		bl	set_PWM
 792              	.LVL63:
 793 0026 01E0     		b	.L55
 794              	.LVL64:
 795              	.L58:
 265:main.c        ****     }
 796              		.loc 1 265 0
 797 0028 FFF7FEFF 		bl	set_PWM
 798              	.LVL65:
 799              	.L55:
 267:main.c        **** 
 800              		.loc 1 267 0
 801              		@ sp needed
 802 002c 10BD     		pop	{r4, pc}
 803              	.L60:
 804 002e C046     		.align	2
 805              	.L59:
 806 0030 18FCFFFF 		.word	-1000
 807              		.cfi_endproc
 808              	.LFE46:
 809              		.size	set_Position, .-set_Position
 810              		.comm	message,16,4
 811              		.comm	data,8,4
 812              		.comm	txData,50,4
 813              		.global	emergency
 814              		.global	mailbox
 815              		.global	isrFlag
 816              		.comm	kd,4,4
 817              		.comm	ki,4,4
 818              		.comm	kp,4,4
 819              		.global	lastp
 820              		.global	i
 821              		.comm	pwm_compare,4,4
 822              		.comm	CAN_TIMEOUT,4,4
 823              		.comm	GEAR_RATIO,4,4
 824              		.global	uart_debug
 825              		.global	message_id
 826              		.data
 827              		.set	.LANCHOR1,. + 0
 828              		.type	uart_debug, %object
 829              		.size	uart_debug, 1
 830              	uart_debug:
 831 0000 01       		.byte	1
 832              		.section	.rodata.str1.4,"aMS",%progbits,1
 833              		.align	2
 834              	.LC5:
ARM GAS  C:\Users\austc\AppData\Local\Temp\ccf7rf46.s 			page 22


 835 0000 43414E20 		.ascii	"CAN dip setting:  %x Message ID: %lx\015\012\000"
 835      64697020 
 835      73657474 
 835      696E673A 
 835      20202578 
 836 0027 00       		.space	1
 837              	.LC11:
 838 0028 43414E5F 		.ascii	"CAN_Start():  %u\015\012\000"
 838      53746172 
 838      7428293A 
 838      20202575 
 838      0D0A00
 839 003b 00       		.space	1
 840              	.LC17:
 841 003c 43414E5F 		.ascii	"CAN_Send_Encoder: byte[0u] %x byte[1u] %x\015\012\000"
 841      53656E64 
 841      5F456E63 
 841      6F646572 
 841      3A206279 
 842              	.LC23:
 843 0068 54656C65 		.ascii	"Telemerty: byte[0u] %x byte[1u] %x\015\012\000"
 843      6D657274 
 843      793A2062 
 843      7974655B 
 843      30755D20 
 844 008d 000000   		.space	3
 845              	.LC29:
 846 0090 4D6F6465 		.ascii	"Model: byte[0u] %x byte[1u] %x\015\012\000"
 846      6C3A2062 
 846      7974655B 
 846      30755D20 
 846      25782062 
 847              		.bss
 848              		.align	2
 849              		.set	.LANCHOR0,. + 0
 850              		.type	isrFlag, %object
 851              		.size	isrFlag, 1
 852              	isrFlag:
 853 0000 00       		.space	1
 854              		.type	emergency, %object
 855              		.size	emergency, 1
 856              	emergency:
 857 0001 00       		.space	1
 858 0002 0000     		.space	2
 859              		.type	message_id, %object
 860              		.size	message_id, 4
 861              	message_id:
 862 0004 00000000 		.space	4
 863              		.type	i, %object
 864              		.size	i, 4
 865              	i:
 866 0008 00000000 		.space	4
 867              		.type	lastp, %object
 868              		.size	lastp, 4
 869              	lastp:
 870 000c 00000000 		.space	4
 871              		.type	mailbox, %object
ARM GAS  C:\Users\austc\AppData\Local\Temp\ccf7rf46.s 			page 23


 872              		.size	mailbox, 4
 873              	mailbox:
 874 0010 00000000 		.space	4
 875              		.text
 876              	.Letext0:
 877              		.file 2 "Generated_Source\\PSoC4/cytypes.h"
 878              		.file 3 "Generated_Source\\PSoC4/CAN.h"
 879              		.file 4 "Generated_Source\\PSoC4/PWM_Motor.h"
 880              		.file 5 "Generated_Source\\PSoC4/Can_addr.h"
 881              		.file 6 "c:\\program files (x86)\\cypress\\psoc creator\\4.2\\psoc creator\\import\\gnu\\arm\\5.4.
 882              		.file 7 "Generated_Source\\PSoC4/UART_SPI_UART.h"
 883              		.file 8 "Generated_Source\\PSoC4/ADC_SAR_Seq_1.h"
 884              		.file 9 "Generated_Source\\PSoC4/QuadDec.h"
 885              		.file 10 "Generated_Source\\PSoC4/UART.h"
 886              		.file 11 "Generated_Source\\PSoC4/CyLib.h"
 887              		.file 12 "Generated_Source\\PSoC4/Status_Reg_Switches.h"
 888              		.file 13 "Generated_Source\\PSoC4/Pin_Direction.h"
 889              		.file 14 "Generated_Source\\PSoC4/Pin_Limit_1.h"