ARM GAS  C:\Users\austc\AppData\Local\Temp\ccgcXk2R.s 			page 1


   1              		.syntax unified
   2              		.cpu cortex-m0
   3              		.fpu softvfp
   4              		.eabi_attribute 20, 1
   5              		.eabi_attribute 21, 1
   6              		.eabi_attribute 23, 3
   7              		.eabi_attribute 24, 1
   8              		.eabi_attribute 25, 1
   9              		.eabi_attribute 26, 1
  10              		.eabi_attribute 30, 1
  11              		.eabi_attribute 34, 0
  12              		.eabi_attribute 18, 4
  13              		.thumb
  14              		.syntax unified
  15              		.file	"main.c"
  16              		.text
  17              	.Ltext0:
  18              		.cfi_sections	.debug_frame
  19              		.section	.text.ISR_CAN,"ax",%progbits
  20              		.align	2
  21              		.global	ISR_CAN
  22              		.code	16
  23              		.thumb_func
  24              		.type	ISR_CAN, %function
  25              	ISR_CAN:
  26              	.LFB36:
  27              		.file 1 "main.c"
   1:main.c        **** /*******************************************************************************
   2:main.c        **** * File Name: main.c
   3:main.c        **** *
   4:main.c        **** * Version: 1.0
   5:main.c        **** *
   6:main.c        **** * Description:
   7:main.c        **** *  This example project demonstrates how to configure the CAN Component in
   8:main.c        **** *  the Full CAN mode.
   9:main.c        **** *  The CAN component is configured to receive the following messages from the
  10:main.c        **** *  remote node:
  11:main.c        **** *   Message 1 - Status of Switch 1.
  12:main.c        **** *   Message 2 - ADC data.
  13:main.c        **** *
  14:main.c        **** *  The component is also configured to transmit data to control the pulse width
  15:main.c        **** *  of the PWM in the remote node. The transmitted data (pulse width value)
  16:main.c        **** *  increments at a switch press.
  17:main.c        **** *  Both transmitted and received data are send out over UART, so that it
  18:main.c        **** *  can be received on a PC using a USB-UART bridge (PSoC 5LP) on the
  19:main.c        **** *  CY8CKIT-044  Development Kit and the terminal software.
  20:main.c        **** *
  21:main.c        **** *  This is only one part of the CAN example project. Use this along with
  22:main.c        **** *  CAN_Basic_Example for complete demonstration.
  23:main.c        **** *
  24:main.c        **** * Hardware Dependency:
  25:main.c        **** *  CY8CKIT-044
  26:main.c        **** *  CY8CKIT-017
  27:main.c        **** *
  28:main.c        **** ********************************************************************************
  29:main.c        **** * Copyright 2015, Cypress Semiconductor Corporation. All rights reserved.
  30:main.c        **** * This software is owned by Cypress Semiconductor Corporation and is protected
ARM GAS  C:\Users\austc\AppData\Local\Temp\ccgcXk2R.s 			page 2


  31:main.c        **** * by and subject to worldwide patent and copyright laws and treaties.
  32:main.c        **** * Therefore, you may use this software only as provided in the license agreement
  33:main.c        **** * accompanying the software package from which you obtained this software.
  34:main.c        **** * CYPRESS AND ITS SUPPLIERS MAKE NO WARRANTY OF ANY KIND, EXPRESS OR IMPLIED,
  35:main.c        **** * WITH REGARD TO THIS SOFTWARE, INCLUDING, BUT NOT LIMITED TO, NONINFRINGEMENT,
  36:main.c        **** * IMPLIED WARRANTIES OF MERCHANTABILITY AND FITNESS FOR A PARTICULAR PURPOSE.
  37:main.c        **** *******************************************************************************/
  38:main.c        **** #include <project.h>
  39:main.c        **** #include <stdio.h>
  40:main.c        **** 
  41:main.c        **** #define PWM_PULSE_WIDTH_STEP        (10u)
  42:main.c        **** #define SWITCH_PRESSED              (1u)
  43:main.c        **** 
  44:main.c        **** #define PWM_MESSAGE_ID              (0x1AAu)
  45:main.c        **** #define PWM_MESSAGE_IDE             (0u)    /* Standard message */
  46:main.c        **** #define PWM_MESSAGE_IRQ             (0u)    /* No transmit IRQ */
  47:main.c        **** #define PWM_MESSAGE_RTR             (0u)    /* No RTR */
  48:main.c        **** 
  49:main.c        **** #define CAN_RX_MAILBOX_0_SHIFT      (1u)
  50:main.c        **** #define CAN_RX_MAILBOX_1_SHIFT      (2u)
  51:main.c        **** 
  52:main.c        **** #define TX_DATA_SIZE                (25u)
  53:main.c        **** 
  54:main.c        **** #define ONE_BYTE_OFFSET             (8u)
  55:main.c        **** 
  56:main.c        **** /* Function prototypes */
  57:main.c        **** CY_ISR_PROTO(ISR_CAN);
  58:main.c        **** 
  59:main.c        **** /* Global variables used to store configuration and data for BASIC CAN mailbox */
  60:main.c        **** CAN_DATA_BYTES_MSG dataPWM;
  61:main.c        **** CAN_TX_MSG messagePWM;
  62:main.c        **** 
  63:main.c        **** /* Global variable used to store PWM pulse width value  */
  64:main.c        **** uint8 pulseWidthValue = 0u;
  65:main.c        **** 
  66:main.c        **** /* Global variable used to store receive message mailbox number */
  67:main.c        **** volatile uint8 receiveMailboxNumber = 0xFFu;
  68:main.c        **** 
  69:main.c        **** 
  70:main.c        **** /*******************************************************************************
  71:main.c        **** * Function Name: main
  72:main.c        **** ********************************************************************************
  73:main.c        **** *
  74:main.c        **** * Summary:
  75:main.c        **** *  main() performs the following functions:
  76:main.c        **** *  1: Initializes a structure for the Basic CAN mailbox to send messages.
  77:main.c        **** *  2: Starts the CAN and UART components.
  78:main.c        **** *  3: When received Message 1, sends the PWM pulse width and sends
  79:main.c        **** *     received switch status and value of PWM pulse width over UART; 
  80:main.c        **** *     When received Message 2, sends the received ADC data over UART.
  81:main.c        **** *
  82:main.c        **** * Parameters:
  83:main.c        **** *  None.
  84:main.c        **** *
  85:main.c        **** * Return:
  86:main.c        **** *  None.
  87:main.c        **** *
ARM GAS  C:\Users\austc\AppData\Local\Temp\ccgcXk2R.s 			page 3


  88:main.c        **** *******************************************************************************/
  89:main.c        **** int main()
  90:main.c        **** {
  91:main.c        ****     char8 txData[TX_DATA_SIZE];
  92:main.c        ****     uint16 adcData;
  93:main.c        ****     
  94:main.c        ****     /* BASIC CAN mailbox configuration */
  95:main.c        ****     messagePWM.dlc = CAN_TX_DLC_MAX_VALUE;
  96:main.c        ****     messagePWM.id  = PWM_MESSAGE_ID;
  97:main.c        ****     messagePWM.ide = PWM_MESSAGE_IDE;
  98:main.c        ****     messagePWM.irq = PWM_MESSAGE_IRQ;
  99:main.c        ****     messagePWM.msg = &dataPWM;
 100:main.c        ****     messagePWM.rtr = PWM_MESSAGE_RTR;
 101:main.c        **** 
 102:main.c        ****     UART_Start();
 103:main.c        ****     CAN_Init(); 
 104:main.c        ****     CAN_Start();
 105:main.c        **** 
 106:main.c        ****     /* Set CAN interrupt handler to local routine */
 107:main.c        ****     CyIntSetVector(CAN_ISR_NUMBER, ISR_CAN);
 108:main.c        **** 
 109:main.c        ****     CyGlobalIntEnable;
 110:main.c        **** 
 111:main.c        ****     for(;;)
 112:main.c        ****     {
 113:main.c        ****         if (receiveMailboxNumber == CAN_RX_MAILBOX_switchStatus)
 114:main.c        ****         {
 115:main.c        ****             if (CAN_RX_DATA_BYTE1(0u) == SWITCH_PRESSED)
 116:main.c        ****             {
 117:main.c        ****                 /* Send received switch status over UART */
 118:main.c        ****                 UART_UartPutString("Switch 1 pressed.\r\n");
 119:main.c        ****                 
 120:main.c        ****                 /* Increase the PWM pulse width */
 121:main.c        ****                 pulseWidthValue += PWM_PULSE_WIDTH_STEP;
 122:main.c        ****                 
 123:main.c        ****                 /* Send message with the new PWM pulse width */
 124:main.c        ****                 dataPWM.byte[0u] = pulseWidthValue;
 125:main.c        ****                 CAN_SendMsg(&messagePWM);
 126:main.c        ****                 
 127:main.c        ****                 /* Send PWM pulse width over UART */
 128:main.c        ****                 sprintf(txData, "PWM pulse width: %X \r\n", pulseWidthValue);
 129:main.c        ****                 UART_UartPutString(txData);
 130:main.c        ****             }
 131:main.c        ****             else
 132:main.c        ****             {
 133:main.c        ****                 /* Send received switch status over UART */
 134:main.c        ****                 UART_UartPutString("Switch 1 released.\r\n");
 135:main.c        ****             }
 136:main.c        ****             receiveMailboxNumber = 0xFFu;
 137:main.c        ****         }
 138:main.c        **** 
 139:main.c        ****         if (receiveMailboxNumber == CAN_RX_MAILBOX_ADCdata)
 140:main.c        ****         {
 141:main.c        ****             adcData = ((uint16) ((uint16) CAN_RX_DATA_BYTE1(CAN_RX_MAILBOX_ADCdata) << ONE_BYTE_OFF
 142:main.c        ****             CAN_RX_DATA_BYTE2(CAN_RX_MAILBOX_ADCdata);
 143:main.c        ****             
 144:main.c        ****             /* Send received received ADC data over UART */
ARM GAS  C:\Users\austc\AppData\Local\Temp\ccgcXk2R.s 			page 4


 145:main.c        ****             sprintf(txData, "ADC out: %u.%.3u \r\n", (adcData / 1000u), (adcData % 1000u));
 146:main.c        ****             UART_UartPutString(txData);
 147:main.c        ****             receiveMailboxNumber = 0xFFu;
 148:main.c        ****         }
 149:main.c        ****     }
 150:main.c        **** }
 151:main.c        **** 
 152:main.c        **** 
 153:main.c        **** /*******************************************************************************
 154:main.c        **** * Function Name: ISR_CAN
 155:main.c        **** ********************************************************************************
 156:main.c        **** *
 157:main.c        **** * Summary:
 158:main.c        **** *  This ISR is executed at a Receive Message event and set receiveMailboxNumber
 159:main.c        **** *  global variable with receive message mailbox number.
 160:main.c        **** *
 161:main.c        **** * Parameters:
 162:main.c        **** *  None.
 163:main.c        **** *
 164:main.c        **** * Return:
 165:main.c        **** *  None.
 166:main.c        **** *
 167:main.c        **** *******************************************************************************/
 168:main.c        **** CY_ISR(ISR_CAN)
 169:main.c        **** {
  28              		.loc 1 169 0
  29              		.cfi_startproc
  30              		@ args = 0, pretend = 0, frame = 0
  31              		@ frame_needed = 0, uses_anonymous_args = 0
  32              		@ link register save eliminated.
 170:main.c        ****     /* Clear Receive Message flag */
 171:main.c        ****     CAN_INT_SR_REG = CAN_RX_MESSAGE_MASK;
  33              		.loc 1 171 0
  34 0000 8022     		movs	r2, #128
  35 0002 5201     		lsls	r2, r2, #5
  36 0004 0C4B     		ldr	r3, .L4
  37 0006 1A60     		str	r2, [r3]
 172:main.c        **** 
 173:main.c        ****     /* Switch status message received */
 174:main.c        ****     if ((CAN_BUF_SR_REG & CAN_RX_MAILBOX_0_SHIFT) != 0u)
  38              		.loc 1 174 0
  39 0008 0C4B     		ldr	r3, .L4+4
  40 000a 1B68     		ldr	r3, [r3]
  41 000c DB07     		lsls	r3, r3, #31
  42 000e 07D5     		bpl	.L2
 175:main.c        ****     {
 176:main.c        ****         receiveMailboxNumber = CAN_RX_MAILBOX_switchStatus;
  43              		.loc 1 176 0
  44 0010 0022     		movs	r2, #0
  45 0012 0B4B     		ldr	r3, .L4+8
  46 0014 1A70     		strb	r2, [r3]
 177:main.c        **** 
 178:main.c        ****         /* Acknowledges receipt of new message */
 179:main.c        ****         CAN_RX_ACK_MESSAGE(CAN_RX_MAILBOX_switchStatus);
  47              		.loc 1 179 0
  48 0016 0B4A     		ldr	r2, .L4+12
  49 0018 1168     		ldr	r1, [r2]
ARM GAS  C:\Users\austc\AppData\Local\Temp\ccgcXk2R.s 			page 5


  50 001a 0123     		movs	r3, #1
  51 001c 0B43     		orrs	r3, r1
  52 001e 1360     		str	r3, [r2]
  53              	.L2:
 180:main.c        ****     }
 181:main.c        **** 
 182:main.c        ****     if ((CAN_BUF_SR_REG & CAN_RX_MAILBOX_1_SHIFT) != 0u)
  54              		.loc 1 182 0
  55 0020 064B     		ldr	r3, .L4+4
  56 0022 1B68     		ldr	r3, [r3]
  57 0024 9B07     		lsls	r3, r3, #30
  58 0026 06D5     		bpl	.L1
 183:main.c        ****     {
 184:main.c        ****         receiveMailboxNumber = CAN_RX_MAILBOX_ADCdata;
  59              		.loc 1 184 0
  60 0028 0123     		movs	r3, #1
  61 002a 054A     		ldr	r2, .L4+8
  62 002c 1370     		strb	r3, [r2]
 185:main.c        ****         
 186:main.c        ****         /* Acknowledges receipt of new message */
 187:main.c        ****         CAN_RX_ACK_MESSAGE(CAN_RX_MAILBOX_ADCdata);
  63              		.loc 1 187 0
  64 002e 064A     		ldr	r2, .L4+16
  65 0030 1168     		ldr	r1, [r2]
  66 0032 0B43     		orrs	r3, r1
  67 0034 1360     		str	r3, [r2]
  68              	.L1:
 188:main.c        ****     }
 189:main.c        **** }
  69              		.loc 1 189 0
  70              		@ sp needed
  71 0036 7047     		bx	lr
  72              	.L5:
  73              		.align	2
  74              	.L4:
  75 0038 00002F40 		.word	1076822016
  76 003c 08002F40 		.word	1076822024
  77 0040 00000000 		.word	.LANCHOR0
  78 0044 A0002F40 		.word	1076822176
  79 0048 C0002F40 		.word	1076822208
  80              		.cfi_endproc
  81              	.LFE36:
  82              		.size	ISR_CAN, .-ISR_CAN
  83              		.global	__aeabi_uidivmod
  84              		.global	__aeabi_uidiv
  85              		.section	.text.main,"ax",%progbits
  86              		.align	2
  87              		.global	main
  88              		.code	16
  89              		.thumb_func
  90              		.type	main, %function
  91              	main:
  92              	.LFB35:
  90:main.c        ****     char8 txData[TX_DATA_SIZE];
  93              		.loc 1 90 0
  94              		.cfi_startproc
  95              		@ args = 0, pretend = 0, frame = 32
ARM GAS  C:\Users\austc\AppData\Local\Temp\ccgcXk2R.s 			page 6


  96              		@ frame_needed = 0, uses_anonymous_args = 0
  97 0000 30B5     		push	{r4, r5, lr}
  98              		.cfi_def_cfa_offset 12
  99              		.cfi_offset 4, -12
 100              		.cfi_offset 5, -8
 101              		.cfi_offset 14, -4
 102 0002 89B0     		sub	sp, sp, #36
 103              		.cfi_def_cfa_offset 48
  95:main.c        ****     messagePWM.id  = PWM_MESSAGE_ID;
 104              		.loc 1 95 0
 105 0004 304B     		ldr	r3, .L12
 106 0006 0822     		movs	r2, #8
 107 0008 9A71     		strb	r2, [r3, #6]
  96:main.c        ****     messagePWM.ide = PWM_MESSAGE_IDE;
 108              		.loc 1 96 0
 109 000a A332     		adds	r2, r2, #163
 110 000c FF32     		adds	r2, r2, #255
 111 000e 1A60     		str	r2, [r3]
  97:main.c        ****     messagePWM.irq = PWM_MESSAGE_IRQ;
 112              		.loc 1 97 0
 113 0010 0022     		movs	r2, #0
 114 0012 5A71     		strb	r2, [r3, #5]
  98:main.c        ****     messagePWM.msg = &dataPWM;
 115              		.loc 1 98 0
 116 0014 DA71     		strb	r2, [r3, #7]
  99:main.c        ****     messagePWM.rtr = PWM_MESSAGE_RTR;
 117              		.loc 1 99 0
 118 0016 2D49     		ldr	r1, .L12+4
 119 0018 D960     		str	r1, [r3, #12]
 100:main.c        **** 
 120              		.loc 1 100 0
 121 001a 1A71     		strb	r2, [r3, #4]
 102:main.c        ****     CAN_Init(); 
 122              		.loc 1 102 0
 123 001c FFF7FEFF 		bl	UART_Start
 124              	.LVL0:
 103:main.c        ****     CAN_Start();
 125              		.loc 1 103 0
 126 0020 FFF7FEFF 		bl	CAN_Init
 127              	.LVL1:
 104:main.c        **** 
 128              		.loc 1 104 0
 129 0024 FFF7FEFF 		bl	CAN_Start
 130              	.LVL2:
 107:main.c        **** 
 131              		.loc 1 107 0
 132 0028 2949     		ldr	r1, .L12+8
 133 002a 1D20     		movs	r0, #29
 134 002c FFF7FEFF 		bl	CyIntSetVector
 135              	.LVL3:
 109:main.c        **** 
 136              		.loc 1 109 0
 137              		.syntax divided
 138              	@ 109 "main.c" 1
 139 0030 62B6     		CPSIE   i
 140              	@ 0 "" 2
 141              		.thumb
ARM GAS  C:\Users\austc\AppData\Local\Temp\ccgcXk2R.s 			page 7


 142              		.syntax unified
 143              	.L10:
 113:main.c        ****         {
 144              		.loc 1 113 0
 145 0032 284B     		ldr	r3, .L12+12
 146 0034 1B78     		ldrb	r3, [r3]
 147 0036 002B     		cmp	r3, #0
 148 0038 20D1     		bne	.L7
 115:main.c        ****             {
 149              		.loc 1 115 0
 150 003a 274B     		ldr	r3, .L12+16
 151 003c 1B68     		ldr	r3, [r3]
 152 003e 1B0E     		lsrs	r3, r3, #24
 153 0040 012B     		cmp	r3, #1
 154 0042 15D1     		bne	.L8
 118:main.c        ****                 
 155              		.loc 1 118 0
 156 0044 2548     		ldr	r0, .L12+20
 157 0046 FFF7FEFF 		bl	UART_UartPutString
 158              	.LVL4:
 121:main.c        ****                 
 159              		.loc 1 121 0
 160 004a 254C     		ldr	r4, .L12+24
 161 004c 2378     		ldrb	r3, [r4]
 162 004e 0A33     		adds	r3, r3, #10
 163 0050 DBB2     		uxtb	r3, r3
 164 0052 2370     		strb	r3, [r4]
 124:main.c        ****                 CAN_SendMsg(&messagePWM);
 165              		.loc 1 124 0
 166 0054 1D4A     		ldr	r2, .L12+4
 167 0056 1370     		strb	r3, [r2]
 125:main.c        ****                 
 168              		.loc 1 125 0
 169 0058 1B48     		ldr	r0, .L12
 170 005a FFF7FEFF 		bl	CAN_SendMsg
 171              	.LVL5:
 128:main.c        ****                 UART_UartPutString(txData);
 172              		.loc 1 128 0
 173 005e 2278     		ldrb	r2, [r4]
 174 0060 2049     		ldr	r1, .L12+28
 175 0062 01A8     		add	r0, sp, #4
 176 0064 FFF7FEFF 		bl	sprintf
 177              	.LVL6:
 129:main.c        ****             }
 178              		.loc 1 129 0
 179 0068 01A8     		add	r0, sp, #4
 180 006a FFF7FEFF 		bl	UART_UartPutString
 181              	.LVL7:
 182 006e 02E0     		b	.L9
 183              	.L8:
 134:main.c        ****             }
 184              		.loc 1 134 0
 185 0070 1D48     		ldr	r0, .L12+32
 186 0072 FFF7FEFF 		bl	UART_UartPutString
 187              	.LVL8:
 188              	.L9:
 136:main.c        ****         }
ARM GAS  C:\Users\austc\AppData\Local\Temp\ccgcXk2R.s 			page 8


 189              		.loc 1 136 0
 190 0076 FF22     		movs	r2, #255
 191 0078 164B     		ldr	r3, .L12+12
 192 007a 1A70     		strb	r2, [r3]
 193              	.L7:
 139:main.c        ****         {
 194              		.loc 1 139 0
 195 007c 154B     		ldr	r3, .L12+12
 196 007e 1B78     		ldrb	r3, [r3]
 197 0080 012B     		cmp	r3, #1
 198 0082 D6D1     		bne	.L10
 141:main.c        ****             CAN_RX_DATA_BYTE2(CAN_RX_MAILBOX_ADCdata);
 199              		.loc 1 141 0
 200 0084 194A     		ldr	r2, .L12+36
 201 0086 1468     		ldr	r4, [r2]
 202 0088 240E     		lsrs	r4, r4, #24
 203 008a 2302     		lsls	r3, r4, #8
 142:main.c        ****             
 204              		.loc 1 142 0
 205 008c 1468     		ldr	r4, [r2]
 206 008e 240C     		lsrs	r4, r4, #16
 141:main.c        ****             CAN_RX_DATA_BYTE2(CAN_RX_MAILBOX_ADCdata);
 207              		.loc 1 141 0
 208 0090 FF22     		movs	r2, #255
 209 0092 1440     		ands	r4, r2
 210 0094 1C43     		orrs	r4, r3
 211              	.LVL9:
 145:main.c        ****             UART_UartPutString(txData);
 212              		.loc 1 145 0
 213 0096 FA21     		movs	r1, #250
 214 0098 8900     		lsls	r1, r1, #2
 215 009a 2000     		movs	r0, r4
 216 009c FFF7FEFF 		bl	__aeabi_uidivmod
 217              	.LVL10:
 218 00a0 8DB2     		uxth	r5, r1
 219 00a2 FA21     		movs	r1, #250
 220 00a4 8900     		lsls	r1, r1, #2
 221 00a6 2000     		movs	r0, r4
 222 00a8 FFF7FEFF 		bl	__aeabi_uidiv
 223              	.LVL11:
 224 00ac 82B2     		uxth	r2, r0
 225 00ae 2B00     		movs	r3, r5
 226 00b0 0F49     		ldr	r1, .L12+40
 227 00b2 01A8     		add	r0, sp, #4
 228 00b4 FFF7FEFF 		bl	sprintf
 229              	.LVL12:
 146:main.c        ****             receiveMailboxNumber = 0xFFu;
 230              		.loc 1 146 0
 231 00b8 01A8     		add	r0, sp, #4
 232 00ba FFF7FEFF 		bl	UART_UartPutString
 233              	.LVL13:
 147:main.c        ****         }
 234              		.loc 1 147 0
 235 00be 054B     		ldr	r3, .L12+12
 236 00c0 FF22     		movs	r2, #255
 237 00c2 1A70     		strb	r2, [r3]
 238 00c4 B5E7     		b	.L10
ARM GAS  C:\Users\austc\AppData\Local\Temp\ccgcXk2R.s 			page 9


 239              	.L13:
 240 00c6 C046     		.align	2
 241              	.L12:
 242 00c8 00000000 		.word	messagePWM
 243 00cc 00000000 		.word	dataPWM
 244 00d0 00000000 		.word	ISR_CAN
 245 00d4 00000000 		.word	.LANCHOR0
 246 00d8 A8002F40 		.word	1076822184
 247 00dc 00000000 		.word	.LC5
 248 00e0 00000000 		.word	.LANCHOR1
 249 00e4 14000000 		.word	.LC8
 250 00e8 2C000000 		.word	.LC10
 251 00ec C8002F40 		.word	1076822216
 252 00f0 44000000 		.word	.LC12
 253              		.cfi_endproc
 254              	.LFE35:
 255              		.size	main, .-main
 256              		.global	receiveMailboxNumber
 257              		.global	pulseWidthValue
 258              		.comm	messagePWM,16,4
 259              		.comm	dataPWM,8,4
 260              		.data
 261              		.set	.LANCHOR0,. + 0
 262              		.type	receiveMailboxNumber, %object
 263              		.size	receiveMailboxNumber, 1
 264              	receiveMailboxNumber:
 265 0000 FF       		.byte	-1
 266              		.section	.rodata.str1.4,"aMS",%progbits,1
 267              		.align	2
 268              	.LC5:
 269 0000 53776974 		.ascii	"Switch 1 pressed.\015\012\000"
 269      63682031 
 269      20707265 
 269      73736564 
 269      2E0D0A00 
 270              	.LC8:
 271 0014 50574D20 		.ascii	"PWM pulse width: %X \015\012\000"
 271      70756C73 
 271      65207769 
 271      6474683A 
 271      20255820 
 272 002b 00       		.space	1
 273              	.LC10:
 274 002c 53776974 		.ascii	"Switch 1 released.\015\012\000"
 274      63682031 
 274      2072656C 
 274      65617365 
 274      642E0D0A 
 275 0041 000000   		.space	3
 276              	.LC12:
 277 0044 41444320 		.ascii	"ADC out: %u.%.3u \015\012\000"
 277      6F75743A 
 277      2025752E 
 277      252E3375 
 277      200D0A00 
 278              		.bss
 279              		.set	.LANCHOR1,. + 0
ARM GAS  C:\Users\austc\AppData\Local\Temp\ccgcXk2R.s 			page 10


 280              		.type	pulseWidthValue, %object
 281              		.size	pulseWidthValue, 1
 282              	pulseWidthValue:
 283 0000 00       		.space	1
 284              		.text
 285              	.Letext0:
 286              		.file 2 "Generated_Source\\PSoC4/cytypes.h"
 287              		.file 3 "Generated_Source\\PSoC4/CAN.h"
 288              		.file 4 "Generated_Source\\PSoC4/UART.h"
 289              		.file 5 "Generated_Source\\PSoC4/CyLib.h"
 290              		.file 6 "Generated_Source\\PSoC4/UART_SPI_UART.h"
 291              		.file 7 "c:\\program files (x86)\\cypress\\psoc creator\\4.2\\psoc creator\\import\\gnu\\arm\\5.4.