ARM GAS  C:\Users\austc\AppData\Local\Temp\ccOBcOmj.s 			page 1


   1              		.syntax unified
   2              		.cpu cortex-m0
   3              		.fpu softvfp
   4              		.eabi_attribute 20, 1
   5              		.eabi_attribute 21, 1
   6              		.eabi_attribute 23, 3
   7              		.eabi_attribute 24, 1
   8              		.eabi_attribute 25, 1
   9              		.eabi_attribute 26, 1
  10              		.eabi_attribute 30, 1
  11              		.eabi_attribute 34, 0
  12              		.eabi_attribute 18, 4
  13              		.thumb
  14              		.syntax unified
  15              		.file	"cyfitter_cfg.c"
  16              		.text
  17              	.Ltext0:
  18              		.cfi_sections	.debug_frame
  19              		.section	.text.cfg_write_bytes32,"ax",%progbits
  20              		.align	2
  21              		.code	16
  22              		.thumb_func
  23              		.type	cfg_write_bytes32, %function
  24              	cfg_write_bytes32:
  25              	.LFB37:
  26              		.file 1 "Generated_Source\\PSoC4\\cyfitter_cfg.c"
   1:Generated_Source\PSoC4/cyfitter_cfg.c **** 
   2:Generated_Source\PSoC4/cyfitter_cfg.c **** /*******************************************************************************
   3:Generated_Source\PSoC4/cyfitter_cfg.c **** * File Name: cyfitter_cfg.c
   4:Generated_Source\PSoC4/cyfitter_cfg.c **** * 
   5:Generated_Source\PSoC4/cyfitter_cfg.c **** * PSoC Creator  4.2
   6:Generated_Source\PSoC4/cyfitter_cfg.c **** *
   7:Generated_Source\PSoC4/cyfitter_cfg.c **** * Description:
   8:Generated_Source\PSoC4/cyfitter_cfg.c **** * This file contains device initialization code.
   9:Generated_Source\PSoC4/cyfitter_cfg.c **** * Except for the user defined sections in CyClockStartupError(), this file should not be modified.
  10:Generated_Source\PSoC4/cyfitter_cfg.c **** * This file is automatically generated by PSoC Creator.
  11:Generated_Source\PSoC4/cyfitter_cfg.c **** *
  12:Generated_Source\PSoC4/cyfitter_cfg.c **** ********************************************************************************
  13:Generated_Source\PSoC4/cyfitter_cfg.c **** * Copyright (c) 2007-2018 Cypress Semiconductor.  All rights reserved.
  14:Generated_Source\PSoC4/cyfitter_cfg.c **** * You may use this file only in accordance with the license, terms, conditions, 
  15:Generated_Source\PSoC4/cyfitter_cfg.c **** * disclaimers, and limitations in the end user license agreement accompanying 
  16:Generated_Source\PSoC4/cyfitter_cfg.c **** * the software package with which this file was provided.
  17:Generated_Source\PSoC4/cyfitter_cfg.c **** ********************************************************************************/
  18:Generated_Source\PSoC4/cyfitter_cfg.c **** 
  19:Generated_Source\PSoC4/cyfitter_cfg.c **** #include <string.h>
  20:Generated_Source\PSoC4/cyfitter_cfg.c **** #include "cytypes.h"
  21:Generated_Source\PSoC4/cyfitter_cfg.c **** #include "cydevice_trm.h"
  22:Generated_Source\PSoC4/cyfitter_cfg.c **** #include "cyfitter.h"
  23:Generated_Source\PSoC4/cyfitter_cfg.c **** #include "CyLib.h"
  24:Generated_Source\PSoC4/cyfitter_cfg.c **** #include "CyLFClk.h"
  25:Generated_Source\PSoC4/cyfitter_cfg.c **** #include "cyfitter_cfg.h"
  26:Generated_Source\PSoC4/cyfitter_cfg.c **** #include "cyapicallbacks.h"
  27:Generated_Source\PSoC4/cyfitter_cfg.c **** 
  28:Generated_Source\PSoC4/cyfitter_cfg.c **** 
  29:Generated_Source\PSoC4/cyfitter_cfg.c **** #if defined(__GNUC__) || defined(__ARMCC_VERSION)
  30:Generated_Source\PSoC4/cyfitter_cfg.c ****     #define CYPACKED 
  31:Generated_Source\PSoC4/cyfitter_cfg.c ****     #define CYPACKED_ATTR __attribute__ ((packed))
ARM GAS  C:\Users\austc\AppData\Local\Temp\ccOBcOmj.s 			page 2


  32:Generated_Source\PSoC4/cyfitter_cfg.c ****     #define CYALIGNED __attribute__ ((aligned))
  33:Generated_Source\PSoC4/cyfitter_cfg.c ****     #define CY_CFG_UNUSED __attribute__ ((unused))
  34:Generated_Source\PSoC4/cyfitter_cfg.c ****     #ifndef CY_CFG_SECTION
  35:Generated_Source\PSoC4/cyfitter_cfg.c ****         #define CY_CFG_SECTION __attribute__ ((section(".psocinit")))
  36:Generated_Source\PSoC4/cyfitter_cfg.c ****     #endif
  37:Generated_Source\PSoC4/cyfitter_cfg.c ****     
  38:Generated_Source\PSoC4/cyfitter_cfg.c ****     #if defined(__ARMCC_VERSION)
  39:Generated_Source\PSoC4/cyfitter_cfg.c ****         #define CY_CFG_MEMORY_BARRIER() __memory_changed()
  40:Generated_Source\PSoC4/cyfitter_cfg.c ****     #else
  41:Generated_Source\PSoC4/cyfitter_cfg.c ****         #define CY_CFG_MEMORY_BARRIER() __sync_synchronize()
  42:Generated_Source\PSoC4/cyfitter_cfg.c ****     #endif
  43:Generated_Source\PSoC4/cyfitter_cfg.c ****     
  44:Generated_Source\PSoC4/cyfitter_cfg.c **** #elif defined(__ICCARM__)
  45:Generated_Source\PSoC4/cyfitter_cfg.c ****     #include <intrinsics.h>
  46:Generated_Source\PSoC4/cyfitter_cfg.c **** 
  47:Generated_Source\PSoC4/cyfitter_cfg.c ****     #define CYPACKED __packed
  48:Generated_Source\PSoC4/cyfitter_cfg.c ****     #define CYPACKED_ATTR 
  49:Generated_Source\PSoC4/cyfitter_cfg.c ****     #define CYALIGNED _Pragma("data_alignment=4")
  50:Generated_Source\PSoC4/cyfitter_cfg.c ****     #define CY_CFG_UNUSED _Pragma("diag_suppress=Pe177")
  51:Generated_Source\PSoC4/cyfitter_cfg.c ****     #define CY_CFG_SECTION _Pragma("location=\".psocinit\"")
  52:Generated_Source\PSoC4/cyfitter_cfg.c ****     
  53:Generated_Source\PSoC4/cyfitter_cfg.c ****     #define CY_CFG_MEMORY_BARRIER() __DMB()
  54:Generated_Source\PSoC4/cyfitter_cfg.c ****     
  55:Generated_Source\PSoC4/cyfitter_cfg.c **** #else
  56:Generated_Source\PSoC4/cyfitter_cfg.c ****     #error Unsupported toolchain
  57:Generated_Source\PSoC4/cyfitter_cfg.c **** #endif
  58:Generated_Source\PSoC4/cyfitter_cfg.c **** 
  59:Generated_Source\PSoC4/cyfitter_cfg.c **** #ifndef CYCODE
  60:Generated_Source\PSoC4/cyfitter_cfg.c ****     #define CYCODE
  61:Generated_Source\PSoC4/cyfitter_cfg.c **** #endif
  62:Generated_Source\PSoC4/cyfitter_cfg.c **** #ifndef CYDATA
  63:Generated_Source\PSoC4/cyfitter_cfg.c ****     #define CYDATA
  64:Generated_Source\PSoC4/cyfitter_cfg.c **** #endif
  65:Generated_Source\PSoC4/cyfitter_cfg.c **** #ifndef CYFAR
  66:Generated_Source\PSoC4/cyfitter_cfg.c ****     #define CYFAR
  67:Generated_Source\PSoC4/cyfitter_cfg.c **** #endif
  68:Generated_Source\PSoC4/cyfitter_cfg.c **** #ifndef CYXDATA
  69:Generated_Source\PSoC4/cyfitter_cfg.c ****     #define CYXDATA
  70:Generated_Source\PSoC4/cyfitter_cfg.c **** #endif
  71:Generated_Source\PSoC4/cyfitter_cfg.c **** 
  72:Generated_Source\PSoC4/cyfitter_cfg.c **** 
  73:Generated_Source\PSoC4/cyfitter_cfg.c **** CY_CFG_UNUSED
  74:Generated_Source\PSoC4/cyfitter_cfg.c **** static void CYMEMZERO(void *s, size_t n);
  75:Generated_Source\PSoC4/cyfitter_cfg.c **** CY_CFG_UNUSED
  76:Generated_Source\PSoC4/cyfitter_cfg.c **** static void CYMEMZERO(void *s, size_t n)
  77:Generated_Source\PSoC4/cyfitter_cfg.c **** {
  78:Generated_Source\PSoC4/cyfitter_cfg.c **** 	(void)memset(s, 0, n);
  79:Generated_Source\PSoC4/cyfitter_cfg.c **** }
  80:Generated_Source\PSoC4/cyfitter_cfg.c **** CY_CFG_UNUSED
  81:Generated_Source\PSoC4/cyfitter_cfg.c **** static void CYCONFIGCPY(void *dest, const void *src, size_t n);
  82:Generated_Source\PSoC4/cyfitter_cfg.c **** CY_CFG_UNUSED
  83:Generated_Source\PSoC4/cyfitter_cfg.c **** static void CYCONFIGCPY(void *dest, const void *src, size_t n)
  84:Generated_Source\PSoC4/cyfitter_cfg.c **** {
  85:Generated_Source\PSoC4/cyfitter_cfg.c **** 	(void)memcpy(dest, src, n);
  86:Generated_Source\PSoC4/cyfitter_cfg.c **** }
  87:Generated_Source\PSoC4/cyfitter_cfg.c **** CY_CFG_UNUSED
  88:Generated_Source\PSoC4/cyfitter_cfg.c **** static void CYCONFIGCPYCODE(void *dest, const void *src, size_t n);
ARM GAS  C:\Users\austc\AppData\Local\Temp\ccOBcOmj.s 			page 3


  89:Generated_Source\PSoC4/cyfitter_cfg.c **** CY_CFG_UNUSED
  90:Generated_Source\PSoC4/cyfitter_cfg.c **** static void CYCONFIGCPYCODE(void *dest, const void *src, size_t n)
  91:Generated_Source\PSoC4/cyfitter_cfg.c **** {
  92:Generated_Source\PSoC4/cyfitter_cfg.c **** 	(void)memcpy(dest, src, n);
  93:Generated_Source\PSoC4/cyfitter_cfg.c **** }
  94:Generated_Source\PSoC4/cyfitter_cfg.c **** 
  95:Generated_Source\PSoC4/cyfitter_cfg.c **** 
  96:Generated_Source\PSoC4/cyfitter_cfg.c **** 
  97:Generated_Source\PSoC4/cyfitter_cfg.c **** 
  98:Generated_Source\PSoC4/cyfitter_cfg.c **** /* Clock startup error codes                                                   */
  99:Generated_Source\PSoC4/cyfitter_cfg.c **** #define CYCLOCKSTART_NO_ERROR    0u
 100:Generated_Source\PSoC4/cyfitter_cfg.c **** #define CYCLOCKSTART_XTAL_ERROR  1u
 101:Generated_Source\PSoC4/cyfitter_cfg.c **** #define CYCLOCKSTART_32KHZ_ERROR 2u
 102:Generated_Source\PSoC4/cyfitter_cfg.c **** #define CYCLOCKSTART_PLL_ERROR   3u
 103:Generated_Source\PSoC4/cyfitter_cfg.c **** #define CYCLOCKSTART_FLL_ERROR   4u
 104:Generated_Source\PSoC4/cyfitter_cfg.c **** #define CYCLOCKSTART_WCO_ERROR   5u
 105:Generated_Source\PSoC4/cyfitter_cfg.c **** 
 106:Generated_Source\PSoC4/cyfitter_cfg.c **** 
 107:Generated_Source\PSoC4/cyfitter_cfg.c **** #ifdef CY_NEED_CYCLOCKSTARTUPERROR
 108:Generated_Source\PSoC4/cyfitter_cfg.c **** /*******************************************************************************
 109:Generated_Source\PSoC4/cyfitter_cfg.c **** * Function Name: CyClockStartupError
 110:Generated_Source\PSoC4/cyfitter_cfg.c **** ********************************************************************************
 111:Generated_Source\PSoC4/cyfitter_cfg.c **** * Summary:
 112:Generated_Source\PSoC4/cyfitter_cfg.c **** *  If an error is encountered during clock configuration (crystal startup error,
 113:Generated_Source\PSoC4/cyfitter_cfg.c **** *  PLL lock error, etc.), the system will end up here.  Unless reimplemented by
 114:Generated_Source\PSoC4/cyfitter_cfg.c **** *  the customer, this function will stop in an infinite loop.
 115:Generated_Source\PSoC4/cyfitter_cfg.c **** *
 116:Generated_Source\PSoC4/cyfitter_cfg.c **** * Parameters:
 117:Generated_Source\PSoC4/cyfitter_cfg.c **** *   void
 118:Generated_Source\PSoC4/cyfitter_cfg.c **** *
 119:Generated_Source\PSoC4/cyfitter_cfg.c **** * Return:
 120:Generated_Source\PSoC4/cyfitter_cfg.c **** *   void
 121:Generated_Source\PSoC4/cyfitter_cfg.c **** *
 122:Generated_Source\PSoC4/cyfitter_cfg.c **** *******************************************************************************/
 123:Generated_Source\PSoC4/cyfitter_cfg.c **** CY_CFG_UNUSED
 124:Generated_Source\PSoC4/cyfitter_cfg.c **** static void CyClockStartupError(uint8 errorCode);
 125:Generated_Source\PSoC4/cyfitter_cfg.c **** CY_CFG_UNUSED
 126:Generated_Source\PSoC4/cyfitter_cfg.c **** static void CyClockStartupError(uint8 errorCode)
 127:Generated_Source\PSoC4/cyfitter_cfg.c **** {
 128:Generated_Source\PSoC4/cyfitter_cfg.c ****     /* To remove the compiler warning if errorCode not used.                */
 129:Generated_Source\PSoC4/cyfitter_cfg.c ****     errorCode = errorCode;
 130:Generated_Source\PSoC4/cyfitter_cfg.c **** 
 131:Generated_Source\PSoC4/cyfitter_cfg.c ****     /* If we have a clock startup error (bad MHz crystal, PLL lock, etc.),  */
 132:Generated_Source\PSoC4/cyfitter_cfg.c ****     /* we will end up here to allow the customer to implement something to  */
 133:Generated_Source\PSoC4/cyfitter_cfg.c ****     /* deal with the clock condition.                                       */
 134:Generated_Source\PSoC4/cyfitter_cfg.c **** 
 135:Generated_Source\PSoC4/cyfitter_cfg.c **** #ifdef CY_CFG_CLOCK_STARTUP_ERROR_CALLBACK
 136:Generated_Source\PSoC4/cyfitter_cfg.c ****     CY_CFG_Clock_Startup_ErrorCallback();
 137:Generated_Source\PSoC4/cyfitter_cfg.c **** #else
 138:Generated_Source\PSoC4/cyfitter_cfg.c ****     /*  If not using CY_CFG_CLOCK_STARTUP_ERROR_CALLBACK, place your clock startup code here. */
 139:Generated_Source\PSoC4/cyfitter_cfg.c ****     /* `#START CyClockStartupError` */
 140:Generated_Source\PSoC4/cyfitter_cfg.c **** 
 141:Generated_Source\PSoC4/cyfitter_cfg.c **** 
 142:Generated_Source\PSoC4/cyfitter_cfg.c **** 
 143:Generated_Source\PSoC4/cyfitter_cfg.c ****     /* `#END` */
 144:Generated_Source\PSoC4/cyfitter_cfg.c **** 
 145:Generated_Source\PSoC4/cyfitter_cfg.c ****     while(1) {}
ARM GAS  C:\Users\austc\AppData\Local\Temp\ccOBcOmj.s 			page 4


 146:Generated_Source\PSoC4/cyfitter_cfg.c **** #endif /* CY_CFG_CLOCK_STARTUP_ERROR_CALLBACK */
 147:Generated_Source\PSoC4/cyfitter_cfg.c **** }
 148:Generated_Source\PSoC4/cyfitter_cfg.c **** #endif
 149:Generated_Source\PSoC4/cyfitter_cfg.c **** 
 150:Generated_Source\PSoC4/cyfitter_cfg.c **** #define CY_CFG_BASE_ADDR_COUNT 16u
 151:Generated_Source\PSoC4/cyfitter_cfg.c **** CYPACKED typedef struct
 152:Generated_Source\PSoC4/cyfitter_cfg.c **** {
 153:Generated_Source\PSoC4/cyfitter_cfg.c **** 	uint8 offset;
 154:Generated_Source\PSoC4/cyfitter_cfg.c **** 	uint8 value;
 155:Generated_Source\PSoC4/cyfitter_cfg.c **** } CYPACKED_ATTR cy_cfg_addrvalue_t;
 156:Generated_Source\PSoC4/cyfitter_cfg.c **** 
 157:Generated_Source\PSoC4/cyfitter_cfg.c **** 
 158:Generated_Source\PSoC4/cyfitter_cfg.c **** 
 159:Generated_Source\PSoC4/cyfitter_cfg.c **** /*******************************************************************************
 160:Generated_Source\PSoC4/cyfitter_cfg.c **** * Function Name: cfg_write_bytes32
 161:Generated_Source\PSoC4/cyfitter_cfg.c **** ********************************************************************************
 162:Generated_Source\PSoC4/cyfitter_cfg.c **** * Summary:
 163:Generated_Source\PSoC4/cyfitter_cfg.c **** *  This function is used for setting up the chip configuration areas that
 164:Generated_Source\PSoC4/cyfitter_cfg.c **** *  contain relatively sparse data.
 165:Generated_Source\PSoC4/cyfitter_cfg.c **** *
 166:Generated_Source\PSoC4/cyfitter_cfg.c **** * Parameters:
 167:Generated_Source\PSoC4/cyfitter_cfg.c **** *   void
 168:Generated_Source\PSoC4/cyfitter_cfg.c **** *
 169:Generated_Source\PSoC4/cyfitter_cfg.c **** * Return:
 170:Generated_Source\PSoC4/cyfitter_cfg.c **** *   void
 171:Generated_Source\PSoC4/cyfitter_cfg.c **** *
 172:Generated_Source\PSoC4/cyfitter_cfg.c **** *******************************************************************************/
 173:Generated_Source\PSoC4/cyfitter_cfg.c **** static void cfg_write_bytes32(const uint32 addr_table[], const cy_cfg_addrvalue_t data_table[]);
 174:Generated_Source\PSoC4/cyfitter_cfg.c **** static void cfg_write_bytes32(const uint32 addr_table[], const cy_cfg_addrvalue_t data_table[])
 175:Generated_Source\PSoC4/cyfitter_cfg.c **** {
  27              		.loc 1 175 0
  28              		.cfi_startproc
  29              		@ args = 0, pretend = 0, frame = 0
  30              		@ frame_needed = 0, uses_anonymous_args = 0
  31              	.LVL0:
  32 0000 F0B5     		push	{r4, r5, r6, r7, lr}
  33              		.cfi_def_cfa_offset 20
  34              		.cfi_offset 4, -20
  35              		.cfi_offset 5, -16
  36              		.cfi_offset 6, -12
  37              		.cfi_offset 7, -8
  38              		.cfi_offset 14, -4
  39              	.LVL1:
 176:Generated_Source\PSoC4/cyfitter_cfg.c **** 	/* For 32-bit little-endian architectures */
 177:Generated_Source\PSoC4/cyfitter_cfg.c **** 	uint32 i, j = 0u;
  40              		.loc 1 177 0
  41 0002 0025     		movs	r5, #0
 178:Generated_Source\PSoC4/cyfitter_cfg.c **** 	for (i = 0u; i < CY_CFG_BASE_ADDR_COUNT; i++)
  42              		.loc 1 178 0
  43 0004 0027     		movs	r7, #0
  44 0006 11E0     		b	.L2
  45              	.LVL2:
  46              	.L5:
  47              	.LBB2:
 179:Generated_Source\PSoC4/cyfitter_cfg.c **** 	{
 180:Generated_Source\PSoC4/cyfitter_cfg.c **** 		uint32 baseAddr = addr_table[i];
  48              		.loc 1 180 0
ARM GAS  C:\Users\austc\AppData\Local\Temp\ccOBcOmj.s 			page 5


  49 0008 BB00     		lsls	r3, r7, #2
  50 000a C658     		ldr	r6, [r0, r3]
  51              	.LVL3:
 181:Generated_Source\PSoC4/cyfitter_cfg.c **** 		uint8 count = (uint8)baseAddr;
  52              		.loc 1 181 0
  53 000c F3B2     		uxtb	r3, r6
  54              	.LVL4:
 182:Generated_Source\PSoC4/cyfitter_cfg.c **** 		baseAddr &= 0xFFFFFF00u;
  55              		.loc 1 182 0
  56 000e FF22     		movs	r2, #255
  57 0010 9643     		bics	r6, r2
  58              	.LVL5:
 183:Generated_Source\PSoC4/cyfitter_cfg.c **** 		while (count != 0u)
  59              		.loc 1 183 0
  60 0012 08E0     		b	.L3
  61              	.L4:
 184:Generated_Source\PSoC4/cyfitter_cfg.c **** 		{
 185:Generated_Source\PSoC4/cyfitter_cfg.c **** 			CY_SET_REG8((void *)(baseAddr + data_table[j].offset), data_table[j].value);
  62              		.loc 1 185 0
  63 0014 6A00     		lsls	r2, r5, #1
  64 0016 8A18     		adds	r2, r1, r2
  65 0018 1478     		ldrb	r4, [r2]
  66 001a A419     		adds	r4, r4, r6
  67 001c 5278     		ldrb	r2, [r2, #1]
  68 001e 2270     		strb	r2, [r4]
 186:Generated_Source\PSoC4/cyfitter_cfg.c **** 			j++;
  69              		.loc 1 186 0
  70 0020 0135     		adds	r5, r5, #1
  71              	.LVL6:
 187:Generated_Source\PSoC4/cyfitter_cfg.c **** 			count--;
  72              		.loc 1 187 0
  73 0022 013B     		subs	r3, r3, #1
  74              	.LVL7:
  75 0024 DBB2     		uxtb	r3, r3
  76              	.LVL8:
  77              	.L3:
 183:Generated_Source\PSoC4/cyfitter_cfg.c **** 		{
  78              		.loc 1 183 0
  79 0026 002B     		cmp	r3, #0
  80 0028 F4D1     		bne	.L4
  81              	.LBE2:
 178:Generated_Source\PSoC4/cyfitter_cfg.c **** 	{
  82              		.loc 1 178 0 discriminator 2
  83 002a 0137     		adds	r7, r7, #1
  84              	.LVL9:
  85              	.L2:
 178:Generated_Source\PSoC4/cyfitter_cfg.c **** 	{
  86              		.loc 1 178 0 is_stmt 0 discriminator 1
  87 002c 0F2F     		cmp	r7, #15
  88 002e EBD9     		bls	.L5
 188:Generated_Source\PSoC4/cyfitter_cfg.c **** 		}
 189:Generated_Source\PSoC4/cyfitter_cfg.c **** 	}
 190:Generated_Source\PSoC4/cyfitter_cfg.c **** }
  89              		.loc 1 190 0 is_stmt 1
  90              		@ sp needed
  91              	.LVL10:
  92              	.LVL11:
ARM GAS  C:\Users\austc\AppData\Local\Temp\ccOBcOmj.s 			page 6


  93 0030 F0BD     		pop	{r4, r5, r6, r7, pc}
  94              		.cfi_endproc
  95              	.LFE37:
  96              		.size	cfg_write_bytes32, .-cfg_write_bytes32
  97 0032 C046     		.section	.text.AnalogSetDefault,"ax",%progbits
  98              		.align	2
  99              		.code	16
 100              		.thumb_func
 101              		.type	AnalogSetDefault, %function
 102              	AnalogSetDefault:
 103              	.LFB39:
 191:Generated_Source\PSoC4/cyfitter_cfg.c **** 
 192:Generated_Source\PSoC4/cyfitter_cfg.c **** 
 193:Generated_Source\PSoC4/cyfitter_cfg.c **** /*******************************************************************************
 194:Generated_Source\PSoC4/cyfitter_cfg.c **** * Function Name: ClockSetup
 195:Generated_Source\PSoC4/cyfitter_cfg.c **** ********************************************************************************
 196:Generated_Source\PSoC4/cyfitter_cfg.c **** *
 197:Generated_Source\PSoC4/cyfitter_cfg.c **** * Summary:
 198:Generated_Source\PSoC4/cyfitter_cfg.c **** *   Performs the initialization of all of the clocks in the device based on the
 199:Generated_Source\PSoC4/cyfitter_cfg.c **** *   settings in the Clock tab of the DWR.  This includes enabling the requested
 200:Generated_Source\PSoC4/cyfitter_cfg.c **** *   clocks and setting the necessary dividers to produce the desired frequency. 
 201:Generated_Source\PSoC4/cyfitter_cfg.c **** *
 202:Generated_Source\PSoC4/cyfitter_cfg.c **** * Parameters:
 203:Generated_Source\PSoC4/cyfitter_cfg.c **** *   void
 204:Generated_Source\PSoC4/cyfitter_cfg.c **** *
 205:Generated_Source\PSoC4/cyfitter_cfg.c **** * Return:
 206:Generated_Source\PSoC4/cyfitter_cfg.c **** *   void
 207:Generated_Source\PSoC4/cyfitter_cfg.c **** *
 208:Generated_Source\PSoC4/cyfitter_cfg.c **** *******************************************************************************/
 209:Generated_Source\PSoC4/cyfitter_cfg.c **** static void ClockSetup(void);
 210:Generated_Source\PSoC4/cyfitter_cfg.c **** CY_CFG_SECTION
 211:Generated_Source\PSoC4/cyfitter_cfg.c **** static void ClockSetup(void)
 212:Generated_Source\PSoC4/cyfitter_cfg.c **** {
 213:Generated_Source\PSoC4/cyfitter_cfg.c **** 
 214:Generated_Source\PSoC4/cyfitter_cfg.c **** 	/* Set Flash Cycles based on max possible frequency in case a glitch occurs during ClockSetup(). *
 215:Generated_Source\PSoC4/cyfitter_cfg.c **** 	CY_SET_REG32((void CYXDATA *)(CYREG_CPUSS_FLASH_CTL), (0x0012u));
 216:Generated_Source\PSoC4/cyfitter_cfg.c **** 	/* Setup and trim IMO based on desired frequency. */
 217:Generated_Source\PSoC4/cyfitter_cfg.c **** 	CySysClkWriteImoFreq(48u);
 218:Generated_Source\PSoC4/cyfitter_cfg.c **** 	/* CYDEV_WDT_CONFIG Starting address: CYDEV_WDT_CONFIG */
 219:Generated_Source\PSoC4/cyfitter_cfg.c **** 	CY_SET_REG32((void *)(CYREG_WDT_CONFIG), 0x40000000u);
 220:Generated_Source\PSoC4/cyfitter_cfg.c **** 
 221:Generated_Source\PSoC4/cyfitter_cfg.c **** 
 222:Generated_Source\PSoC4/cyfitter_cfg.c **** 	/* Setup phase aligned clocks */
 223:Generated_Source\PSoC4/cyfitter_cfg.c **** 	CY_SET_REG32((void *)CYREG_PERI_DIV_16_CTL0, 0x00000000u);
 224:Generated_Source\PSoC4/cyfitter_cfg.c **** 	CY_SET_REG32((void *)CYREG_PERI_DIV_CMD, 0x8000FF40u);
 225:Generated_Source\PSoC4/cyfitter_cfg.c **** 	CY_SET_REG32((void *)CYREG_PERI_DIV_16_CTL2, 0x00000100u);
 226:Generated_Source\PSoC4/cyfitter_cfg.c **** 	CY_SET_REG32((void *)CYREG_PERI_DIV_CMD, 0x8000FF42u);
 227:Generated_Source\PSoC4/cyfitter_cfg.c **** 	CY_SET_REG32((void *)CYREG_PERI_DIV_24_5_CTL, 0x061A7F00u);
 228:Generated_Source\PSoC4/cyfitter_cfg.c **** 	CY_SET_REG32((void *)CYREG_PERI_DIV_CMD, 0x8000FFC0u);
 229:Generated_Source\PSoC4/cyfitter_cfg.c **** 	CY_SET_REG32((void *)CYREG_PERI_DIV_16_CTL1, 0x00000100u);
 230:Generated_Source\PSoC4/cyfitter_cfg.c **** 	CY_SET_REG32((void *)CYREG_PERI_DIV_CMD, 0x8000FF41u);
 231:Generated_Source\PSoC4/cyfitter_cfg.c **** 	CY_SET_REG32((void *)CYREG_PERI_DIV_16_CTL3, 0x00000300u);
 232:Generated_Source\PSoC4/cyfitter_cfg.c **** 	CY_SET_REG32((void *)CYREG_PERI_DIV_CMD, 0x8000FF43u);
 233:Generated_Source\PSoC4/cyfitter_cfg.c **** 	CY_SET_REG32((void *)CYREG_PERI_DIV_16_CTL4, 0x00001C00u);
 234:Generated_Source\PSoC4/cyfitter_cfg.c **** 	CY_SET_REG32((void *)CYREG_PERI_DIV_CMD, 0x8000FF44u);
 235:Generated_Source\PSoC4/cyfitter_cfg.c **** 
 236:Generated_Source\PSoC4/cyfitter_cfg.c **** 	/* CYDEV_CLK_IMO_CONFIG Starting address: CYDEV_CLK_IMO_CONFIG */
ARM GAS  C:\Users\austc\AppData\Local\Temp\ccOBcOmj.s 			page 7


 237:Generated_Source\PSoC4/cyfitter_cfg.c **** 	CY_SET_REG32((void *)(CYREG_CLK_IMO_CONFIG), 0x80000000u);
 238:Generated_Source\PSoC4/cyfitter_cfg.c **** 
 239:Generated_Source\PSoC4/cyfitter_cfg.c **** 	/* CYDEV_CLK_SELECT Starting address: CYDEV_CLK_SELECT */
 240:Generated_Source\PSoC4/cyfitter_cfg.c **** 	CY_SET_REG32((void *)(CYREG_CLK_SELECT), 0x00060249u);
 241:Generated_Source\PSoC4/cyfitter_cfg.c **** 
 242:Generated_Source\PSoC4/cyfitter_cfg.c **** 	/* CYDEV_PERI_PCLK_CTL22 Starting address: CYDEV_PERI_PCLK_CTL22 */
 243:Generated_Source\PSoC4/cyfitter_cfg.c **** 	CY_SET_REG32((void *)(CYREG_PERI_PCLK_CTL22), 0x00000042u);
 244:Generated_Source\PSoC4/cyfitter_cfg.c **** 
 245:Generated_Source\PSoC4/cyfitter_cfg.c **** 	/* CYDEV_PERI_PCLK_CTL21 Starting address: CYDEV_PERI_PCLK_CTL21 */
 246:Generated_Source\PSoC4/cyfitter_cfg.c **** 	CY_SET_REG32((void *)(CYREG_PERI_PCLK_CTL21), 0x000000C0u);
 247:Generated_Source\PSoC4/cyfitter_cfg.c **** 
 248:Generated_Source\PSoC4/cyfitter_cfg.c **** 	/* CYDEV_PERI_PCLK_CTL20 Starting address: CYDEV_PERI_PCLK_CTL20 */
 249:Generated_Source\PSoC4/cyfitter_cfg.c **** 	CY_SET_REG32((void *)(CYREG_PERI_PCLK_CTL20), 0x00000041u);
 250:Generated_Source\PSoC4/cyfitter_cfg.c **** 
 251:Generated_Source\PSoC4/cyfitter_cfg.c **** 	/* CYDEV_PERI_PCLK_CTL11 Starting address: CYDEV_PERI_PCLK_CTL11 */
 252:Generated_Source\PSoC4/cyfitter_cfg.c **** 	CY_SET_REG32((void *)(CYREG_PERI_PCLK_CTL11), 0x00000043u);
 253:Generated_Source\PSoC4/cyfitter_cfg.c **** 
 254:Generated_Source\PSoC4/cyfitter_cfg.c **** 	/* CYDEV_PERI_PCLK_CTL3 Starting address: CYDEV_PERI_PCLK_CTL3 */
 255:Generated_Source\PSoC4/cyfitter_cfg.c **** 	CY_SET_REG32((void *)(CYREG_PERI_PCLK_CTL3), 0x00000044u);
 256:Generated_Source\PSoC4/cyfitter_cfg.c **** 
 257:Generated_Source\PSoC4/cyfitter_cfg.c **** 	(void)CyIntSetVector(8u, &CySysWdtIsr);
 258:Generated_Source\PSoC4/cyfitter_cfg.c **** 	CyIntEnable(8u);
 259:Generated_Source\PSoC4/cyfitter_cfg.c **** 	CY_SET_REG32((void *)(CYREG_WDT_CONFIG), 0x40000000u);
 260:Generated_Source\PSoC4/cyfitter_cfg.c **** }
 261:Generated_Source\PSoC4/cyfitter_cfg.c **** 
 262:Generated_Source\PSoC4/cyfitter_cfg.c **** 
 263:Generated_Source\PSoC4/cyfitter_cfg.c **** /* Analog API Functions */
 264:Generated_Source\PSoC4/cyfitter_cfg.c **** 
 265:Generated_Source\PSoC4/cyfitter_cfg.c **** 
 266:Generated_Source\PSoC4/cyfitter_cfg.c **** /*******************************************************************************
 267:Generated_Source\PSoC4/cyfitter_cfg.c **** * Function Name: AnalogSetDefault
 268:Generated_Source\PSoC4/cyfitter_cfg.c **** ********************************************************************************
 269:Generated_Source\PSoC4/cyfitter_cfg.c **** *
 270:Generated_Source\PSoC4/cyfitter_cfg.c **** * Summary:
 271:Generated_Source\PSoC4/cyfitter_cfg.c **** *  Sets up the analog portions of the chip to default values based on chip
 272:Generated_Source\PSoC4/cyfitter_cfg.c **** *  configuration options from the project.
 273:Generated_Source\PSoC4/cyfitter_cfg.c **** *
 274:Generated_Source\PSoC4/cyfitter_cfg.c **** * Parameters:
 275:Generated_Source\PSoC4/cyfitter_cfg.c **** *  void
 276:Generated_Source\PSoC4/cyfitter_cfg.c **** *
 277:Generated_Source\PSoC4/cyfitter_cfg.c **** * Return:
 278:Generated_Source\PSoC4/cyfitter_cfg.c **** *  void
 279:Generated_Source\PSoC4/cyfitter_cfg.c **** *
 280:Generated_Source\PSoC4/cyfitter_cfg.c **** *******************************************************************************/
 281:Generated_Source\PSoC4/cyfitter_cfg.c **** static void AnalogSetDefault(void);
 282:Generated_Source\PSoC4/cyfitter_cfg.c **** static void AnalogSetDefault(void)
 283:Generated_Source\PSoC4/cyfitter_cfg.c **** {
 104              		.loc 1 283 0
 105              		.cfi_startproc
 106              		@ args = 0, pretend = 0, frame = 0
 107              		@ frame_needed = 0, uses_anonymous_args = 0
 108              		@ link register save eliminated.
 284:Generated_Source\PSoC4/cyfitter_cfg.c **** 	CY_SET_XTND_REG32((void CYFAR *)CYREG_CTBM0_DFT_CTRL, 0x00000003u);
 109              		.loc 1 284 0
 110 0000 0323     		movs	r3, #3
 111 0002 044A     		ldr	r2, .L7
 112 0004 1360     		str	r3, [r2]
ARM GAS  C:\Users\austc\AppData\Local\Temp\ccOBcOmj.s 			page 8


 285:Generated_Source\PSoC4/cyfitter_cfg.c **** 	CY_SET_XTND_REG32((void CYFAR *)CYREG_CTBM1_DFT_CTRL, 0x00000003u);
 113              		.loc 1 285 0
 114 0006 044A     		ldr	r2, .L7+4
 115 0008 1360     		str	r3, [r2]
 286:Generated_Source\PSoC4/cyfitter_cfg.c **** 	CY_SET_XTND_REG32((void CYFAR *)CYREG_PASS_DSAB_DSAB_CTRL, 0x00000000u);
 116              		.loc 1 286 0
 117 000a 0022     		movs	r2, #0
 118 000c 034B     		ldr	r3, .L7+8
 119 000e 1A60     		str	r2, [r3]
 287:Generated_Source\PSoC4/cyfitter_cfg.c **** }
 120              		.loc 1 287 0
 121              		@ sp needed
 122 0010 7047     		bx	lr
 123              	.L8:
 124 0012 C046     		.align	2
 125              	.L7:
 126 0014 30003040 		.word	1076887600
 127 0018 30003140 		.word	1076953136
 128 001c 000E3F40 		.word	1077874176
 129              		.cfi_endproc
 130              	.LFE39:
 131              		.size	AnalogSetDefault, .-AnalogSetDefault
 132              		.section	.text.CYMEMZERO,"ax",%progbits
 133              		.align	2
 134              		.code	16
 135              		.thumb_func
 136              		.type	CYMEMZERO, %function
 137              	CYMEMZERO:
 138              	.LFB34:
  77:Generated_Source\PSoC4/cyfitter_cfg.c **** 	(void)memset(s, 0, n);
 139              		.loc 1 77 0
 140              		.cfi_startproc
 141              		@ args = 0, pretend = 0, frame = 0
 142              		@ frame_needed = 0, uses_anonymous_args = 0
 143              	.LVL12:
 144 0000 10B5     		push	{r4, lr}
 145              		.cfi_def_cfa_offset 8
 146              		.cfi_offset 4, -8
 147              		.cfi_offset 14, -4
 148 0002 0A00     		movs	r2, r1
  78:Generated_Source\PSoC4/cyfitter_cfg.c **** }
 149              		.loc 1 78 0
 150 0004 0021     		movs	r1, #0
 151              	.LVL13:
 152 0006 FFF7FEFF 		bl	memset
 153              	.LVL14:
  79:Generated_Source\PSoC4/cyfitter_cfg.c **** CY_CFG_UNUSED
 154              		.loc 1 79 0
 155              		@ sp needed
 156 000a 10BD     		pop	{r4, pc}
 157              		.cfi_endproc
 158              	.LFE34:
 159              		.size	CYMEMZERO, .-CYMEMZERO
 160              		.section	.psocinit,"ax",%progbits
 161              		.align	2
 162              		.code	16
 163              		.thumb_func
ARM GAS  C:\Users\austc\AppData\Local\Temp\ccOBcOmj.s 			page 9


 164              		.type	ClockSetup, %function
 165              	ClockSetup:
 166              	.LFB38:
 212:Generated_Source\PSoC4/cyfitter_cfg.c **** 
 167              		.loc 1 212 0
 168              		.cfi_startproc
 169              		@ args = 0, pretend = 0, frame = 0
 170              		@ frame_needed = 0, uses_anonymous_args = 0
 171 0000 70B5     		push	{r4, r5, r6, lr}
 172              		.cfi_def_cfa_offset 16
 173              		.cfi_offset 4, -16
 174              		.cfi_offset 5, -12
 175              		.cfi_offset 6, -8
 176              		.cfi_offset 14, -4
 215:Generated_Source\PSoC4/cyfitter_cfg.c **** 	/* Setup and trim IMO based on desired frequency. */
 177              		.loc 1 215 0
 178 0002 1222     		movs	r2, #18
 179 0004 244B     		ldr	r3, .L11
 180 0006 1A60     		str	r2, [r3]
 217:Generated_Source\PSoC4/cyfitter_cfg.c **** 	/* CYDEV_WDT_CONFIG Starting address: CYDEV_WDT_CONFIG */
 181              		.loc 1 217 0
 182 0008 3020     		movs	r0, #48
 183 000a FFF7FEFF 		bl	CySysClkWriteImoFreq
 184              	.LVL15:
 219:Generated_Source\PSoC4/cyfitter_cfg.c **** 
 185              		.loc 1 219 0
 186 000e 234C     		ldr	r4, .L11+4
 187 0010 8025     		movs	r5, #128
 188 0012 ED05     		lsls	r5, r5, #23
 189 0014 2560     		str	r5, [r4]
 223:Generated_Source\PSoC4/cyfitter_cfg.c **** 	CY_SET_REG32((void *)CYREG_PERI_DIV_CMD, 0x8000FF40u);
 190              		.loc 1 223 0
 191 0016 0022     		movs	r2, #0
 192 0018 214B     		ldr	r3, .L11+8
 193 001a 1A60     		str	r2, [r3]
 224:Generated_Source\PSoC4/cyfitter_cfg.c **** 	CY_SET_REG32((void *)CYREG_PERI_DIV_16_CTL2, 0x00000100u);
 194              		.loc 1 224 0
 195 001c 214B     		ldr	r3, .L11+12
 196 001e 224A     		ldr	r2, .L11+16
 197 0020 1A60     		str	r2, [r3]
 225:Generated_Source\PSoC4/cyfitter_cfg.c **** 	CY_SET_REG32((void *)CYREG_PERI_DIV_CMD, 0x8000FF42u);
 198              		.loc 1 225 0
 199 0022 8022     		movs	r2, #128
 200 0024 5200     		lsls	r2, r2, #1
 201 0026 2149     		ldr	r1, .L11+20
 202 0028 0A60     		str	r2, [r1]
 226:Generated_Source\PSoC4/cyfitter_cfg.c **** 	CY_SET_REG32((void *)CYREG_PERI_DIV_24_5_CTL, 0x061A7F00u);
 203              		.loc 1 226 0
 204 002a 2149     		ldr	r1, .L11+24
 205 002c 1960     		str	r1, [r3]
 227:Generated_Source\PSoC4/cyfitter_cfg.c **** 	CY_SET_REG32((void *)CYREG_PERI_DIV_CMD, 0x8000FFC0u);
 206              		.loc 1 227 0
 207 002e 2148     		ldr	r0, .L11+28
 208 0030 2149     		ldr	r1, .L11+32
 209 0032 0860     		str	r0, [r1]
 228:Generated_Source\PSoC4/cyfitter_cfg.c **** 	CY_SET_REG32((void *)CYREG_PERI_DIV_16_CTL1, 0x00000100u);
 210              		.loc 1 228 0
ARM GAS  C:\Users\austc\AppData\Local\Temp\ccOBcOmj.s 			page 10


 211 0034 2149     		ldr	r1, .L11+36
 212 0036 1960     		str	r1, [r3]
 229:Generated_Source\PSoC4/cyfitter_cfg.c **** 	CY_SET_REG32((void *)CYREG_PERI_DIV_CMD, 0x8000FF41u);
 213              		.loc 1 229 0
 214 0038 2149     		ldr	r1, .L11+40
 215 003a 0A60     		str	r2, [r1]
 230:Generated_Source\PSoC4/cyfitter_cfg.c **** 	CY_SET_REG32((void *)CYREG_PERI_DIV_16_CTL3, 0x00000300u);
 216              		.loc 1 230 0
 217 003c 214A     		ldr	r2, .L11+44
 218 003e 1A60     		str	r2, [r3]
 231:Generated_Source\PSoC4/cyfitter_cfg.c **** 	CY_SET_REG32((void *)CYREG_PERI_DIV_CMD, 0x8000FF43u);
 219              		.loc 1 231 0
 220 0040 C021     		movs	r1, #192
 221 0042 8900     		lsls	r1, r1, #2
 222 0044 204A     		ldr	r2, .L11+48
 223 0046 1160     		str	r1, [r2]
 232:Generated_Source\PSoC4/cyfitter_cfg.c **** 	CY_SET_REG32((void *)CYREG_PERI_DIV_16_CTL4, 0x00001C00u);
 224              		.loc 1 232 0
 225 0048 204A     		ldr	r2, .L11+52
 226 004a 1A60     		str	r2, [r3]
 233:Generated_Source\PSoC4/cyfitter_cfg.c **** 	CY_SET_REG32((void *)CYREG_PERI_DIV_CMD, 0x8000FF44u);
 227              		.loc 1 233 0
 228 004c E021     		movs	r1, #224
 229 004e 4901     		lsls	r1, r1, #5
 230 0050 1F4A     		ldr	r2, .L11+56
 231 0052 1160     		str	r1, [r2]
 234:Generated_Source\PSoC4/cyfitter_cfg.c **** 
 232              		.loc 1 234 0
 233 0054 1F4A     		ldr	r2, .L11+60
 234 0056 1A60     		str	r2, [r3]
 237:Generated_Source\PSoC4/cyfitter_cfg.c **** 
 235              		.loc 1 237 0
 236 0058 8022     		movs	r2, #128
 237 005a 1206     		lsls	r2, r2, #24
 238 005c 1E4B     		ldr	r3, .L11+64
 239 005e 1A60     		str	r2, [r3]
 240:Generated_Source\PSoC4/cyfitter_cfg.c **** 
 240              		.loc 1 240 0
 241 0060 1E4A     		ldr	r2, .L11+68
 242 0062 1F4B     		ldr	r3, .L11+72
 243 0064 1A60     		str	r2, [r3]
 243:Generated_Source\PSoC4/cyfitter_cfg.c **** 
 244              		.loc 1 243 0
 245 0066 4222     		movs	r2, #66
 246 0068 1E4B     		ldr	r3, .L11+76
 247 006a 1A60     		str	r2, [r3]
 246:Generated_Source\PSoC4/cyfitter_cfg.c **** 
 248              		.loc 1 246 0
 249 006c 7E32     		adds	r2, r2, #126
 250 006e 1E4B     		ldr	r3, .L11+80
 251 0070 1A60     		str	r2, [r3]
 249:Generated_Source\PSoC4/cyfitter_cfg.c **** 
 252              		.loc 1 249 0
 253 0072 7F3A     		subs	r2, r2, #127
 254 0074 1D4B     		ldr	r3, .L11+84
 255 0076 1A60     		str	r2, [r3]
 252:Generated_Source\PSoC4/cyfitter_cfg.c **** 
ARM GAS  C:\Users\austc\AppData\Local\Temp\ccOBcOmj.s 			page 11


 256              		.loc 1 252 0
 257 0078 0232     		adds	r2, r2, #2
 258 007a 1D4B     		ldr	r3, .L11+88
 259 007c 1A60     		str	r2, [r3]
 255:Generated_Source\PSoC4/cyfitter_cfg.c **** 
 260              		.loc 1 255 0
 261 007e 0132     		adds	r2, r2, #1
 262 0080 1C4B     		ldr	r3, .L11+92
 263 0082 1A60     		str	r2, [r3]
 257:Generated_Source\PSoC4/cyfitter_cfg.c **** 	CyIntEnable(8u);
 264              		.loc 1 257 0
 265 0084 1C49     		ldr	r1, .L11+96
 266 0086 0820     		movs	r0, #8
 267 0088 FFF7FEFF 		bl	CyIntSetVector
 268              	.LVL16:
 258:Generated_Source\PSoC4/cyfitter_cfg.c **** 	CY_SET_REG32((void *)(CYREG_WDT_CONFIG), 0x40000000u);
 269              		.loc 1 258 0
 270 008c 0820     		movs	r0, #8
 271 008e FFF7FEFF 		bl	CyIntEnable
 272              	.LVL17:
 259:Generated_Source\PSoC4/cyfitter_cfg.c **** }
 273              		.loc 1 259 0
 274 0092 2560     		str	r5, [r4]
 260:Generated_Source\PSoC4/cyfitter_cfg.c **** 
 275              		.loc 1 260 0
 276              		@ sp needed
 277 0094 70BD     		pop	{r4, r5, r6, pc}
 278              	.L12:
 279 0096 C046     		.align	2
 280              	.L11:
 281 0098 30001040 		.word	1074790448
 282 009c 0C020B40 		.word	1074463244
 283 00a0 00030140 		.word	1073808128
 284 00a4 00000140 		.word	1073807360
 285 00a8 40FF0080 		.word	-2147418304
 286 00ac 08030140 		.word	1073808136
 287 00b0 42FF0080 		.word	-2147418302
 288 00b4 007F1A06 		.word	102399744
 289 00b8 00050140 		.word	1073808640
 290 00bc C0FF0080 		.word	-2147418176
 291 00c0 04030140 		.word	1073808132
 292 00c4 41FF0080 		.word	-2147418303
 293 00c8 0C030140 		.word	1073808140
 294 00cc 43FF0080 		.word	-2147418301
 295 00d0 10030140 		.word	1073808144
 296 00d4 44FF0080 		.word	-2147418300
 297 00d8 08010B40 		.word	1074462984
 298 00dc 49020600 		.word	393801
 299 00e0 00010B40 		.word	1074462976
 300 00e4 58010140 		.word	1073807704
 301 00e8 54010140 		.word	1073807700
 302 00ec 50010140 		.word	1073807696
 303 00f0 2C010140 		.word	1073807660
 304 00f4 0C010140 		.word	1073807628
 305 00f8 00000000 		.word	CySysWdtIsr
 306              		.cfi_endproc
 307              	.LFE38:
ARM GAS  C:\Users\austc\AppData\Local\Temp\ccOBcOmj.s 			page 12


 308              		.size	ClockSetup, .-ClockSetup
 309              		.align	2
 310              		.global	cyfitter_cfg
 311              		.code	16
 312              		.thumb_func
 313              		.type	cyfitter_cfg, %function
 314              	cyfitter_cfg:
 315              	.LFB40:
 288:Generated_Source\PSoC4/cyfitter_cfg.c **** 
 289:Generated_Source\PSoC4/cyfitter_cfg.c **** 
 290:Generated_Source\PSoC4/cyfitter_cfg.c **** 
 291:Generated_Source\PSoC4/cyfitter_cfg.c **** 
 292:Generated_Source\PSoC4/cyfitter_cfg.c **** /*******************************************************************************
 293:Generated_Source\PSoC4/cyfitter_cfg.c **** * Function Name: cyfitter_cfg
 294:Generated_Source\PSoC4/cyfitter_cfg.c **** ********************************************************************************
 295:Generated_Source\PSoC4/cyfitter_cfg.c **** * Summary:
 296:Generated_Source\PSoC4/cyfitter_cfg.c **** *  This function is called by the start-up code for the selected device. It
 297:Generated_Source\PSoC4/cyfitter_cfg.c **** *  performs all of the necessary device configuration based on the design
 298:Generated_Source\PSoC4/cyfitter_cfg.c **** *  settings.  This includes settings from the Design Wide Resources (DWR) such
 299:Generated_Source\PSoC4/cyfitter_cfg.c **** *  as Clocks and Pins as well as any component configuration that is necessary.
 300:Generated_Source\PSoC4/cyfitter_cfg.c **** *
 301:Generated_Source\PSoC4/cyfitter_cfg.c **** * Parameters:
 302:Generated_Source\PSoC4/cyfitter_cfg.c **** *   void
 303:Generated_Source\PSoC4/cyfitter_cfg.c **** *
 304:Generated_Source\PSoC4/cyfitter_cfg.c **** * Return:
 305:Generated_Source\PSoC4/cyfitter_cfg.c **** *   void
 306:Generated_Source\PSoC4/cyfitter_cfg.c **** *
 307:Generated_Source\PSoC4/cyfitter_cfg.c **** *******************************************************************************/
 308:Generated_Source\PSoC4/cyfitter_cfg.c **** CY_CFG_SECTION
 309:Generated_Source\PSoC4/cyfitter_cfg.c **** void cyfitter_cfg(void)
 310:Generated_Source\PSoC4/cyfitter_cfg.c **** {
 316              		.loc 1 310 0
 317              		.cfi_startproc
 318              		@ args = 0, pretend = 0, frame = 0
 319              		@ frame_needed = 0, uses_anonymous_args = 0
 320 00fc 10B5     		push	{r4, lr}
 321              		.cfi_def_cfa_offset 8
 322              		.cfi_offset 4, -8
 323              		.cfi_offset 14, -4
 311:Generated_Source\PSoC4/cyfitter_cfg.c **** 	/* Disable interrupts by default. Let user enable if/when they want. */
 312:Generated_Source\PSoC4/cyfitter_cfg.c **** 	CyGlobalIntDisable;
 324              		.loc 1 312 0
 325              		.syntax divided
 326              	@ 312 "Generated_Source\PSoC4\cyfitter_cfg.c" 1
 327 00fe 72B6     		CPSID   i
 328              	@ 0 "" 2
 313:Generated_Source\PSoC4/cyfitter_cfg.c **** 
 314:Generated_Source\PSoC4/cyfitter_cfg.c **** 	/* Enable the clock in the interrupt controller for the routed interrupts */
 315:Generated_Source\PSoC4/cyfitter_cfg.c **** 	CY_SET_REG8((void *)CYREG_UDB_UDB_INT_CLK_CTL, 0x01u);
 329              		.loc 1 315 0
 330              		.thumb
 331              		.syntax unified
 332 0100 0122     		movs	r2, #1
 333 0102 3B4B     		ldr	r3, .L16
 334 0104 1A70     		strb	r2, [r3]
 335              	.LVL18:
 336              	.LBB3:
ARM GAS  C:\Users\austc\AppData\Local\Temp\ccOBcOmj.s 			page 13


 316:Generated_Source\PSoC4/cyfitter_cfg.c **** 	{
 317:Generated_Source\PSoC4/cyfitter_cfg.c **** 		static const uint32 CYCODE cy_cfg_addr_table[] = {
 318:Generated_Source\PSoC4/cyfitter_cfg.c **** 			0x400F0004u, /* Base address: 0x400F0000 Count: 4 */
 319:Generated_Source\PSoC4/cyfitter_cfg.c **** 			0x400F305Au, /* Base address: 0x400F3000 Count: 90 */
 320:Generated_Source\PSoC4/cyfitter_cfg.c **** 			0x400F312Fu, /* Base address: 0x400F3100 Count: 47 */
 321:Generated_Source\PSoC4/cyfitter_cfg.c **** 			0x400F324Au, /* Base address: 0x400F3200 Count: 74 */
 322:Generated_Source\PSoC4/cyfitter_cfg.c **** 			0x400F333Bu, /* Base address: 0x400F3300 Count: 59 */
 323:Generated_Source\PSoC4/cyfitter_cfg.c **** 			0x400F345Au, /* Base address: 0x400F3400 Count: 90 */
 324:Generated_Source\PSoC4/cyfitter_cfg.c **** 			0x400F3541u, /* Base address: 0x400F3500 Count: 65 */
 325:Generated_Source\PSoC4/cyfitter_cfg.c **** 			0x400F3639u, /* Base address: 0x400F3600 Count: 57 */
 326:Generated_Source\PSoC4/cyfitter_cfg.c **** 			0x400F3739u, /* Base address: 0x400F3700 Count: 57 */
 327:Generated_Source\PSoC4/cyfitter_cfg.c **** 			0x400F4005u, /* Base address: 0x400F4000 Count: 5 */
 328:Generated_Source\PSoC4/cyfitter_cfg.c **** 			0x400F4104u, /* Base address: 0x400F4100 Count: 4 */
 329:Generated_Source\PSoC4/cyfitter_cfg.c **** 			0x400F420Bu, /* Base address: 0x400F4200 Count: 11 */
 330:Generated_Source\PSoC4/cyfitter_cfg.c **** 			0x400F4302u, /* Base address: 0x400F4300 Count: 2 */
 331:Generated_Source\PSoC4/cyfitter_cfg.c **** 			0x400F4503u, /* Base address: 0x400F4500 Count: 3 */
 332:Generated_Source\PSoC4/cyfitter_cfg.c **** 			0x400F4604u, /* Base address: 0x400F4600 Count: 4 */
 333:Generated_Source\PSoC4/cyfitter_cfg.c **** 			0x400F6003u, /* Base address: 0x400F6000 Count: 3 */
 334:Generated_Source\PSoC4/cyfitter_cfg.c **** 		};
 335:Generated_Source\PSoC4/cyfitter_cfg.c **** 
 336:Generated_Source\PSoC4/cyfitter_cfg.c **** 		static const cy_cfg_addrvalue_t CYCODE cy_cfg_data_table[] = {
 337:Generated_Source\PSoC4/cyfitter_cfg.c **** 			{0x81u, 0x0Du},
 338:Generated_Source\PSoC4/cyfitter_cfg.c **** 			{0x84u, 0x03u},
 339:Generated_Source\PSoC4/cyfitter_cfg.c **** 			{0x86u, 0x6Fu},
 340:Generated_Source\PSoC4/cyfitter_cfg.c **** 			{0x87u, 0x0Fu},
 341:Generated_Source\PSoC4/cyfitter_cfg.c **** 			{0x01u, 0x02u},
 342:Generated_Source\PSoC4/cyfitter_cfg.c **** 			{0x03u, 0x04u},
 343:Generated_Source\PSoC4/cyfitter_cfg.c **** 			{0x0Eu, 0x01u},
 344:Generated_Source\PSoC4/cyfitter_cfg.c **** 			{0x15u, 0x04u},
 345:Generated_Source\PSoC4/cyfitter_cfg.c **** 			{0x17u, 0x02u},
 346:Generated_Source\PSoC4/cyfitter_cfg.c **** 			{0x19u, 0x02u},
 347:Generated_Source\PSoC4/cyfitter_cfg.c **** 			{0x1Bu, 0x04u},
 348:Generated_Source\PSoC4/cyfitter_cfg.c **** 			{0x21u, 0x02u},
 349:Generated_Source\PSoC4/cyfitter_cfg.c **** 			{0x23u, 0x05u},
 350:Generated_Source\PSoC4/cyfitter_cfg.c **** 			{0x26u, 0x02u},
 351:Generated_Source\PSoC4/cyfitter_cfg.c **** 			{0x30u, 0x01u},
 352:Generated_Source\PSoC4/cyfitter_cfg.c **** 			{0x33u, 0x06u},
 353:Generated_Source\PSoC4/cyfitter_cfg.c **** 			{0x35u, 0x01u},
 354:Generated_Source\PSoC4/cyfitter_cfg.c **** 			{0x36u, 0x02u},
 355:Generated_Source\PSoC4/cyfitter_cfg.c **** 			{0x3Bu, 0x08u},
 356:Generated_Source\PSoC4/cyfitter_cfg.c **** 			{0x40u, 0x54u},
 357:Generated_Source\PSoC4/cyfitter_cfg.c **** 			{0x49u, 0xFFu},
 358:Generated_Source\PSoC4/cyfitter_cfg.c **** 			{0x4Au, 0xFFu},
 359:Generated_Source\PSoC4/cyfitter_cfg.c **** 			{0x4Bu, 0xFFu},
 360:Generated_Source\PSoC4/cyfitter_cfg.c **** 			{0x4Fu, 0x01u},
 361:Generated_Source\PSoC4/cyfitter_cfg.c **** 			{0x50u, 0x18u},
 362:Generated_Source\PSoC4/cyfitter_cfg.c **** 			{0x52u, 0x80u},
 363:Generated_Source\PSoC4/cyfitter_cfg.c **** 			{0x58u, 0x04u},
 364:Generated_Source\PSoC4/cyfitter_cfg.c **** 			{0x59u, 0x04u},
 365:Generated_Source\PSoC4/cyfitter_cfg.c **** 			{0x5Au, 0x04u},
 366:Generated_Source\PSoC4/cyfitter_cfg.c **** 			{0x5Bu, 0x04u},
 367:Generated_Source\PSoC4/cyfitter_cfg.c **** 			{0x5Cu, 0x11u},
 368:Generated_Source\PSoC4/cyfitter_cfg.c **** 			{0x5Du, 0x33u},
 369:Generated_Source\PSoC4/cyfitter_cfg.c **** 			{0x5Fu, 0x01u},
 370:Generated_Source\PSoC4/cyfitter_cfg.c **** 			{0x60u, 0x40u},
 371:Generated_Source\PSoC4/cyfitter_cfg.c **** 			{0x62u, 0x40u},
 372:Generated_Source\PSoC4/cyfitter_cfg.c **** 			{0x64u, 0x40u},
ARM GAS  C:\Users\austc\AppData\Local\Temp\ccOBcOmj.s 			page 14


 373:Generated_Source\PSoC4/cyfitter_cfg.c **** 			{0x65u, 0x40u},
 374:Generated_Source\PSoC4/cyfitter_cfg.c **** 			{0x66u, 0x80u},
 375:Generated_Source\PSoC4/cyfitter_cfg.c **** 			{0x68u, 0x80u},
 376:Generated_Source\PSoC4/cyfitter_cfg.c **** 			{0x6Au, 0x80u},
 377:Generated_Source\PSoC4/cyfitter_cfg.c **** 			{0x6Cu, 0x80u},
 378:Generated_Source\PSoC4/cyfitter_cfg.c **** 			{0x6Eu, 0x80u},
 379:Generated_Source\PSoC4/cyfitter_cfg.c **** 			{0x80u, 0x16u},
 380:Generated_Source\PSoC4/cyfitter_cfg.c **** 			{0x81u, 0x0Cu},
 381:Generated_Source\PSoC4/cyfitter_cfg.c **** 			{0x82u, 0x08u},
 382:Generated_Source\PSoC4/cyfitter_cfg.c **** 			{0x83u, 0x01u},
 383:Generated_Source\PSoC4/cyfitter_cfg.c **** 			{0x85u, 0x07u},
 384:Generated_Source\PSoC4/cyfitter_cfg.c **** 			{0x88u, 0x10u},
 385:Generated_Source\PSoC4/cyfitter_cfg.c **** 			{0x8Au, 0x02u},
 386:Generated_Source\PSoC4/cyfitter_cfg.c **** 			{0x8Cu, 0x18u},
 387:Generated_Source\PSoC4/cyfitter_cfg.c **** 			{0x8Du, 0x08u},
 388:Generated_Source\PSoC4/cyfitter_cfg.c **** 			{0x8Eu, 0x04u},
 389:Generated_Source\PSoC4/cyfitter_cfg.c **** 			{0x8Fu, 0x01u},
 390:Generated_Source\PSoC4/cyfitter_cfg.c **** 			{0x91u, 0x0Cu},
 391:Generated_Source\PSoC4/cyfitter_cfg.c **** 			{0x92u, 0x1Eu},
 392:Generated_Source\PSoC4/cyfitter_cfg.c **** 			{0x93u, 0x02u},
 393:Generated_Source\PSoC4/cyfitter_cfg.c **** 			{0x97u, 0x0Fu},
 394:Generated_Source\PSoC4/cyfitter_cfg.c **** 			{0x98u, 0x0Eu},
 395:Generated_Source\PSoC4/cyfitter_cfg.c **** 			{0x9Eu, 0x01u},
 396:Generated_Source\PSoC4/cyfitter_cfg.c **** 			{0xA2u, 0x01u},
 397:Generated_Source\PSoC4/cyfitter_cfg.c **** 			{0xACu, 0x18u},
 398:Generated_Source\PSoC4/cyfitter_cfg.c **** 			{0xADu, 0x0Bu},
 399:Generated_Source\PSoC4/cyfitter_cfg.c **** 			{0xAEu, 0x02u},
 400:Generated_Source\PSoC4/cyfitter_cfg.c **** 			{0xAFu, 0x04u},
 401:Generated_Source\PSoC4/cyfitter_cfg.c **** 			{0xB0u, 0x01u},
 402:Generated_Source\PSoC4/cyfitter_cfg.c **** 			{0xB1u, 0x0Fu},
 403:Generated_Source\PSoC4/cyfitter_cfg.c **** 			{0xB6u, 0x1Eu},
 404:Generated_Source\PSoC4/cyfitter_cfg.c **** 			{0xBEu, 0x01u},
 405:Generated_Source\PSoC4/cyfitter_cfg.c **** 			{0xC0u, 0x54u},
 406:Generated_Source\PSoC4/cyfitter_cfg.c **** 			{0xC9u, 0xFFu},
 407:Generated_Source\PSoC4/cyfitter_cfg.c **** 			{0xCAu, 0xFFu},
 408:Generated_Source\PSoC4/cyfitter_cfg.c **** 			{0xCBu, 0xFFu},
 409:Generated_Source\PSoC4/cyfitter_cfg.c **** 			{0xCDu, 0x83u},
 410:Generated_Source\PSoC4/cyfitter_cfg.c **** 			{0xCEu, 0x03u},
 411:Generated_Source\PSoC4/cyfitter_cfg.c **** 			{0xCFu, 0x01u},
 412:Generated_Source\PSoC4/cyfitter_cfg.c **** 			{0xD0u, 0x18u},
 413:Generated_Source\PSoC4/cyfitter_cfg.c **** 			{0xD4u, 0x01u},
 414:Generated_Source\PSoC4/cyfitter_cfg.c **** 			{0xD6u, 0x04u},
 415:Generated_Source\PSoC4/cyfitter_cfg.c **** 			{0xD8u, 0x04u},
 416:Generated_Source\PSoC4/cyfitter_cfg.c **** 			{0xD9u, 0x04u},
 417:Generated_Source\PSoC4/cyfitter_cfg.c **** 			{0xDAu, 0x04u},
 418:Generated_Source\PSoC4/cyfitter_cfg.c **** 			{0xDBu, 0x04u},
 419:Generated_Source\PSoC4/cyfitter_cfg.c **** 			{0xDCu, 0x11u},
 420:Generated_Source\PSoC4/cyfitter_cfg.c **** 			{0xDDu, 0x33u},
 421:Generated_Source\PSoC4/cyfitter_cfg.c **** 			{0xDFu, 0x01u},
 422:Generated_Source\PSoC4/cyfitter_cfg.c **** 			{0xE0u, 0x40u},
 423:Generated_Source\PSoC4/cyfitter_cfg.c **** 			{0xE2u, 0x40u},
 424:Generated_Source\PSoC4/cyfitter_cfg.c **** 			{0xE4u, 0x40u},
 425:Generated_Source\PSoC4/cyfitter_cfg.c **** 			{0xE5u, 0x40u},
 426:Generated_Source\PSoC4/cyfitter_cfg.c **** 			{0xE6u, 0x80u},
 427:Generated_Source\PSoC4/cyfitter_cfg.c **** 			{0xE8u, 0x80u},
 428:Generated_Source\PSoC4/cyfitter_cfg.c **** 			{0xEAu, 0x80u},
 429:Generated_Source\PSoC4/cyfitter_cfg.c **** 			{0xECu, 0x80u},
ARM GAS  C:\Users\austc\AppData\Local\Temp\ccOBcOmj.s 			page 15


 430:Generated_Source\PSoC4/cyfitter_cfg.c **** 			{0xEEu, 0x80u},
 431:Generated_Source\PSoC4/cyfitter_cfg.c **** 			{0x03u, 0x02u},
 432:Generated_Source\PSoC4/cyfitter_cfg.c **** 			{0x04u, 0x10u},
 433:Generated_Source\PSoC4/cyfitter_cfg.c **** 			{0x05u, 0x40u},
 434:Generated_Source\PSoC4/cyfitter_cfg.c **** 			{0x07u, 0x80u},
 435:Generated_Source\PSoC4/cyfitter_cfg.c **** 			{0x0Du, 0x21u},
 436:Generated_Source\PSoC4/cyfitter_cfg.c **** 			{0x0Eu, 0x02u},
 437:Generated_Source\PSoC4/cyfitter_cfg.c **** 			{0x13u, 0x08u},
 438:Generated_Source\PSoC4/cyfitter_cfg.c **** 			{0x16u, 0x80u},
 439:Generated_Source\PSoC4/cyfitter_cfg.c **** 			{0x17u, 0x40u},
 440:Generated_Source\PSoC4/cyfitter_cfg.c **** 			{0x18u, 0x01u},
 441:Generated_Source\PSoC4/cyfitter_cfg.c **** 			{0x19u, 0x01u},
 442:Generated_Source\PSoC4/cyfitter_cfg.c **** 			{0x1Du, 0x40u},
 443:Generated_Source\PSoC4/cyfitter_cfg.c **** 			{0x1Eu, 0x41u},
 444:Generated_Source\PSoC4/cyfitter_cfg.c **** 			{0x1Fu, 0x40u},
 445:Generated_Source\PSoC4/cyfitter_cfg.c **** 			{0x20u, 0x10u},
 446:Generated_Source\PSoC4/cyfitter_cfg.c **** 			{0x22u, 0x18u},
 447:Generated_Source\PSoC4/cyfitter_cfg.c **** 			{0x23u, 0x08u},
 448:Generated_Source\PSoC4/cyfitter_cfg.c **** 			{0x26u, 0x02u},
 449:Generated_Source\PSoC4/cyfitter_cfg.c **** 			{0x27u, 0x40u},
 450:Generated_Source\PSoC4/cyfitter_cfg.c **** 			{0x29u, 0x01u},
 451:Generated_Source\PSoC4/cyfitter_cfg.c **** 			{0x2Du, 0x80u},
 452:Generated_Source\PSoC4/cyfitter_cfg.c **** 			{0x32u, 0x18u},
 453:Generated_Source\PSoC4/cyfitter_cfg.c **** 			{0x36u, 0x0Au},
 454:Generated_Source\PSoC4/cyfitter_cfg.c **** 			{0x38u, 0x01u},
 455:Generated_Source\PSoC4/cyfitter_cfg.c **** 			{0x3Cu, 0x88u},
 456:Generated_Source\PSoC4/cyfitter_cfg.c **** 			{0x3Eu, 0x01u},
 457:Generated_Source\PSoC4/cyfitter_cfg.c **** 			{0x42u, 0x80u},
 458:Generated_Source\PSoC4/cyfitter_cfg.c **** 			{0x46u, 0x80u},
 459:Generated_Source\PSoC4/cyfitter_cfg.c **** 			{0x48u, 0x02u},
 460:Generated_Source\PSoC4/cyfitter_cfg.c **** 			{0x4Au, 0x01u},
 461:Generated_Source\PSoC4/cyfitter_cfg.c **** 			{0x4Cu, 0x02u},
 462:Generated_Source\PSoC4/cyfitter_cfg.c **** 			{0x5Du, 0x01u},
 463:Generated_Source\PSoC4/cyfitter_cfg.c **** 			{0x5Eu, 0x40u},
 464:Generated_Source\PSoC4/cyfitter_cfg.c **** 			{0x5Fu, 0x04u},
 465:Generated_Source\PSoC4/cyfitter_cfg.c **** 			{0x64u, 0x40u},
 466:Generated_Source\PSoC4/cyfitter_cfg.c **** 			{0x70u, 0x02u},
 467:Generated_Source\PSoC4/cyfitter_cfg.c **** 			{0x84u, 0x40u},
 468:Generated_Source\PSoC4/cyfitter_cfg.c **** 			{0xC0u, 0xD1u},
 469:Generated_Source\PSoC4/cyfitter_cfg.c **** 			{0xC2u, 0xD0u},
 470:Generated_Source\PSoC4/cyfitter_cfg.c **** 			{0xC4u, 0x94u},
 471:Generated_Source\PSoC4/cyfitter_cfg.c **** 			{0xCAu, 0x11u},
 472:Generated_Source\PSoC4/cyfitter_cfg.c **** 			{0xCCu, 0xC6u},
 473:Generated_Source\PSoC4/cyfitter_cfg.c **** 			{0xCEu, 0xD1u},
 474:Generated_Source\PSoC4/cyfitter_cfg.c **** 			{0xD0u, 0x81u},
 475:Generated_Source\PSoC4/cyfitter_cfg.c **** 			{0xD2u, 0x18u},
 476:Generated_Source\PSoC4/cyfitter_cfg.c **** 			{0xD6u, 0xD0u},
 477:Generated_Source\PSoC4/cyfitter_cfg.c **** 			{0xD8u, 0x80u},
 478:Generated_Source\PSoC4/cyfitter_cfg.c **** 			{0x00u, 0xC5u},
 479:Generated_Source\PSoC4/cyfitter_cfg.c **** 			{0x01u, 0x30u},
 480:Generated_Source\PSoC4/cyfitter_cfg.c **** 			{0x02u, 0x3Au},
 481:Generated_Source\PSoC4/cyfitter_cfg.c **** 			{0x03u, 0x0Cu},
 482:Generated_Source\PSoC4/cyfitter_cfg.c **** 			{0x05u, 0x1Cu},
 483:Generated_Source\PSoC4/cyfitter_cfg.c **** 			{0x08u, 0x96u},
 484:Generated_Source\PSoC4/cyfitter_cfg.c **** 			{0x0Au, 0x68u},
 485:Generated_Source\PSoC4/cyfitter_cfg.c **** 			{0x0Cu, 0xFEu},
 486:Generated_Source\PSoC4/cyfitter_cfg.c **** 			{0x0Du, 0x0Cu},
ARM GAS  C:\Users\austc\AppData\Local\Temp\ccOBcOmj.s 			page 16


 487:Generated_Source\PSoC4/cyfitter_cfg.c **** 			{0x0Eu, 0x01u},
 488:Generated_Source\PSoC4/cyfitter_cfg.c **** 			{0x0Fu, 0x30u},
 489:Generated_Source\PSoC4/cyfitter_cfg.c **** 			{0x10u, 0x0Eu},
 490:Generated_Source\PSoC4/cyfitter_cfg.c **** 			{0x11u, 0x28u},
 491:Generated_Source\PSoC4/cyfitter_cfg.c **** 			{0x12u, 0xF0u},
 492:Generated_Source\PSoC4/cyfitter_cfg.c **** 			{0x13u, 0x14u},
 493:Generated_Source\PSoC4/cyfitter_cfg.c **** 			{0x15u, 0x14u},
 494:Generated_Source\PSoC4/cyfitter_cfg.c **** 			{0x16u, 0x01u},
 495:Generated_Source\PSoC4/cyfitter_cfg.c **** 			{0x17u, 0x28u},
 496:Generated_Source\PSoC4/cyfitter_cfg.c **** 			{0x18u, 0x7Fu},
 497:Generated_Source\PSoC4/cyfitter_cfg.c **** 			{0x1Cu, 0xA3u},
 498:Generated_Source\PSoC4/cyfitter_cfg.c **** 			{0x1Du, 0x3Cu},
 499:Generated_Source\PSoC4/cyfitter_cfg.c **** 			{0x1Eu, 0x5Cu},
 500:Generated_Source\PSoC4/cyfitter_cfg.c **** 			{0x27u, 0x01u},
 501:Generated_Source\PSoC4/cyfitter_cfg.c **** 			{0x2Bu, 0x02u},
 502:Generated_Source\PSoC4/cyfitter_cfg.c **** 			{0x31u, 0x3Cu},
 503:Generated_Source\PSoC4/cyfitter_cfg.c **** 			{0x32u, 0xFFu},
 504:Generated_Source\PSoC4/cyfitter_cfg.c **** 			{0x33u, 0x02u},
 505:Generated_Source\PSoC4/cyfitter_cfg.c **** 			{0x37u, 0x01u},
 506:Generated_Source\PSoC4/cyfitter_cfg.c **** 			{0x3Eu, 0x04u},
 507:Generated_Source\PSoC4/cyfitter_cfg.c **** 			{0x40u, 0x54u},
 508:Generated_Source\PSoC4/cyfitter_cfg.c **** 			{0x45u, 0xECu},
 509:Generated_Source\PSoC4/cyfitter_cfg.c **** 			{0x46u, 0x02u},
 510:Generated_Source\PSoC4/cyfitter_cfg.c **** 			{0x48u, 0x07u},
 511:Generated_Source\PSoC4/cyfitter_cfg.c **** 			{0x49u, 0xFFu},
 512:Generated_Source\PSoC4/cyfitter_cfg.c **** 			{0x4Au, 0xFFu},
 513:Generated_Source\PSoC4/cyfitter_cfg.c **** 			{0x4Bu, 0xFFu},
 514:Generated_Source\PSoC4/cyfitter_cfg.c **** 			{0x4Du, 0x83u},
 515:Generated_Source\PSoC4/cyfitter_cfg.c **** 			{0x4Eu, 0x03u},
 516:Generated_Source\PSoC4/cyfitter_cfg.c **** 			{0x4Fu, 0x01u},
 517:Generated_Source\PSoC4/cyfitter_cfg.c **** 			{0x50u, 0x18u},
 518:Generated_Source\PSoC4/cyfitter_cfg.c **** 			{0x58u, 0x04u},
 519:Generated_Source\PSoC4/cyfitter_cfg.c **** 			{0x59u, 0x04u},
 520:Generated_Source\PSoC4/cyfitter_cfg.c **** 			{0x5Au, 0x04u},
 521:Generated_Source\PSoC4/cyfitter_cfg.c **** 			{0x5Cu, 0x10u},
 522:Generated_Source\PSoC4/cyfitter_cfg.c **** 			{0x5Du, 0x03u},
 523:Generated_Source\PSoC4/cyfitter_cfg.c **** 			{0x5Fu, 0x01u},
 524:Generated_Source\PSoC4/cyfitter_cfg.c **** 			{0x60u, 0x40u},
 525:Generated_Source\PSoC4/cyfitter_cfg.c **** 			{0x62u, 0x40u},
 526:Generated_Source\PSoC4/cyfitter_cfg.c **** 			{0x64u, 0x40u},
 527:Generated_Source\PSoC4/cyfitter_cfg.c **** 			{0x65u, 0x40u},
 528:Generated_Source\PSoC4/cyfitter_cfg.c **** 			{0x66u, 0x80u},
 529:Generated_Source\PSoC4/cyfitter_cfg.c **** 			{0x68u, 0x80u},
 530:Generated_Source\PSoC4/cyfitter_cfg.c **** 			{0x6Au, 0x80u},
 531:Generated_Source\PSoC4/cyfitter_cfg.c **** 			{0x6Cu, 0x80u},
 532:Generated_Source\PSoC4/cyfitter_cfg.c **** 			{0x6Eu, 0x80u},
 533:Generated_Source\PSoC4/cyfitter_cfg.c **** 			{0x81u, 0x02u},
 534:Generated_Source\PSoC4/cyfitter_cfg.c **** 			{0x83u, 0x01u},
 535:Generated_Source\PSoC4/cyfitter_cfg.c **** 			{0x9Du, 0x01u},
 536:Generated_Source\PSoC4/cyfitter_cfg.c **** 			{0x9Eu, 0x02u},
 537:Generated_Source\PSoC4/cyfitter_cfg.c **** 			{0x9Fu, 0x02u},
 538:Generated_Source\PSoC4/cyfitter_cfg.c **** 			{0xA9u, 0x01u},
 539:Generated_Source\PSoC4/cyfitter_cfg.c **** 			{0xABu, 0x02u},
 540:Generated_Source\PSoC4/cyfitter_cfg.c **** 			{0xADu, 0x01u},
 541:Generated_Source\PSoC4/cyfitter_cfg.c **** 			{0xAEu, 0x01u},
 542:Generated_Source\PSoC4/cyfitter_cfg.c **** 			{0xAFu, 0x02u},
 543:Generated_Source\PSoC4/cyfitter_cfg.c **** 			{0xB1u, 0x03u},
ARM GAS  C:\Users\austc\AppData\Local\Temp\ccOBcOmj.s 			page 17


 544:Generated_Source\PSoC4/cyfitter_cfg.c **** 			{0xB4u, 0x02u},
 545:Generated_Source\PSoC4/cyfitter_cfg.c **** 			{0xB6u, 0x01u},
 546:Generated_Source\PSoC4/cyfitter_cfg.c **** 			{0xBBu, 0x02u},
 547:Generated_Source\PSoC4/cyfitter_cfg.c **** 			{0xD8u, 0x04u},
 548:Generated_Source\PSoC4/cyfitter_cfg.c **** 			{0xD9u, 0x04u},
 549:Generated_Source\PSoC4/cyfitter_cfg.c **** 			{0xDBu, 0x04u},
 550:Generated_Source\PSoC4/cyfitter_cfg.c **** 			{0xDCu, 0x11u},
 551:Generated_Source\PSoC4/cyfitter_cfg.c **** 			{0xDFu, 0x01u},
 552:Generated_Source\PSoC4/cyfitter_cfg.c **** 			{0x04u, 0x90u},
 553:Generated_Source\PSoC4/cyfitter_cfg.c **** 			{0x05u, 0x82u},
 554:Generated_Source\PSoC4/cyfitter_cfg.c **** 			{0x07u, 0x40u},
 555:Generated_Source\PSoC4/cyfitter_cfg.c **** 			{0x0Au, 0x02u},
 556:Generated_Source\PSoC4/cyfitter_cfg.c **** 			{0x0Cu, 0x08u},
 557:Generated_Source\PSoC4/cyfitter_cfg.c **** 			{0x0Du, 0x20u},
 558:Generated_Source\PSoC4/cyfitter_cfg.c **** 			{0x0Eu, 0x21u},
 559:Generated_Source\PSoC4/cyfitter_cfg.c **** 			{0x0Fu, 0x40u},
 560:Generated_Source\PSoC4/cyfitter_cfg.c **** 			{0x11u, 0x80u},
 561:Generated_Source\PSoC4/cyfitter_cfg.c **** 			{0x19u, 0x60u},
 562:Generated_Source\PSoC4/cyfitter_cfg.c **** 			{0x1Au, 0x02u},
 563:Generated_Source\PSoC4/cyfitter_cfg.c **** 			{0x1Fu, 0x08u},
 564:Generated_Source\PSoC4/cyfitter_cfg.c **** 			{0x20u, 0x80u},
 565:Generated_Source\PSoC4/cyfitter_cfg.c **** 			{0x21u, 0x01u},
 566:Generated_Source\PSoC4/cyfitter_cfg.c **** 			{0x23u, 0x40u},
 567:Generated_Source\PSoC4/cyfitter_cfg.c **** 			{0x24u, 0x80u},
 568:Generated_Source\PSoC4/cyfitter_cfg.c **** 			{0x25u, 0xC1u},
 569:Generated_Source\PSoC4/cyfitter_cfg.c **** 			{0x27u, 0x90u},
 570:Generated_Source\PSoC4/cyfitter_cfg.c **** 			{0x29u, 0x60u},
 571:Generated_Source\PSoC4/cyfitter_cfg.c **** 			{0x2Cu, 0x08u},
 572:Generated_Source\PSoC4/cyfitter_cfg.c **** 			{0x2Fu, 0x20u},
 573:Generated_Source\PSoC4/cyfitter_cfg.c **** 			{0x31u, 0x80u},
 574:Generated_Source\PSoC4/cyfitter_cfg.c **** 			{0x35u, 0x02u},
 575:Generated_Source\PSoC4/cyfitter_cfg.c **** 			{0x36u, 0x08u},
 576:Generated_Source\PSoC4/cyfitter_cfg.c **** 			{0x37u, 0x80u},
 577:Generated_Source\PSoC4/cyfitter_cfg.c **** 			{0x39u, 0x02u},
 578:Generated_Source\PSoC4/cyfitter_cfg.c **** 			{0x3Cu, 0x08u},
 579:Generated_Source\PSoC4/cyfitter_cfg.c **** 			{0x3Eu, 0x01u},
 580:Generated_Source\PSoC4/cyfitter_cfg.c **** 			{0x3Fu, 0x40u},
 581:Generated_Source\PSoC4/cyfitter_cfg.c **** 			{0x46u, 0x80u},
 582:Generated_Source\PSoC4/cyfitter_cfg.c **** 			{0x4Cu, 0x02u},
 583:Generated_Source\PSoC4/cyfitter_cfg.c **** 			{0x4Du, 0x01u},
 584:Generated_Source\PSoC4/cyfitter_cfg.c **** 			{0x4Fu, 0x04u},
 585:Generated_Source\PSoC4/cyfitter_cfg.c **** 			{0x56u, 0x80u},
 586:Generated_Source\PSoC4/cyfitter_cfg.c **** 			{0x58u, 0xA0u},
 587:Generated_Source\PSoC4/cyfitter_cfg.c **** 			{0x59u, 0x04u},
 588:Generated_Source\PSoC4/cyfitter_cfg.c **** 			{0x90u, 0x10u},
 589:Generated_Source\PSoC4/cyfitter_cfg.c **** 			{0x92u, 0x01u},
 590:Generated_Source\PSoC4/cyfitter_cfg.c **** 			{0x93u, 0x80u},
 591:Generated_Source\PSoC4/cyfitter_cfg.c **** 			{0x95u, 0x03u},
 592:Generated_Source\PSoC4/cyfitter_cfg.c **** 			{0x97u, 0x04u},
 593:Generated_Source\PSoC4/cyfitter_cfg.c **** 			{0x9Bu, 0x40u},
 594:Generated_Source\PSoC4/cyfitter_cfg.c **** 			{0x9Du, 0x80u},
 595:Generated_Source\PSoC4/cyfitter_cfg.c **** 			{0x9Eu, 0x80u},
 596:Generated_Source\PSoC4/cyfitter_cfg.c **** 			{0x9Fu, 0x80u},
 597:Generated_Source\PSoC4/cyfitter_cfg.c **** 			{0xA0u, 0x02u},
 598:Generated_Source\PSoC4/cyfitter_cfg.c **** 			{0xA2u, 0x08u},
 599:Generated_Source\PSoC4/cyfitter_cfg.c **** 			{0xA4u, 0x44u},
 600:Generated_Source\PSoC4/cyfitter_cfg.c **** 			{0xA5u, 0x20u},
ARM GAS  C:\Users\austc\AppData\Local\Temp\ccOBcOmj.s 			page 18


 601:Generated_Source\PSoC4/cyfitter_cfg.c **** 			{0xA7u, 0x02u},
 602:Generated_Source\PSoC4/cyfitter_cfg.c **** 			{0xC0u, 0xD0u},
 603:Generated_Source\PSoC4/cyfitter_cfg.c **** 			{0xC2u, 0xF1u},
 604:Generated_Source\PSoC4/cyfitter_cfg.c **** 			{0xC4u, 0x01u},
 605:Generated_Source\PSoC4/cyfitter_cfg.c **** 			{0xCAu, 0x6Cu},
 606:Generated_Source\PSoC4/cyfitter_cfg.c **** 			{0xCCu, 0xD8u},
 607:Generated_Source\PSoC4/cyfitter_cfg.c **** 			{0xCEu, 0xD1u},
 608:Generated_Source\PSoC4/cyfitter_cfg.c **** 			{0xD0u, 0x80u},
 609:Generated_Source\PSoC4/cyfitter_cfg.c **** 			{0xD2u, 0x10u},
 610:Generated_Source\PSoC4/cyfitter_cfg.c **** 			{0xD6u, 0x0Eu},
 611:Generated_Source\PSoC4/cyfitter_cfg.c **** 			{0x05u, 0x02u},
 612:Generated_Source\PSoC4/cyfitter_cfg.c **** 			{0x0Cu, 0x08u},
 613:Generated_Source\PSoC4/cyfitter_cfg.c **** 			{0x15u, 0x01u},
 614:Generated_Source\PSoC4/cyfitter_cfg.c **** 			{0x18u, 0x01u},
 615:Generated_Source\PSoC4/cyfitter_cfg.c **** 			{0x24u, 0x03u},
 616:Generated_Source\PSoC4/cyfitter_cfg.c **** 			{0x2Cu, 0x03u},
 617:Generated_Source\PSoC4/cyfitter_cfg.c **** 			{0x2Eu, 0x0Cu},
 618:Generated_Source\PSoC4/cyfitter_cfg.c **** 			{0x30u, 0x04u},
 619:Generated_Source\PSoC4/cyfitter_cfg.c **** 			{0x32u, 0x02u},
 620:Generated_Source\PSoC4/cyfitter_cfg.c **** 			{0x34u, 0x08u},
 621:Generated_Source\PSoC4/cyfitter_cfg.c **** 			{0x35u, 0x02u},
 622:Generated_Source\PSoC4/cyfitter_cfg.c **** 			{0x36u, 0x01u},
 623:Generated_Source\PSoC4/cyfitter_cfg.c **** 			{0x37u, 0x01u},
 624:Generated_Source\PSoC4/cyfitter_cfg.c **** 			{0x38u, 0x88u},
 625:Generated_Source\PSoC4/cyfitter_cfg.c **** 			{0x3Eu, 0x50u},
 626:Generated_Source\PSoC4/cyfitter_cfg.c **** 			{0x40u, 0x31u},
 627:Generated_Source\PSoC4/cyfitter_cfg.c **** 			{0x41u, 0x02u},
 628:Generated_Source\PSoC4/cyfitter_cfg.c **** 			{0x49u, 0xFFu},
 629:Generated_Source\PSoC4/cyfitter_cfg.c **** 			{0x4Au, 0xFFu},
 630:Generated_Source\PSoC4/cyfitter_cfg.c **** 			{0x4Bu, 0xFFu},
 631:Generated_Source\PSoC4/cyfitter_cfg.c **** 			{0x4Du, 0xA0u},
 632:Generated_Source\PSoC4/cyfitter_cfg.c **** 			{0x4Fu, 0x01u},
 633:Generated_Source\PSoC4/cyfitter_cfg.c **** 			{0x50u, 0x18u},
 634:Generated_Source\PSoC4/cyfitter_cfg.c **** 			{0x56u, 0x04u},
 635:Generated_Source\PSoC4/cyfitter_cfg.c **** 			{0x58u, 0x04u},
 636:Generated_Source\PSoC4/cyfitter_cfg.c **** 			{0x59u, 0x04u},
 637:Generated_Source\PSoC4/cyfitter_cfg.c **** 			{0x5Au, 0x04u},
 638:Generated_Source\PSoC4/cyfitter_cfg.c **** 			{0x5Bu, 0x04u},
 639:Generated_Source\PSoC4/cyfitter_cfg.c **** 			{0x5Cu, 0x21u},
 640:Generated_Source\PSoC4/cyfitter_cfg.c **** 			{0x5Du, 0x01u},
 641:Generated_Source\PSoC4/cyfitter_cfg.c **** 			{0x5Fu, 0x01u},
 642:Generated_Source\PSoC4/cyfitter_cfg.c **** 			{0x60u, 0x40u},
 643:Generated_Source\PSoC4/cyfitter_cfg.c **** 			{0x62u, 0x80u},
 644:Generated_Source\PSoC4/cyfitter_cfg.c **** 			{0x64u, 0x40u},
 645:Generated_Source\PSoC4/cyfitter_cfg.c **** 			{0x65u, 0x40u},
 646:Generated_Source\PSoC4/cyfitter_cfg.c **** 			{0x66u, 0x80u},
 647:Generated_Source\PSoC4/cyfitter_cfg.c **** 			{0x68u, 0x40u},
 648:Generated_Source\PSoC4/cyfitter_cfg.c **** 			{0x6Au, 0x80u},
 649:Generated_Source\PSoC4/cyfitter_cfg.c **** 			{0x6Cu, 0x40u},
 650:Generated_Source\PSoC4/cyfitter_cfg.c **** 			{0x6Du, 0x20u},
 651:Generated_Source\PSoC4/cyfitter_cfg.c **** 			{0x6Eu, 0x80u},
 652:Generated_Source\PSoC4/cyfitter_cfg.c **** 			{0x80u, 0x0Cu},
 653:Generated_Source\PSoC4/cyfitter_cfg.c **** 			{0x81u, 0x01u},
 654:Generated_Source\PSoC4/cyfitter_cfg.c **** 			{0x84u, 0x01u},
 655:Generated_Source\PSoC4/cyfitter_cfg.c **** 			{0x8Cu, 0x0Au},
 656:Generated_Source\PSoC4/cyfitter_cfg.c **** 			{0x8Du, 0x01u},
 657:Generated_Source\PSoC4/cyfitter_cfg.c **** 			{0x96u, 0x01u},
ARM GAS  C:\Users\austc\AppData\Local\Temp\ccOBcOmj.s 			page 19


 658:Generated_Source\PSoC4/cyfitter_cfg.c **** 			{0x97u, 0x01u},
 659:Generated_Source\PSoC4/cyfitter_cfg.c **** 			{0x98u, 0x06u},
 660:Generated_Source\PSoC4/cyfitter_cfg.c **** 			{0x9Cu, 0x0Cu},
 661:Generated_Source\PSoC4/cyfitter_cfg.c **** 			{0x9Du, 0x01u},
 662:Generated_Source\PSoC4/cyfitter_cfg.c **** 			{0xA1u, 0x01u},
 663:Generated_Source\PSoC4/cyfitter_cfg.c **** 			{0xA2u, 0x01u},
 664:Generated_Source\PSoC4/cyfitter_cfg.c **** 			{0xABu, 0x02u},
 665:Generated_Source\PSoC4/cyfitter_cfg.c **** 			{0xB2u, 0x01u},
 666:Generated_Source\PSoC4/cyfitter_cfg.c **** 			{0xB4u, 0x0Eu},
 667:Generated_Source\PSoC4/cyfitter_cfg.c **** 			{0xB5u, 0x03u},
 668:Generated_Source\PSoC4/cyfitter_cfg.c **** 			{0xB8u, 0x20u},
 669:Generated_Source\PSoC4/cyfitter_cfg.c **** 			{0xBEu, 0x04u},
 670:Generated_Source\PSoC4/cyfitter_cfg.c **** 			{0xC0u, 0x35u},
 671:Generated_Source\PSoC4/cyfitter_cfg.c **** 			{0xC1u, 0x02u},
 672:Generated_Source\PSoC4/cyfitter_cfg.c **** 			{0xC5u, 0x0Cu},
 673:Generated_Source\PSoC4/cyfitter_cfg.c **** 			{0xC6u, 0x23u},
 674:Generated_Source\PSoC4/cyfitter_cfg.c **** 			{0xC7u, 0x4Eu},
 675:Generated_Source\PSoC4/cyfitter_cfg.c **** 			{0xC8u, 0x3Du},
 676:Generated_Source\PSoC4/cyfitter_cfg.c **** 			{0xC9u, 0xFFu},
 677:Generated_Source\PSoC4/cyfitter_cfg.c **** 			{0xCAu, 0xFFu},
 678:Generated_Source\PSoC4/cyfitter_cfg.c **** 			{0xCBu, 0xFFu},
 679:Generated_Source\PSoC4/cyfitter_cfg.c **** 			{0xCDu, 0xAFu},
 680:Generated_Source\PSoC4/cyfitter_cfg.c **** 			{0xCEu, 0x07u},
 681:Generated_Source\PSoC4/cyfitter_cfg.c **** 			{0xCFu, 0x01u},
 682:Generated_Source\PSoC4/cyfitter_cfg.c **** 			{0xD0u, 0x18u},
 683:Generated_Source\PSoC4/cyfitter_cfg.c **** 			{0xD2u, 0x80u},
 684:Generated_Source\PSoC4/cyfitter_cfg.c **** 			{0xD8u, 0x04u},
 685:Generated_Source\PSoC4/cyfitter_cfg.c **** 			{0xD9u, 0x04u},
 686:Generated_Source\PSoC4/cyfitter_cfg.c **** 			{0xDAu, 0x04u},
 687:Generated_Source\PSoC4/cyfitter_cfg.c **** 			{0xDBu, 0x04u},
 688:Generated_Source\PSoC4/cyfitter_cfg.c **** 			{0xDCu, 0x11u},
 689:Generated_Source\PSoC4/cyfitter_cfg.c **** 			{0xDDu, 0x11u},
 690:Generated_Source\PSoC4/cyfitter_cfg.c **** 			{0xDFu, 0x01u},
 691:Generated_Source\PSoC4/cyfitter_cfg.c **** 			{0xE0u, 0x40u},
 692:Generated_Source\PSoC4/cyfitter_cfg.c **** 			{0xE2u, 0x80u},
 693:Generated_Source\PSoC4/cyfitter_cfg.c **** 			{0xE4u, 0x40u},
 694:Generated_Source\PSoC4/cyfitter_cfg.c **** 			{0xE5u, 0x40u},
 695:Generated_Source\PSoC4/cyfitter_cfg.c **** 			{0xE6u, 0x80u},
 696:Generated_Source\PSoC4/cyfitter_cfg.c **** 			{0xE8u, 0x40u},
 697:Generated_Source\PSoC4/cyfitter_cfg.c **** 			{0xEAu, 0x80u},
 698:Generated_Source\PSoC4/cyfitter_cfg.c **** 			{0xECu, 0x40u},
 699:Generated_Source\PSoC4/cyfitter_cfg.c **** 			{0xEDu, 0x20u},
 700:Generated_Source\PSoC4/cyfitter_cfg.c **** 			{0xEEu, 0x80u},
 701:Generated_Source\PSoC4/cyfitter_cfg.c **** 			{0x00u, 0x40u},
 702:Generated_Source\PSoC4/cyfitter_cfg.c **** 			{0x04u, 0x80u},
 703:Generated_Source\PSoC4/cyfitter_cfg.c **** 			{0x07u, 0x50u},
 704:Generated_Source\PSoC4/cyfitter_cfg.c **** 			{0x09u, 0x20u},
 705:Generated_Source\PSoC4/cyfitter_cfg.c **** 			{0x0Du, 0x20u},
 706:Generated_Source\PSoC4/cyfitter_cfg.c **** 			{0x0Eu, 0x21u},
 707:Generated_Source\PSoC4/cyfitter_cfg.c **** 			{0x10u, 0x20u},
 708:Generated_Source\PSoC4/cyfitter_cfg.c **** 			{0x11u, 0x80u},
 709:Generated_Source\PSoC4/cyfitter_cfg.c **** 			{0x16u, 0x40u},
 710:Generated_Source\PSoC4/cyfitter_cfg.c **** 			{0x18u, 0x51u},
 711:Generated_Source\PSoC4/cyfitter_cfg.c **** 			{0x1Au, 0x04u},
 712:Generated_Source\PSoC4/cyfitter_cfg.c **** 			{0x1Bu, 0x40u},
 713:Generated_Source\PSoC4/cyfitter_cfg.c **** 			{0x1Cu, 0x08u},
 714:Generated_Source\PSoC4/cyfitter_cfg.c **** 			{0x1Du, 0x28u},
ARM GAS  C:\Users\austc\AppData\Local\Temp\ccOBcOmj.s 			page 20


 715:Generated_Source\PSoC4/cyfitter_cfg.c **** 			{0x22u, 0x50u},
 716:Generated_Source\PSoC4/cyfitter_cfg.c **** 			{0x26u, 0x10u},
 717:Generated_Source\PSoC4/cyfitter_cfg.c **** 			{0x2Fu, 0x48u},
 718:Generated_Source\PSoC4/cyfitter_cfg.c **** 			{0x30u, 0x04u},
 719:Generated_Source\PSoC4/cyfitter_cfg.c **** 			{0x36u, 0x08u},
 720:Generated_Source\PSoC4/cyfitter_cfg.c **** 			{0x37u, 0x40u},
 721:Generated_Source\PSoC4/cyfitter_cfg.c **** 			{0x39u, 0x08u},
 722:Generated_Source\PSoC4/cyfitter_cfg.c **** 			{0x3Au, 0x20u},
 723:Generated_Source\PSoC4/cyfitter_cfg.c **** 			{0x3Bu, 0x10u},
 724:Generated_Source\PSoC4/cyfitter_cfg.c **** 			{0x3Cu, 0x80u},
 725:Generated_Source\PSoC4/cyfitter_cfg.c **** 			{0x3Du, 0x02u},
 726:Generated_Source\PSoC4/cyfitter_cfg.c **** 			{0x40u, 0x0Du},
 727:Generated_Source\PSoC4/cyfitter_cfg.c **** 			{0x41u, 0x08u},
 728:Generated_Source\PSoC4/cyfitter_cfg.c **** 			{0x44u, 0x08u},
 729:Generated_Source\PSoC4/cyfitter_cfg.c **** 			{0x45u, 0x08u},
 730:Generated_Source\PSoC4/cyfitter_cfg.c **** 			{0x4Fu, 0x84u},
 731:Generated_Source\PSoC4/cyfitter_cfg.c **** 			{0x54u, 0x20u},
 732:Generated_Source\PSoC4/cyfitter_cfg.c **** 			{0x55u, 0x40u},
 733:Generated_Source\PSoC4/cyfitter_cfg.c **** 			{0x56u, 0x28u},
 734:Generated_Source\PSoC4/cyfitter_cfg.c **** 			{0x57u, 0x01u},
 735:Generated_Source\PSoC4/cyfitter_cfg.c **** 			{0x5Au, 0xA0u},
 736:Generated_Source\PSoC4/cyfitter_cfg.c **** 			{0x63u, 0x40u},
 737:Generated_Source\PSoC4/cyfitter_cfg.c **** 			{0x76u, 0x40u},
 738:Generated_Source\PSoC4/cyfitter_cfg.c **** 			{0x84u, 0x04u},
 739:Generated_Source\PSoC4/cyfitter_cfg.c **** 			{0x87u, 0x40u},
 740:Generated_Source\PSoC4/cyfitter_cfg.c **** 			{0x90u, 0x80u},
 741:Generated_Source\PSoC4/cyfitter_cfg.c **** 			{0x92u, 0x01u},
 742:Generated_Source\PSoC4/cyfitter_cfg.c **** 			{0x93u, 0x80u},
 743:Generated_Source\PSoC4/cyfitter_cfg.c **** 			{0x9Bu, 0x50u},
 744:Generated_Source\PSoC4/cyfitter_cfg.c **** 			{0xA0u, 0x40u},
 745:Generated_Source\PSoC4/cyfitter_cfg.c **** 			{0xA1u, 0x01u},
 746:Generated_Source\PSoC4/cyfitter_cfg.c **** 			{0xA2u, 0x08u},
 747:Generated_Source\PSoC4/cyfitter_cfg.c **** 			{0xA3u, 0x08u},
 748:Generated_Source\PSoC4/cyfitter_cfg.c **** 			{0xA4u, 0x04u},
 749:Generated_Source\PSoC4/cyfitter_cfg.c **** 			{0xA5u, 0x20u},
 750:Generated_Source\PSoC4/cyfitter_cfg.c **** 			{0xA6u, 0x10u},
 751:Generated_Source\PSoC4/cyfitter_cfg.c **** 			{0xA9u, 0x04u},
 752:Generated_Source\PSoC4/cyfitter_cfg.c **** 			{0xAFu, 0x22u},
 753:Generated_Source\PSoC4/cyfitter_cfg.c **** 			{0xB0u, 0x20u},
 754:Generated_Source\PSoC4/cyfitter_cfg.c **** 			{0xB4u, 0x80u},
 755:Generated_Source\PSoC4/cyfitter_cfg.c **** 			{0xC0u, 0xB1u},
 756:Generated_Source\PSoC4/cyfitter_cfg.c **** 			{0xC2u, 0xE2u},
 757:Generated_Source\PSoC4/cyfitter_cfg.c **** 			{0xC4u, 0x15u},
 758:Generated_Source\PSoC4/cyfitter_cfg.c **** 			{0xCAu, 0xA0u},
 759:Generated_Source\PSoC4/cyfitter_cfg.c **** 			{0xCCu, 0x52u},
 760:Generated_Source\PSoC4/cyfitter_cfg.c **** 			{0xCEu, 0x92u},
 761:Generated_Source\PSoC4/cyfitter_cfg.c **** 			{0xD0u, 0x6Eu},
 762:Generated_Source\PSoC4/cyfitter_cfg.c **** 			{0xD2u, 0x10u},
 763:Generated_Source\PSoC4/cyfitter_cfg.c **** 			{0xD6u, 0x0Cu},
 764:Generated_Source\PSoC4/cyfitter_cfg.c **** 			{0xD8u, 0x01u},
 765:Generated_Source\PSoC4/cyfitter_cfg.c **** 			{0xEEu, 0x01u},
 766:Generated_Source\PSoC4/cyfitter_cfg.c **** 			{0x00u, 0x01u},
 767:Generated_Source\PSoC4/cyfitter_cfg.c **** 			{0x01u, 0xFDu},
 768:Generated_Source\PSoC4/cyfitter_cfg.c **** 			{0x02u, 0x02u},
 769:Generated_Source\PSoC4/cyfitter_cfg.c **** 			{0x03u, 0x02u},
 770:Generated_Source\PSoC4/cyfitter_cfg.c **** 			{0x05u, 0x73u},
 771:Generated_Source\PSoC4/cyfitter_cfg.c **** 			{0x06u, 0x07u},
ARM GAS  C:\Users\austc\AppData\Local\Temp\ccOBcOmj.s 			page 21


 772:Generated_Source\PSoC4/cyfitter_cfg.c **** 			{0x08u, 0x10u},
 773:Generated_Source\PSoC4/cyfitter_cfg.c **** 			{0x0Cu, 0x01u},
 774:Generated_Source\PSoC4/cyfitter_cfg.c **** 			{0x0Du, 0x94u},
 775:Generated_Source\PSoC4/cyfitter_cfg.c **** 			{0x0Eu, 0x02u},
 776:Generated_Source\PSoC4/cyfitter_cfg.c **** 			{0x0Fu, 0x60u},
 777:Generated_Source\PSoC4/cyfitter_cfg.c **** 			{0x14u, 0x07u},
 778:Generated_Source\PSoC4/cyfitter_cfg.c **** 			{0x15u, 0x30u},
 779:Generated_Source\PSoC4/cyfitter_cfg.c **** 			{0x17u, 0xC9u},
 780:Generated_Source\PSoC4/cyfitter_cfg.c **** 			{0x18u, 0x04u},
 781:Generated_Source\PSoC4/cyfitter_cfg.c **** 			{0x1Du, 0x9Eu},
 782:Generated_Source\PSoC4/cyfitter_cfg.c **** 			{0x1Eu, 0x30u},
 783:Generated_Source\PSoC4/cyfitter_cfg.c **** 			{0x1Fu, 0x60u},
 784:Generated_Source\PSoC4/cyfitter_cfg.c **** 			{0x21u, 0xCFu},
 785:Generated_Source\PSoC4/cyfitter_cfg.c **** 			{0x22u, 0x04u},
 786:Generated_Source\PSoC4/cyfitter_cfg.c **** 			{0x23u, 0x30u},
 787:Generated_Source\PSoC4/cyfitter_cfg.c **** 			{0x24u, 0x07u},
 788:Generated_Source\PSoC4/cyfitter_cfg.c **** 			{0x27u, 0x0Fu},
 789:Generated_Source\PSoC4/cyfitter_cfg.c **** 			{0x2Au, 0x08u},
 790:Generated_Source\PSoC4/cyfitter_cfg.c **** 			{0x30u, 0x10u},
 791:Generated_Source\PSoC4/cyfitter_cfg.c **** 			{0x32u, 0x20u},
 792:Generated_Source\PSoC4/cyfitter_cfg.c **** 			{0x33u, 0xFFu},
 793:Generated_Source\PSoC4/cyfitter_cfg.c **** 			{0x34u, 0x0Fu},
 794:Generated_Source\PSoC4/cyfitter_cfg.c **** 			{0x3Eu, 0x01u},
 795:Generated_Source\PSoC4/cyfitter_cfg.c **** 			{0x3Fu, 0x04u},
 796:Generated_Source\PSoC4/cyfitter_cfg.c **** 			{0x54u, 0x0Fu},
 797:Generated_Source\PSoC4/cyfitter_cfg.c **** 			{0x58u, 0x04u},
 798:Generated_Source\PSoC4/cyfitter_cfg.c **** 			{0x59u, 0x04u},
 799:Generated_Source\PSoC4/cyfitter_cfg.c **** 			{0x5Bu, 0x04u},
 800:Generated_Source\PSoC4/cyfitter_cfg.c **** 			{0x5Cu, 0x01u},
 801:Generated_Source\PSoC4/cyfitter_cfg.c **** 			{0x5Du, 0x10u},
 802:Generated_Source\PSoC4/cyfitter_cfg.c **** 			{0x5Fu, 0x05u},
 803:Generated_Source\PSoC4/cyfitter_cfg.c **** 			{0x8Bu, 0x06u},
 804:Generated_Source\PSoC4/cyfitter_cfg.c **** 			{0x9Bu, 0x01u},
 805:Generated_Source\PSoC4/cyfitter_cfg.c **** 			{0x9Cu, 0x01u},
 806:Generated_Source\PSoC4/cyfitter_cfg.c **** 			{0xA5u, 0x04u},
 807:Generated_Source\PSoC4/cyfitter_cfg.c **** 			{0xA6u, 0x01u},
 808:Generated_Source\PSoC4/cyfitter_cfg.c **** 			{0xA7u, 0x02u},
 809:Generated_Source\PSoC4/cyfitter_cfg.c **** 			{0xA9u, 0x06u},
 810:Generated_Source\PSoC4/cyfitter_cfg.c **** 			{0xB0u, 0x01u},
 811:Generated_Source\PSoC4/cyfitter_cfg.c **** 			{0xB1u, 0x01u},
 812:Generated_Source\PSoC4/cyfitter_cfg.c **** 			{0xB3u, 0x04u},
 813:Generated_Source\PSoC4/cyfitter_cfg.c **** 			{0xB7u, 0x02u},
 814:Generated_Source\PSoC4/cyfitter_cfg.c **** 			{0xBEu, 0x01u},
 815:Generated_Source\PSoC4/cyfitter_cfg.c **** 			{0xBFu, 0x44u},
 816:Generated_Source\PSoC4/cyfitter_cfg.c **** 			{0xD4u, 0x0Fu},
 817:Generated_Source\PSoC4/cyfitter_cfg.c **** 			{0xD8u, 0x04u},
 818:Generated_Source\PSoC4/cyfitter_cfg.c **** 			{0xD9u, 0x04u},
 819:Generated_Source\PSoC4/cyfitter_cfg.c **** 			{0xDBu, 0x04u},
 820:Generated_Source\PSoC4/cyfitter_cfg.c **** 			{0xDCu, 0x10u},
 821:Generated_Source\PSoC4/cyfitter_cfg.c **** 			{0xDDu, 0x10u},
 822:Generated_Source\PSoC4/cyfitter_cfg.c **** 			{0xDFu, 0x01u},
 823:Generated_Source\PSoC4/cyfitter_cfg.c **** 			{0x04u, 0x44u},
 824:Generated_Source\PSoC4/cyfitter_cfg.c **** 			{0x05u, 0x20u},
 825:Generated_Source\PSoC4/cyfitter_cfg.c **** 			{0x07u, 0x40u},
 826:Generated_Source\PSoC4/cyfitter_cfg.c **** 			{0x0Au, 0x02u},
 827:Generated_Source\PSoC4/cyfitter_cfg.c **** 			{0x0Eu, 0x08u},
 828:Generated_Source\PSoC4/cyfitter_cfg.c **** 			{0x0Fu, 0x22u},
ARM GAS  C:\Users\austc\AppData\Local\Temp\ccOBcOmj.s 			page 22


 829:Generated_Source\PSoC4/cyfitter_cfg.c **** 			{0x10u, 0x20u},
 830:Generated_Source\PSoC4/cyfitter_cfg.c **** 			{0x15u, 0x05u},
 831:Generated_Source\PSoC4/cyfitter_cfg.c **** 			{0x17u, 0x14u},
 832:Generated_Source\PSoC4/cyfitter_cfg.c **** 			{0x19u, 0x02u},
 833:Generated_Source\PSoC4/cyfitter_cfg.c **** 			{0x1Cu, 0x04u},
 834:Generated_Source\PSoC4/cyfitter_cfg.c **** 			{0x1Eu, 0x40u},
 835:Generated_Source\PSoC4/cyfitter_cfg.c **** 			{0x1Fu, 0x28u},
 836:Generated_Source\PSoC4/cyfitter_cfg.c **** 			{0x22u, 0x41u},
 837:Generated_Source\PSoC4/cyfitter_cfg.c **** 			{0x23u, 0x20u},
 838:Generated_Source\PSoC4/cyfitter_cfg.c **** 			{0x27u, 0x10u},
 839:Generated_Source\PSoC4/cyfitter_cfg.c **** 			{0x29u, 0x20u},
 840:Generated_Source\PSoC4/cyfitter_cfg.c **** 			{0x2Bu, 0x28u},
 841:Generated_Source\PSoC4/cyfitter_cfg.c **** 			{0x2Du, 0x01u},
 842:Generated_Source\PSoC4/cyfitter_cfg.c **** 			{0x2Fu, 0x60u},
 843:Generated_Source\PSoC4/cyfitter_cfg.c **** 			{0x30u, 0x20u},
 844:Generated_Source\PSoC4/cyfitter_cfg.c **** 			{0x36u, 0x0Cu},
 845:Generated_Source\PSoC4/cyfitter_cfg.c **** 			{0x37u, 0x40u},
 846:Generated_Source\PSoC4/cyfitter_cfg.c **** 			{0x38u, 0x10u},
 847:Generated_Source\PSoC4/cyfitter_cfg.c **** 			{0x3Cu, 0xC8u},
 848:Generated_Source\PSoC4/cyfitter_cfg.c **** 			{0x3Du, 0x06u},
 849:Generated_Source\PSoC4/cyfitter_cfg.c **** 			{0x3Eu, 0x01u},
 850:Generated_Source\PSoC4/cyfitter_cfg.c **** 			{0x5Au, 0x81u},
 851:Generated_Source\PSoC4/cyfitter_cfg.c **** 			{0x5Bu, 0x24u},
 852:Generated_Source\PSoC4/cyfitter_cfg.c **** 			{0x5Du, 0x02u},
 853:Generated_Source\PSoC4/cyfitter_cfg.c **** 			{0x5Eu, 0x44u},
 854:Generated_Source\PSoC4/cyfitter_cfg.c **** 			{0x5Fu, 0x10u},
 855:Generated_Source\PSoC4/cyfitter_cfg.c **** 			{0x66u, 0x08u},
 856:Generated_Source\PSoC4/cyfitter_cfg.c **** 			{0x67u, 0x04u},
 857:Generated_Source\PSoC4/cyfitter_cfg.c **** 			{0x7Du, 0x04u},
 858:Generated_Source\PSoC4/cyfitter_cfg.c **** 			{0x81u, 0x01u},
 859:Generated_Source\PSoC4/cyfitter_cfg.c **** 			{0x83u, 0x10u},
 860:Generated_Source\PSoC4/cyfitter_cfg.c **** 			{0x90u, 0x10u},
 861:Generated_Source\PSoC4/cyfitter_cfg.c **** 			{0x92u, 0x04u},
 862:Generated_Source\PSoC4/cyfitter_cfg.c **** 			{0x93u, 0x94u},
 863:Generated_Source\PSoC4/cyfitter_cfg.c **** 			{0x94u, 0x04u},
 864:Generated_Source\PSoC4/cyfitter_cfg.c **** 			{0x9Au, 0x08u},
 865:Generated_Source\PSoC4/cyfitter_cfg.c **** 			{0x9Bu, 0x40u},
 866:Generated_Source\PSoC4/cyfitter_cfg.c **** 			{0xA0u, 0x64u},
 867:Generated_Source\PSoC4/cyfitter_cfg.c **** 			{0xA1u, 0x01u},
 868:Generated_Source\PSoC4/cyfitter_cfg.c **** 			{0xA2u, 0x08u},
 869:Generated_Source\PSoC4/cyfitter_cfg.c **** 			{0xA3u, 0x01u},
 870:Generated_Source\PSoC4/cyfitter_cfg.c **** 			{0xADu, 0x04u},
 871:Generated_Source\PSoC4/cyfitter_cfg.c **** 			{0xC0u, 0xF0u},
 872:Generated_Source\PSoC4/cyfitter_cfg.c **** 			{0xC2u, 0xE1u},
 873:Generated_Source\PSoC4/cyfitter_cfg.c **** 			{0xC4u, 0x74u},
 874:Generated_Source\PSoC4/cyfitter_cfg.c **** 			{0xCAu, 0xC6u},
 875:Generated_Source\PSoC4/cyfitter_cfg.c **** 			{0xCCu, 0x54u},
 876:Generated_Source\PSoC4/cyfitter_cfg.c **** 			{0xCEu, 0xD4u},
 877:Generated_Source\PSoC4/cyfitter_cfg.c **** 			{0xD6u, 0xFFu},
 878:Generated_Source\PSoC4/cyfitter_cfg.c **** 			{0xD8u, 0x60u},
 879:Generated_Source\PSoC4/cyfitter_cfg.c **** 			{0xDEu, 0x40u},
 880:Generated_Source\PSoC4/cyfitter_cfg.c **** 			{0x6Bu, 0x02u},
 881:Generated_Source\PSoC4/cyfitter_cfg.c **** 			{0x6Eu, 0x20u},
 882:Generated_Source\PSoC4/cyfitter_cfg.c **** 			{0x86u, 0x10u},
 883:Generated_Source\PSoC4/cyfitter_cfg.c **** 			{0xDAu, 0xC0u},
 884:Generated_Source\PSoC4/cyfitter_cfg.c **** 			{0xE6u, 0x10u},
 885:Generated_Source\PSoC4/cyfitter_cfg.c **** 			{0x03u, 0x80u},
ARM GAS  C:\Users\austc\AppData\Local\Temp\ccOBcOmj.s 			page 23


 886:Generated_Source\PSoC4/cyfitter_cfg.c **** 			{0x06u, 0x20u},
 887:Generated_Source\PSoC4/cyfitter_cfg.c **** 			{0x9Fu, 0x02u},
 888:Generated_Source\PSoC4/cyfitter_cfg.c **** 			{0xC0u, 0x30u},
 889:Generated_Source\PSoC4/cyfitter_cfg.c **** 			{0x0Bu, 0x80u},
 890:Generated_Source\PSoC4/cyfitter_cfg.c **** 			{0x0Fu, 0x10u},
 891:Generated_Source\PSoC4/cyfitter_cfg.c **** 			{0x87u, 0x42u},
 892:Generated_Source\PSoC4/cyfitter_cfg.c **** 			{0x9Fu, 0x02u},
 893:Generated_Source\PSoC4/cyfitter_cfg.c **** 			{0xAEu, 0x20u},
 894:Generated_Source\PSoC4/cyfitter_cfg.c **** 			{0xAFu, 0x80u},
 895:Generated_Source\PSoC4/cyfitter_cfg.c **** 			{0xC2u, 0x30u},
 896:Generated_Source\PSoC4/cyfitter_cfg.c **** 			{0xE0u, 0x10u},
 897:Generated_Source\PSoC4/cyfitter_cfg.c **** 			{0xE6u, 0x40u},
 898:Generated_Source\PSoC4/cyfitter_cfg.c **** 			{0xE8u, 0x10u},
 899:Generated_Source\PSoC4/cyfitter_cfg.c **** 			{0xECu, 0x10u},
 900:Generated_Source\PSoC4/cyfitter_cfg.c **** 			{0xAFu, 0x10u},
 901:Generated_Source\PSoC4/cyfitter_cfg.c **** 			{0xE8u, 0x10u},
 902:Generated_Source\PSoC4/cyfitter_cfg.c **** 			{0x01u, 0x10u},
 903:Generated_Source\PSoC4/cyfitter_cfg.c **** 			{0x04u, 0x18u},
 904:Generated_Source\PSoC4/cyfitter_cfg.c **** 			{0xC0u, 0x07u},
 905:Generated_Source\PSoC4/cyfitter_cfg.c **** 			{0xA8u, 0x04u},
 906:Generated_Source\PSoC4/cyfitter_cfg.c **** 			{0xB1u, 0x10u},
 907:Generated_Source\PSoC4/cyfitter_cfg.c **** 			{0xB4u, 0x10u},
 908:Generated_Source\PSoC4/cyfitter_cfg.c **** 			{0xEAu, 0x09u},
 909:Generated_Source\PSoC4/cyfitter_cfg.c **** 			{0x01u, 0x0Eu},
 910:Generated_Source\PSoC4/cyfitter_cfg.c **** 			{0x10u, 0x0Au},
 911:Generated_Source\PSoC4/cyfitter_cfg.c **** 			{0x12u, 0x06u},
 912:Generated_Source\PSoC4/cyfitter_cfg.c **** 		};
 913:Generated_Source\PSoC4/cyfitter_cfg.c **** 
 914:Generated_Source\PSoC4/cyfitter_cfg.c **** 
 915:Generated_Source\PSoC4/cyfitter_cfg.c **** 
 916:Generated_Source\PSoC4/cyfitter_cfg.c **** 		CYPACKED typedef struct {
 917:Generated_Source\PSoC4/cyfitter_cfg.c **** 			void CYFAR *address;
 918:Generated_Source\PSoC4/cyfitter_cfg.c **** 			uint16 size;
 919:Generated_Source\PSoC4/cyfitter_cfg.c **** 		} CYPACKED_ATTR cfg_memset_t;
 920:Generated_Source\PSoC4/cyfitter_cfg.c **** 
 921:Generated_Source\PSoC4/cyfitter_cfg.c **** 		static const cfg_memset_t CYCODE cfg_memset_list[] = {
 922:Generated_Source\PSoC4/cyfitter_cfg.c **** 			/* address, size */
 923:Generated_Source\PSoC4/cyfitter_cfg.c **** 			{(void CYFAR *)(CYDEV_UDB_P0_U0_BASE), 2048u},
 924:Generated_Source\PSoC4/cyfitter_cfg.c **** 			{(void CYFAR *)(CYDEV_UDB_DSI0_BASE), 2048u},
 925:Generated_Source\PSoC4/cyfitter_cfg.c **** 		};
 926:Generated_Source\PSoC4/cyfitter_cfg.c **** 
 927:Generated_Source\PSoC4/cyfitter_cfg.c **** 		uint8 CYDATA i;
 928:Generated_Source\PSoC4/cyfitter_cfg.c **** 
 929:Generated_Source\PSoC4/cyfitter_cfg.c **** 		/* Zero out critical memory blocks before beginning configuration */
 930:Generated_Source\PSoC4/cyfitter_cfg.c **** 		for (i = 0u; i < (sizeof(cfg_memset_list)/sizeof(cfg_memset_list[0])); i++)
 337              		.loc 1 930 0
 338 0106 0024     		movs	r4, #0
 339 0108 0FE0     		b	.L14
 340              	.LVL19:
 341              	.L15:
 342              	.LBB4:
 931:Generated_Source\PSoC4/cyfitter_cfg.c **** 		{
 932:Generated_Source\PSoC4/cyfitter_cfg.c **** 			const cfg_memset_t CYCODE * CYDATA ms = &cfg_memset_list[i];
 933:Generated_Source\PSoC4/cyfitter_cfg.c **** 			CYMEMZERO(ms->address, (size_t)(uint32)(ms->size));
 343              		.loc 1 933 0 discriminator 3
 344 010a 3A48     		ldr	r0, .L16+4
 345 010c 6200     		lsls	r2, r4, #1
ARM GAS  C:\Users\austc\AppData\Local\Temp\ccOBcOmj.s 			page 24


 346 010e 1319     		adds	r3, r2, r4
 347 0110 5900     		lsls	r1, r3, #1
 348 0112 0B00     		movs	r3, r1
 349 0114 4118     		adds	r1, r0, r1
 350 0116 8988     		ldrh	r1, [r1, #4]
 351 0118 1A5A     		ldrh	r2, [r3, r0]
 352 011a C318     		adds	r3, r0, r3
 353 011c 5888     		ldrh	r0, [r3, #2]
 354 011e 0004     		lsls	r0, r0, #16
 355 0120 1043     		orrs	r0, r2
 356 0122 FFF7FEFF 		bl	CYMEMZERO
 357              	.LVL20:
 358              	.LBE4:
 930:Generated_Source\PSoC4/cyfitter_cfg.c **** 		{
 359              		.loc 1 930 0 discriminator 3
 360 0126 0134     		adds	r4, r4, #1
 361              	.LVL21:
 362 0128 E4B2     		uxtb	r4, r4
 363              	.LVL22:
 364              	.L14:
 930:Generated_Source\PSoC4/cyfitter_cfg.c **** 		{
 365              		.loc 1 930 0 is_stmt 0 discriminator 1
 366 012a 012C     		cmp	r4, #1
 367 012c EDD9     		bls	.L15
 934:Generated_Source\PSoC4/cyfitter_cfg.c **** 		}
 935:Generated_Source\PSoC4/cyfitter_cfg.c **** 
 936:Generated_Source\PSoC4/cyfitter_cfg.c **** 		cfg_write_bytes32(cy_cfg_addr_table, cy_cfg_data_table);
 368              		.loc 1 936 0 is_stmt 1
 369 012e 3149     		ldr	r1, .L16+4
 370 0130 0C31     		adds	r1, r1, #12
 371 0132 3148     		ldr	r0, .L16+8
 372 0134 0C30     		adds	r0, r0, #12
 373 0136 FFF7FEFF 		bl	cfg_write_bytes32
 374              	.LVL23:
 937:Generated_Source\PSoC4/cyfitter_cfg.c **** 
 938:Generated_Source\PSoC4/cyfitter_cfg.c **** 		/* HSIOM Starting address: CYDEV_HSIOM_BASE */
 939:Generated_Source\PSoC4/cyfitter_cfg.c **** 		CY_SET_REG32((void *)(CYDEV_HSIOM_BASE), 0x080000AAu);
 375              		.loc 1 939 0
 376 013a 304A     		ldr	r2, .L16+12
 377 013c 304B     		ldr	r3, .L16+16
 378 013e 1A60     		str	r2, [r3]
 940:Generated_Source\PSoC4/cyfitter_cfg.c **** 		CY_SET_REG32((void *)(CYREG_HSIOM_PORT_SEL2), 0x00000099u);
 379              		.loc 1 940 0
 380 0140 9922     		movs	r2, #153
 381 0142 304B     		ldr	r3, .L16+20
 382 0144 1A60     		str	r2, [r3]
 941:Generated_Source\PSoC4/cyfitter_cfg.c **** 		CY_SET_REG32((void *)(CYREG_HSIOM_PORT_SEL3), 0x0000EE00u);
 383              		.loc 1 941 0
 384 0146 EE22     		movs	r2, #238
 385 0148 1202     		lsls	r2, r2, #8
 386 014a 2F4B     		ldr	r3, .L16+24
 387 014c 1A60     		str	r2, [r3]
 942:Generated_Source\PSoC4/cyfitter_cfg.c **** 		CY_SET_REG32((void *)(CYREG_HSIOM_PORT_SEL7), 0x00000008u);
 388              		.loc 1 942 0
 389 014e 0822     		movs	r2, #8
 390 0150 2E4B     		ldr	r3, .L16+28
 391 0152 1A60     		str	r2, [r3]
ARM GAS  C:\Users\austc\AppData\Local\Temp\ccOBcOmj.s 			page 25


 943:Generated_Source\PSoC4/cyfitter_cfg.c **** 
 944:Generated_Source\PSoC4/cyfitter_cfg.c **** 		/* UDB_PA_1 Starting address: CYDEV_UDB_PA1_BASE */
 945:Generated_Source\PSoC4/cyfitter_cfg.c **** 		CY_SET_REG32((void *)(CYDEV_UDB_PA1_BASE), 0x00990000u);
 392              		.loc 1 945 0
 393 0154 9923     		movs	r3, #153
 394 0156 1B04     		lsls	r3, r3, #16
 395 0158 2D4A     		ldr	r2, .L16+32
 396 015a 1360     		str	r3, [r2]
 946:Generated_Source\PSoC4/cyfitter_cfg.c **** 
 947:Generated_Source\PSoC4/cyfitter_cfg.c **** 		/* UDB_PA_2 Starting address: CYDEV_UDB_PA2_BASE */
 948:Generated_Source\PSoC4/cyfitter_cfg.c **** 		CY_SET_REG32((void *)(CYDEV_UDB_PA2_BASE), 0x00990000u);
 397              		.loc 1 948 0
 398 015c 2D4A     		ldr	r2, .L16+36
 399 015e 1360     		str	r3, [r2]
 949:Generated_Source\PSoC4/cyfitter_cfg.c **** 
 950:Generated_Source\PSoC4/cyfitter_cfg.c **** 		/* UDB_PA_4 Starting address: CYDEV_UDB_PA4_BASE */
 951:Generated_Source\PSoC4/cyfitter_cfg.c **** 		CY_SET_REG32((void *)(CYDEV_UDB_PA4_BASE), 0x00990000u);
 400              		.loc 1 951 0
 401 0160 2D4A     		ldr	r2, .L16+40
 402 0162 1360     		str	r3, [r2]
 952:Generated_Source\PSoC4/cyfitter_cfg.c **** 
 953:Generated_Source\PSoC4/cyfitter_cfg.c **** 		/* UDB_PA_5 Starting address: CYDEV_UDB_PA5_BASE */
 954:Generated_Source\PSoC4/cyfitter_cfg.c **** 		CY_SET_REG32((void *)(CYDEV_UDB_PA5_BASE), 0x00990000u);
 403              		.loc 1 954 0
 404 0164 2D4A     		ldr	r2, .L16+44
 405 0166 1360     		str	r3, [r2]
 955:Generated_Source\PSoC4/cyfitter_cfg.c **** 
 956:Generated_Source\PSoC4/cyfitter_cfg.c **** 		/* UDB_PA_7 Starting address: CYDEV_UDB_PA7_BASE */
 957:Generated_Source\PSoC4/cyfitter_cfg.c **** 		CY_SET_REG32((void *)(CYDEV_UDB_PA7_BASE), 0x00990000u);
 406              		.loc 1 957 0
 407 0168 2D4A     		ldr	r2, .L16+48
 408 016a 1360     		str	r3, [r2]
 958:Generated_Source\PSoC4/cyfitter_cfg.c **** 
 959:Generated_Source\PSoC4/cyfitter_cfg.c **** 		/* UDB_P3_U0_CFG24 Starting address: CYDEV_UDB_P3_U0_CFG24 */
 960:Generated_Source\PSoC4/cyfitter_cfg.c **** 		CY_SET_REG32((void *)(CYREG_UDB_P3_U0_CFG24), 0x84000404u);
 409              		.loc 1 960 0
 410 016c 2D4A     		ldr	r2, .L16+52
 411 016e 2E4B     		ldr	r3, .L16+56
 412 0170 1A60     		str	r2, [r3]
 961:Generated_Source\PSoC4/cyfitter_cfg.c **** 
 962:Generated_Source\PSoC4/cyfitter_cfg.c **** 		/* INT_SELECT Starting address: CYDEV_CPUSS_INT_SEL */
 963:Generated_Source\PSoC4/cyfitter_cfg.c **** 		CY_SET_REG32((void *)(CYREG_CPUSS_INT_SEL), 0x00000003u);
 413              		.loc 1 963 0
 414 0172 0321     		movs	r1, #3
 415 0174 2D4B     		ldr	r3, .L16+60
 416 0176 1960     		str	r1, [r3]
 964:Generated_Source\PSoC4/cyfitter_cfg.c **** 
 965:Generated_Source\PSoC4/cyfitter_cfg.c **** 		/* INT_CONFIG Starting address: CYDEV_UDB_INT_CFG */
 966:Generated_Source\PSoC4/cyfitter_cfg.c **** 		CY_SET_REG32((void *)(CYREG_UDB_INT_CFG), 0x00000003u);
 417              		.loc 1 966 0
 418 0178 2D4B     		ldr	r3, .L16+64
 419 017a 1960     		str	r1, [r3]
 967:Generated_Source\PSoC4/cyfitter_cfg.c **** 
 968:Generated_Source\PSoC4/cyfitter_cfg.c **** 		/* Enable UDB array and digital routing */
 969:Generated_Source\PSoC4/cyfitter_cfg.c **** 		CY_SET_XTND_REG8((void *)CYREG_UDB_UDB_WAIT_CFG, (uint8)((CY_GET_XTND_REG8((void *)CYREG_UDB_UDB_
 420              		.loc 1 969 0
 421 017c 2D48     		ldr	r0, .L16+68
ARM GAS  C:\Users\austc\AppData\Local\Temp\ccOBcOmj.s 			page 26


 422 017e 0378     		ldrb	r3, [r0]
 423 0180 3C22     		movs	r2, #60
 424 0182 9343     		bics	r3, r2
 425 0184 1422     		movs	r2, #20
 426 0186 1343     		orrs	r3, r2
 427 0188 DBB2     		uxtb	r3, r3
 428 018a 0370     		strb	r3, [r0]
 970:Generated_Source\PSoC4/cyfitter_cfg.c **** 		CY_SET_XTND_REG8((void *)CYREG_UDB_UDB_BANK_CTL, (uint8)(CY_GET_XTND_REG8((void *)CYREG_UDB_UDB_B
 429              		.loc 1 970 0
 430 018c 2A4A     		ldr	r2, .L16+72
 431 018e 1078     		ldrb	r0, [r2]
 432 0190 1623     		movs	r3, #22
 433 0192 0343     		orrs	r3, r0
 434 0194 DBB2     		uxtb	r3, r3
 435 0196 1370     		strb	r3, [r2]
 436              	.LBE3:
 971:Generated_Source\PSoC4/cyfitter_cfg.c **** 	}
 972:Generated_Source\PSoC4/cyfitter_cfg.c **** 
 973:Generated_Source\PSoC4/cyfitter_cfg.c **** 	/* Perform second pass device configuration. These items must be configured in specific order afte
 974:Generated_Source\PSoC4/cyfitter_cfg.c **** 	/* IOPINS0_0 Starting address: CYDEV_GPIO_PRT0_BASE */
 975:Generated_Source\PSoC4/cyfitter_cfg.c **** 	CY_SET_REG32((void *)(CYDEV_GPIO_PRT0_BASE), 0x00000002u);
 437              		.loc 1 975 0
 438 0198 0223     		movs	r3, #2
 439 019a 284A     		ldr	r2, .L16+76
 440 019c 1360     		str	r3, [r2]
 976:Generated_Source\PSoC4/cyfitter_cfg.c **** 	CY_SET_REG32((void *)(CYREG_GPIO_PRT0_PC), 0x00040031u);
 441              		.loc 1 976 0
 442 019e 2848     		ldr	r0, .L16+80
 443 01a0 284A     		ldr	r2, .L16+84
 444 01a2 1060     		str	r0, [r2]
 977:Generated_Source\PSoC4/cyfitter_cfg.c **** 
 978:Generated_Source\PSoC4/cyfitter_cfg.c **** 	/* IOPINS0_1 Starting address: CYDEV_GPIO_PRT1_BASE */
 979:Generated_Source\PSoC4/cyfitter_cfg.c **** 	CY_SET_REG32((void *)(CYREG_GPIO_PRT1_PC), 0x00000009u);
 445              		.loc 1 979 0
 446 01a4 0920     		movs	r0, #9
 447 01a6 284A     		ldr	r2, .L16+88
 448 01a8 1060     		str	r0, [r2]
 980:Generated_Source\PSoC4/cyfitter_cfg.c **** 
 981:Generated_Source\PSoC4/cyfitter_cfg.c **** 	/* IOPINS0_2 Starting address: CYDEV_GPIO_PRT2_BASE */
 982:Generated_Source\PSoC4/cyfitter_cfg.c **** 	CY_SET_REG32((void *)(CYDEV_GPIO_PRT2_BASE), 0x00000032u);
 449              		.loc 1 982 0
 450 01aa 2930     		adds	r0, r0, #41
 451 01ac 274A     		ldr	r2, .L16+92
 452 01ae 1060     		str	r0, [r2]
 983:Generated_Source\PSoC4/cyfitter_cfg.c **** 	CY_SET_REG32((void *)(CYREG_GPIO_PRT2_PC), 0x00C12031u);
 453              		.loc 1 983 0
 454 01b0 2748     		ldr	r0, .L16+96
 455 01b2 284A     		ldr	r2, .L16+100
 456 01b4 1060     		str	r0, [r2]
 984:Generated_Source\PSoC4/cyfitter_cfg.c **** 	CY_SET_REG32((void *)(CYREG_GPIO_PRT2_PC2), 0x00000002u);
 457              		.loc 1 984 0
 458 01b6 284A     		ldr	r2, .L16+104
 459 01b8 1360     		str	r3, [r2]
 985:Generated_Source\PSoC4/cyfitter_cfg.c **** 
 986:Generated_Source\PSoC4/cyfitter_cfg.c **** 	/* IOPINS0_3 Starting address: CYDEV_GPIO_PRT3_BASE */
 987:Generated_Source\PSoC4/cyfitter_cfg.c **** 	CY_SET_REG32((void *)(CYREG_GPIO_PRT3_PC), 0x00000D80u);
 460              		.loc 1 987 0
ARM GAS  C:\Users\austc\AppData\Local\Temp\ccOBcOmj.s 			page 27


 461 01ba D822     		movs	r2, #216
 462 01bc 1201     		lsls	r2, r2, #4
 463 01be 274B     		ldr	r3, .L16+108
 464 01c0 1A60     		str	r2, [r3]
 988:Generated_Source\PSoC4/cyfitter_cfg.c **** 
 989:Generated_Source\PSoC4/cyfitter_cfg.c **** 	/* IOPINS0_4 Starting address: CYDEV_GPIO_PRT4_BASE */
 990:Generated_Source\PSoC4/cyfitter_cfg.c **** 	CY_SET_REG32((void *)(CYDEV_GPIO_PRT4_BASE), 0x0000004Eu);
 465              		.loc 1 990 0
 466 01c2 4E22     		movs	r2, #78
 467 01c4 264B     		ldr	r3, .L16+112
 468 01c6 1A60     		str	r2, [r3]
 991:Generated_Source\PSoC4/cyfitter_cfg.c **** 	CY_SET_REG32((void *)(CYREG_GPIO_PRT4_PC), 0x00080490u);
 469              		.loc 1 991 0
 470 01c8 264A     		ldr	r2, .L16+116
 471 01ca 274B     		ldr	r3, .L16+120
 472 01cc 1A60     		str	r2, [r3]
 992:Generated_Source\PSoC4/cyfitter_cfg.c **** 
 993:Generated_Source\PSoC4/cyfitter_cfg.c **** 	/* IOPINS0_6 Starting address: CYDEV_GPIO_PRT6_BASE */
 994:Generated_Source\PSoC4/cyfitter_cfg.c **** 	CY_SET_REG32((void *)(CYDEV_GPIO_PRT6_BASE), 0x00000003u);
 473              		.loc 1 994 0
 474 01ce 274B     		ldr	r3, .L16+124
 475 01d0 1960     		str	r1, [r3]
 995:Generated_Source\PSoC4/cyfitter_cfg.c **** 	CY_SET_REG32((void *)(CYREG_GPIO_PRT6_PC), 0x00000012u);
 476              		.loc 1 995 0
 477 01d2 1222     		movs	r2, #18
 478 01d4 264B     		ldr	r3, .L16+128
 479 01d6 1A60     		str	r2, [r3]
 996:Generated_Source\PSoC4/cyfitter_cfg.c **** 
 997:Generated_Source\PSoC4/cyfitter_cfg.c **** 	/* IOPINS0_7 Starting address: CYDEV_GPIO_PRT7_BASE */
 998:Generated_Source\PSoC4/cyfitter_cfg.c **** 	CY_SET_REG32((void *)(CYDEV_GPIO_PRT7_BASE), 0x00000001u);
 480              		.loc 1 998 0
 481 01d8 113A     		subs	r2, r2, #17
 482 01da 264B     		ldr	r3, .L16+132
 483 01dc 1A60     		str	r2, [r3]
 999:Generated_Source\PSoC4/cyfitter_cfg.c **** 	CY_SET_REG32((void *)(CYREG_GPIO_PRT7_PC), 0x00000036u);
 484              		.loc 1 999 0
 485 01de 3532     		adds	r2, r2, #53
 486 01e0 254B     		ldr	r3, .L16+136
 487 01e2 1A60     		str	r2, [r3]
1000:Generated_Source\PSoC4/cyfitter_cfg.c **** 
1001:Generated_Source\PSoC4/cyfitter_cfg.c **** 
1002:Generated_Source\PSoC4/cyfitter_cfg.c **** 	/* Setup clocks based on selections from Clock DWR */
1003:Generated_Source\PSoC4/cyfitter_cfg.c **** 	ClockSetup();
 488              		.loc 1 1003 0
 489 01e4 FFF70CFF 		bl	ClockSetup
 490              	.LVL24:
1004:Generated_Source\PSoC4/cyfitter_cfg.c **** 
1005:Generated_Source\PSoC4/cyfitter_cfg.c **** 	/* Perform basic analog initialization to defaults */
1006:Generated_Source\PSoC4/cyfitter_cfg.c **** 	AnalogSetDefault();
 491              		.loc 1 1006 0
 492 01e8 FFF7FEFF 		bl	AnalogSetDefault
 493              	.LVL25:
1007:Generated_Source\PSoC4/cyfitter_cfg.c **** 
1008:Generated_Source\PSoC4/cyfitter_cfg.c **** }
 494              		.loc 1 1008 0
 495              		@ sp needed
 496              	.LVL26:
ARM GAS  C:\Users\austc\AppData\Local\Temp\ccOBcOmj.s 			page 28


 497 01ec 10BD     		pop	{r4, pc}
 498              	.L17:
 499 01ee C046     		.align	2
 500              	.L16:
 501 01f0 1C700F40 		.word	1074753564
 502 01f4 00000000 		.word	.LANCHOR0
 503 01f8 80040000 		.word	.LANCHOR1
 504 01fc AA000008 		.word	134217898
 505 0200 00000240 		.word	1073872896
 506 0204 00020240 		.word	1073873408
 507 0208 00030240 		.word	1073873664
 508 020c 00070240 		.word	1073874688
 509 0210 10500F40 		.word	1074745360
 510 0214 20500F40 		.word	1074745376
 511 0218 40500F40 		.word	1074745408
 512 021c 50500F40 		.word	1074745424
 513 0220 70500F40 		.word	1074745456
 514 0224 04040084 		.word	-2080373756
 515 0228 58360F40 		.word	1074738776
 516 022c 20001040 		.word	1074790432
 517 0230 00800F40 		.word	1074757632
 518 0234 01700F40 		.word	1074753537
 519 0238 00700F40 		.word	1074753536
 520 023c 00000440 		.word	1074003968
 521 0240 31000400 		.word	262193
 522 0244 08000440 		.word	1074003976
 523 0248 08010440 		.word	1074004232
 524 024c 00020440 		.word	1074004480
 525 0250 3120C100 		.word	12656689
 526 0254 08020440 		.word	1074004488
 527 0258 18020440 		.word	1074004504
 528 025c 08030440 		.word	1074004744
 529 0260 00040440 		.word	1074004992
 530 0264 90040800 		.word	525456
 531 0268 08040440 		.word	1074005000
 532 026c 00060440 		.word	1074005504
 533 0270 08060440 		.word	1074005512
 534 0274 00070440 		.word	1074005760
 535 0278 08070440 		.word	1074005768
 536              		.cfi_endproc
 537              	.LFE40:
 538              		.size	cyfitter_cfg, .-cyfitter_cfg
 539              		.section	.rodata
 540              		.align	2
 541              		.set	.LANCHOR0,. + 0
 542              		.set	.LANCHOR1,. + 1152
 543              		.type	cfg_memset_list.6468, %object
 544              		.size	cfg_memset_list.6468, 12
 545              	cfg_memset_list.6468:
 546 0000 00300F40 		.word	1074737152
 547 0004 0008     		.short	2048
 548 0006 00400F40 		.4byte	1074741248
 549 000a 0008     		.short	2048
 550              		.type	cy_cfg_data_table.6463, %object
 551              		.size	cy_cfg_data_table.6463, 1150
 552              	cy_cfg_data_table.6463:
 553 000c 81       		.byte	-127
ARM GAS  C:\Users\austc\AppData\Local\Temp\ccOBcOmj.s 			page 29


 554 000d 0D       		.byte	13
 555 000e 84       		.byte	-124
 556 000f 03       		.byte	3
 557 0010 86       		.byte	-122
 558 0011 6F       		.byte	111
 559 0012 87       		.byte	-121
 560 0013 0F       		.byte	15
 561 0014 01       		.byte	1
 562 0015 02       		.byte	2
 563 0016 03       		.byte	3
 564 0017 04       		.byte	4
 565 0018 0E       		.byte	14
 566 0019 01       		.byte	1
 567 001a 15       		.byte	21
 568 001b 04       		.byte	4
 569 001c 17       		.byte	23
 570 001d 02       		.byte	2
 571 001e 19       		.byte	25
 572 001f 02       		.byte	2
 573 0020 1B       		.byte	27
 574 0021 04       		.byte	4
 575 0022 21       		.byte	33
 576 0023 02       		.byte	2
 577 0024 23       		.byte	35
 578 0025 05       		.byte	5
 579 0026 26       		.byte	38
 580 0027 02       		.byte	2
 581 0028 30       		.byte	48
 582 0029 01       		.byte	1
 583 002a 33       		.byte	51
 584 002b 06       		.byte	6
 585 002c 35       		.byte	53
 586 002d 01       		.byte	1
 587 002e 36       		.byte	54
 588 002f 02       		.byte	2
 589 0030 3B       		.byte	59
 590 0031 08       		.byte	8
 591 0032 40       		.byte	64
 592 0033 54       		.byte	84
 593 0034 49       		.byte	73
 594 0035 FF       		.byte	-1
 595 0036 4A       		.byte	74
 596 0037 FF       		.byte	-1
 597 0038 4B       		.byte	75
 598 0039 FF       		.byte	-1
 599 003a 4F       		.byte	79
 600 003b 01       		.byte	1
 601 003c 50       		.byte	80
 602 003d 18       		.byte	24
 603 003e 52       		.byte	82
 604 003f 80       		.byte	-128
 605 0040 58       		.byte	88
 606 0041 04       		.byte	4
 607 0042 59       		.byte	89
 608 0043 04       		.byte	4
 609 0044 5A       		.byte	90
 610 0045 04       		.byte	4
ARM GAS  C:\Users\austc\AppData\Local\Temp\ccOBcOmj.s 			page 30


 611 0046 5B       		.byte	91
 612 0047 04       		.byte	4
 613 0048 5C       		.byte	92
 614 0049 11       		.byte	17
 615 004a 5D       		.byte	93
 616 004b 33       		.byte	51
 617 004c 5F       		.byte	95
 618 004d 01       		.byte	1
 619 004e 60       		.byte	96
 620 004f 40       		.byte	64
 621 0050 62       		.byte	98
 622 0051 40       		.byte	64
 623 0052 64       		.byte	100
 624 0053 40       		.byte	64
 625 0054 65       		.byte	101
 626 0055 40       		.byte	64
 627 0056 66       		.byte	102
 628 0057 80       		.byte	-128
 629 0058 68       		.byte	104
 630 0059 80       		.byte	-128
 631 005a 6A       		.byte	106
 632 005b 80       		.byte	-128
 633 005c 6C       		.byte	108
 634 005d 80       		.byte	-128
 635 005e 6E       		.byte	110
 636 005f 80       		.byte	-128
 637 0060 80       		.byte	-128
 638 0061 16       		.byte	22
 639 0062 81       		.byte	-127
 640 0063 0C       		.byte	12
 641 0064 82       		.byte	-126
 642 0065 08       		.byte	8
 643 0066 83       		.byte	-125
 644 0067 01       		.byte	1
 645 0068 85       		.byte	-123
 646 0069 07       		.byte	7
 647 006a 88       		.byte	-120
 648 006b 10       		.byte	16
 649 006c 8A       		.byte	-118
 650 006d 02       		.byte	2
 651 006e 8C       		.byte	-116
 652 006f 18       		.byte	24
 653 0070 8D       		.byte	-115
 654 0071 08       		.byte	8
 655 0072 8E       		.byte	-114
 656 0073 04       		.byte	4
 657 0074 8F       		.byte	-113
 658 0075 01       		.byte	1
 659 0076 91       		.byte	-111
 660 0077 0C       		.byte	12
 661 0078 92       		.byte	-110
 662 0079 1E       		.byte	30
 663 007a 93       		.byte	-109
 664 007b 02       		.byte	2
 665 007c 97       		.byte	-105
 666 007d 0F       		.byte	15
 667 007e 98       		.byte	-104
ARM GAS  C:\Users\austc\AppData\Local\Temp\ccOBcOmj.s 			page 31


 668 007f 0E       		.byte	14
 669 0080 9E       		.byte	-98
 670 0081 01       		.byte	1
 671 0082 A2       		.byte	-94
 672 0083 01       		.byte	1
 673 0084 AC       		.byte	-84
 674 0085 18       		.byte	24
 675 0086 AD       		.byte	-83
 676 0087 0B       		.byte	11
 677 0088 AE       		.byte	-82
 678 0089 02       		.byte	2
 679 008a AF       		.byte	-81
 680 008b 04       		.byte	4
 681 008c B0       		.byte	-80
 682 008d 01       		.byte	1
 683 008e B1       		.byte	-79
 684 008f 0F       		.byte	15
 685 0090 B6       		.byte	-74
 686 0091 1E       		.byte	30
 687 0092 BE       		.byte	-66
 688 0093 01       		.byte	1
 689 0094 C0       		.byte	-64
 690 0095 54       		.byte	84
 691 0096 C9       		.byte	-55
 692 0097 FF       		.byte	-1
 693 0098 CA       		.byte	-54
 694 0099 FF       		.byte	-1
 695 009a CB       		.byte	-53
 696 009b FF       		.byte	-1
 697 009c CD       		.byte	-51
 698 009d 83       		.byte	-125
 699 009e CE       		.byte	-50
 700 009f 03       		.byte	3
 701 00a0 CF       		.byte	-49
 702 00a1 01       		.byte	1
 703 00a2 D0       		.byte	-48
 704 00a3 18       		.byte	24
 705 00a4 D4       		.byte	-44
 706 00a5 01       		.byte	1
 707 00a6 D6       		.byte	-42
 708 00a7 04       		.byte	4
 709 00a8 D8       		.byte	-40
 710 00a9 04       		.byte	4
 711 00aa D9       		.byte	-39
 712 00ab 04       		.byte	4
 713 00ac DA       		.byte	-38
 714 00ad 04       		.byte	4
 715 00ae DB       		.byte	-37
 716 00af 04       		.byte	4
 717 00b0 DC       		.byte	-36
 718 00b1 11       		.byte	17
 719 00b2 DD       		.byte	-35
 720 00b3 33       		.byte	51
 721 00b4 DF       		.byte	-33
 722 00b5 01       		.byte	1
 723 00b6 E0       		.byte	-32
 724 00b7 40       		.byte	64
ARM GAS  C:\Users\austc\AppData\Local\Temp\ccOBcOmj.s 			page 32


 725 00b8 E2       		.byte	-30
 726 00b9 40       		.byte	64
 727 00ba E4       		.byte	-28
 728 00bb 40       		.byte	64
 729 00bc E5       		.byte	-27
 730 00bd 40       		.byte	64
 731 00be E6       		.byte	-26
 732 00bf 80       		.byte	-128
 733 00c0 E8       		.byte	-24
 734 00c1 80       		.byte	-128
 735 00c2 EA       		.byte	-22
 736 00c3 80       		.byte	-128
 737 00c4 EC       		.byte	-20
 738 00c5 80       		.byte	-128
 739 00c6 EE       		.byte	-18
 740 00c7 80       		.byte	-128
 741 00c8 03       		.byte	3
 742 00c9 02       		.byte	2
 743 00ca 04       		.byte	4
 744 00cb 10       		.byte	16
 745 00cc 05       		.byte	5
 746 00cd 40       		.byte	64
 747 00ce 07       		.byte	7
 748 00cf 80       		.byte	-128
 749 00d0 0D       		.byte	13
 750 00d1 21       		.byte	33
 751 00d2 0E       		.byte	14
 752 00d3 02       		.byte	2
 753 00d4 13       		.byte	19
 754 00d5 08       		.byte	8
 755 00d6 16       		.byte	22
 756 00d7 80       		.byte	-128
 757 00d8 17       		.byte	23
 758 00d9 40       		.byte	64
 759 00da 18       		.byte	24
 760 00db 01       		.byte	1
 761 00dc 19       		.byte	25
 762 00dd 01       		.byte	1
 763 00de 1D       		.byte	29
 764 00df 40       		.byte	64
 765 00e0 1E       		.byte	30
 766 00e1 41       		.byte	65
 767 00e2 1F       		.byte	31
 768 00e3 40       		.byte	64
 769 00e4 20       		.byte	32
 770 00e5 10       		.byte	16
 771 00e6 22       		.byte	34
 772 00e7 18       		.byte	24
 773 00e8 23       		.byte	35
 774 00e9 08       		.byte	8
 775 00ea 26       		.byte	38
 776 00eb 02       		.byte	2
 777 00ec 27       		.byte	39
 778 00ed 40       		.byte	64
 779 00ee 29       		.byte	41
 780 00ef 01       		.byte	1
 781 00f0 2D       		.byte	45
ARM GAS  C:\Users\austc\AppData\Local\Temp\ccOBcOmj.s 			page 33


 782 00f1 80       		.byte	-128
 783 00f2 32       		.byte	50
 784 00f3 18       		.byte	24
 785 00f4 36       		.byte	54
 786 00f5 0A       		.byte	10
 787 00f6 38       		.byte	56
 788 00f7 01       		.byte	1
 789 00f8 3C       		.byte	60
 790 00f9 88       		.byte	-120
 791 00fa 3E       		.byte	62
 792 00fb 01       		.byte	1
 793 00fc 42       		.byte	66
 794 00fd 80       		.byte	-128
 795 00fe 46       		.byte	70
 796 00ff 80       		.byte	-128
 797 0100 48       		.byte	72
 798 0101 02       		.byte	2
 799 0102 4A       		.byte	74
 800 0103 01       		.byte	1
 801 0104 4C       		.byte	76
 802 0105 02       		.byte	2
 803 0106 5D       		.byte	93
 804 0107 01       		.byte	1
 805 0108 5E       		.byte	94
 806 0109 40       		.byte	64
 807 010a 5F       		.byte	95
 808 010b 04       		.byte	4
 809 010c 64       		.byte	100
 810 010d 40       		.byte	64
 811 010e 70       		.byte	112
 812 010f 02       		.byte	2
 813 0110 84       		.byte	-124
 814 0111 40       		.byte	64
 815 0112 C0       		.byte	-64
 816 0113 D1       		.byte	-47
 817 0114 C2       		.byte	-62
 818 0115 D0       		.byte	-48
 819 0116 C4       		.byte	-60
 820 0117 94       		.byte	-108
 821 0118 CA       		.byte	-54
 822 0119 11       		.byte	17
 823 011a CC       		.byte	-52
 824 011b C6       		.byte	-58
 825 011c CE       		.byte	-50
 826 011d D1       		.byte	-47
 827 011e D0       		.byte	-48
 828 011f 81       		.byte	-127
 829 0120 D2       		.byte	-46
 830 0121 18       		.byte	24
 831 0122 D6       		.byte	-42
 832 0123 D0       		.byte	-48
 833 0124 D8       		.byte	-40
 834 0125 80       		.byte	-128
 835 0126 00       		.byte	0
 836 0127 C5       		.byte	-59
 837 0128 01       		.byte	1
 838 0129 30       		.byte	48
ARM GAS  C:\Users\austc\AppData\Local\Temp\ccOBcOmj.s 			page 34


 839 012a 02       		.byte	2
 840 012b 3A       		.byte	58
 841 012c 03       		.byte	3
 842 012d 0C       		.byte	12
 843 012e 05       		.byte	5
 844 012f 1C       		.byte	28
 845 0130 08       		.byte	8
 846 0131 96       		.byte	-106
 847 0132 0A       		.byte	10
 848 0133 68       		.byte	104
 849 0134 0C       		.byte	12
 850 0135 FE       		.byte	-2
 851 0136 0D       		.byte	13
 852 0137 0C       		.byte	12
 853 0138 0E       		.byte	14
 854 0139 01       		.byte	1
 855 013a 0F       		.byte	15
 856 013b 30       		.byte	48
 857 013c 10       		.byte	16
 858 013d 0E       		.byte	14
 859 013e 11       		.byte	17
 860 013f 28       		.byte	40
 861 0140 12       		.byte	18
 862 0141 F0       		.byte	-16
 863 0142 13       		.byte	19
 864 0143 14       		.byte	20
 865 0144 15       		.byte	21
 866 0145 14       		.byte	20
 867 0146 16       		.byte	22
 868 0147 01       		.byte	1
 869 0148 17       		.byte	23
 870 0149 28       		.byte	40
 871 014a 18       		.byte	24
 872 014b 7F       		.byte	127
 873 014c 1C       		.byte	28
 874 014d A3       		.byte	-93
 875 014e 1D       		.byte	29
 876 014f 3C       		.byte	60
 877 0150 1E       		.byte	30
 878 0151 5C       		.byte	92
 879 0152 27       		.byte	39
 880 0153 01       		.byte	1
 881 0154 2B       		.byte	43
 882 0155 02       		.byte	2
 883 0156 31       		.byte	49
 884 0157 3C       		.byte	60
 885 0158 32       		.byte	50
 886 0159 FF       		.byte	-1
 887 015a 33       		.byte	51
 888 015b 02       		.byte	2
 889 015c 37       		.byte	55
 890 015d 01       		.byte	1
 891 015e 3E       		.byte	62
 892 015f 04       		.byte	4
 893 0160 40       		.byte	64
 894 0161 54       		.byte	84
 895 0162 45       		.byte	69
ARM GAS  C:\Users\austc\AppData\Local\Temp\ccOBcOmj.s 			page 35


 896 0163 EC       		.byte	-20
 897 0164 46       		.byte	70
 898 0165 02       		.byte	2
 899 0166 48       		.byte	72
 900 0167 07       		.byte	7
 901 0168 49       		.byte	73
 902 0169 FF       		.byte	-1
 903 016a 4A       		.byte	74
 904 016b FF       		.byte	-1
 905 016c 4B       		.byte	75
 906 016d FF       		.byte	-1
 907 016e 4D       		.byte	77
 908 016f 83       		.byte	-125
 909 0170 4E       		.byte	78
 910 0171 03       		.byte	3
 911 0172 4F       		.byte	79
 912 0173 01       		.byte	1
 913 0174 50       		.byte	80
 914 0175 18       		.byte	24
 915 0176 58       		.byte	88
 916 0177 04       		.byte	4
 917 0178 59       		.byte	89
 918 0179 04       		.byte	4
 919 017a 5A       		.byte	90
 920 017b 04       		.byte	4
 921 017c 5C       		.byte	92
 922 017d 10       		.byte	16
 923 017e 5D       		.byte	93
 924 017f 03       		.byte	3
 925 0180 5F       		.byte	95
 926 0181 01       		.byte	1
 927 0182 60       		.byte	96
 928 0183 40       		.byte	64
 929 0184 62       		.byte	98
 930 0185 40       		.byte	64
 931 0186 64       		.byte	100
 932 0187 40       		.byte	64
 933 0188 65       		.byte	101
 934 0189 40       		.byte	64
 935 018a 66       		.byte	102
 936 018b 80       		.byte	-128
 937 018c 68       		.byte	104
 938 018d 80       		.byte	-128
 939 018e 6A       		.byte	106
 940 018f 80       		.byte	-128
 941 0190 6C       		.byte	108
 942 0191 80       		.byte	-128
 943 0192 6E       		.byte	110
 944 0193 80       		.byte	-128
 945 0194 81       		.byte	-127
 946 0195 02       		.byte	2
 947 0196 83       		.byte	-125
 948 0197 01       		.byte	1
 949 0198 9D       		.byte	-99
 950 0199 01       		.byte	1
 951 019a 9E       		.byte	-98
 952 019b 02       		.byte	2
ARM GAS  C:\Users\austc\AppData\Local\Temp\ccOBcOmj.s 			page 36


 953 019c 9F       		.byte	-97
 954 019d 02       		.byte	2
 955 019e A9       		.byte	-87
 956 019f 01       		.byte	1
 957 01a0 AB       		.byte	-85
 958 01a1 02       		.byte	2
 959 01a2 AD       		.byte	-83
 960 01a3 01       		.byte	1
 961 01a4 AE       		.byte	-82
 962 01a5 01       		.byte	1
 963 01a6 AF       		.byte	-81
 964 01a7 02       		.byte	2
 965 01a8 B1       		.byte	-79
 966 01a9 03       		.byte	3
 967 01aa B4       		.byte	-76
 968 01ab 02       		.byte	2
 969 01ac B6       		.byte	-74
 970 01ad 01       		.byte	1
 971 01ae BB       		.byte	-69
 972 01af 02       		.byte	2
 973 01b0 D8       		.byte	-40
 974 01b1 04       		.byte	4
 975 01b2 D9       		.byte	-39
 976 01b3 04       		.byte	4
 977 01b4 DB       		.byte	-37
 978 01b5 04       		.byte	4
 979 01b6 DC       		.byte	-36
 980 01b7 11       		.byte	17
 981 01b8 DF       		.byte	-33
 982 01b9 01       		.byte	1
 983 01ba 04       		.byte	4
 984 01bb 90       		.byte	-112
 985 01bc 05       		.byte	5
 986 01bd 82       		.byte	-126
 987 01be 07       		.byte	7
 988 01bf 40       		.byte	64
 989 01c0 0A       		.byte	10
 990 01c1 02       		.byte	2
 991 01c2 0C       		.byte	12
 992 01c3 08       		.byte	8
 993 01c4 0D       		.byte	13
 994 01c5 20       		.byte	32
 995 01c6 0E       		.byte	14
 996 01c7 21       		.byte	33
 997 01c8 0F       		.byte	15
 998 01c9 40       		.byte	64
 999 01ca 11       		.byte	17
 1000 01cb 80       		.byte	-128
 1001 01cc 19       		.byte	25
 1002 01cd 60       		.byte	96
 1003 01ce 1A       		.byte	26
 1004 01cf 02       		.byte	2
 1005 01d0 1F       		.byte	31
 1006 01d1 08       		.byte	8
 1007 01d2 20       		.byte	32
 1008 01d3 80       		.byte	-128
 1009 01d4 21       		.byte	33
ARM GAS  C:\Users\austc\AppData\Local\Temp\ccOBcOmj.s 			page 37


 1010 01d5 01       		.byte	1
 1011 01d6 23       		.byte	35
 1012 01d7 40       		.byte	64
 1013 01d8 24       		.byte	36
 1014 01d9 80       		.byte	-128
 1015 01da 25       		.byte	37
 1016 01db C1       		.byte	-63
 1017 01dc 27       		.byte	39
 1018 01dd 90       		.byte	-112
 1019 01de 29       		.byte	41
 1020 01df 60       		.byte	96
 1021 01e0 2C       		.byte	44
 1022 01e1 08       		.byte	8
 1023 01e2 2F       		.byte	47
 1024 01e3 20       		.byte	32
 1025 01e4 31       		.byte	49
 1026 01e5 80       		.byte	-128
 1027 01e6 35       		.byte	53
 1028 01e7 02       		.byte	2
 1029 01e8 36       		.byte	54
 1030 01e9 08       		.byte	8
 1031 01ea 37       		.byte	55
 1032 01eb 80       		.byte	-128
 1033 01ec 39       		.byte	57
 1034 01ed 02       		.byte	2
 1035 01ee 3C       		.byte	60
 1036 01ef 08       		.byte	8
 1037 01f0 3E       		.byte	62
 1038 01f1 01       		.byte	1
 1039 01f2 3F       		.byte	63
 1040 01f3 40       		.byte	64
 1041 01f4 46       		.byte	70
 1042 01f5 80       		.byte	-128
 1043 01f6 4C       		.byte	76
 1044 01f7 02       		.byte	2
 1045 01f8 4D       		.byte	77
 1046 01f9 01       		.byte	1
 1047 01fa 4F       		.byte	79
 1048 01fb 04       		.byte	4
 1049 01fc 56       		.byte	86
 1050 01fd 80       		.byte	-128
 1051 01fe 58       		.byte	88
 1052 01ff A0       		.byte	-96
 1053 0200 59       		.byte	89
 1054 0201 04       		.byte	4
 1055 0202 90       		.byte	-112
 1056 0203 10       		.byte	16
 1057 0204 92       		.byte	-110
 1058 0205 01       		.byte	1
 1059 0206 93       		.byte	-109
 1060 0207 80       		.byte	-128
 1061 0208 95       		.byte	-107
 1062 0209 03       		.byte	3
 1063 020a 97       		.byte	-105
 1064 020b 04       		.byte	4
 1065 020c 9B       		.byte	-101
 1066 020d 40       		.byte	64
ARM GAS  C:\Users\austc\AppData\Local\Temp\ccOBcOmj.s 			page 38


 1067 020e 9D       		.byte	-99
 1068 020f 80       		.byte	-128
 1069 0210 9E       		.byte	-98
 1070 0211 80       		.byte	-128
 1071 0212 9F       		.byte	-97
 1072 0213 80       		.byte	-128
 1073 0214 A0       		.byte	-96
 1074 0215 02       		.byte	2
 1075 0216 A2       		.byte	-94
 1076 0217 08       		.byte	8
 1077 0218 A4       		.byte	-92
 1078 0219 44       		.byte	68
 1079 021a A5       		.byte	-91
 1080 021b 20       		.byte	32
 1081 021c A7       		.byte	-89
 1082 021d 02       		.byte	2
 1083 021e C0       		.byte	-64
 1084 021f D0       		.byte	-48
 1085 0220 C2       		.byte	-62
 1086 0221 F1       		.byte	-15
 1087 0222 C4       		.byte	-60
 1088 0223 01       		.byte	1
 1089 0224 CA       		.byte	-54
 1090 0225 6C       		.byte	108
 1091 0226 CC       		.byte	-52
 1092 0227 D8       		.byte	-40
 1093 0228 CE       		.byte	-50
 1094 0229 D1       		.byte	-47
 1095 022a D0       		.byte	-48
 1096 022b 80       		.byte	-128
 1097 022c D2       		.byte	-46
 1098 022d 10       		.byte	16
 1099 022e D6       		.byte	-42
 1100 022f 0E       		.byte	14
 1101 0230 05       		.byte	5
 1102 0231 02       		.byte	2
 1103 0232 0C       		.byte	12
 1104 0233 08       		.byte	8
 1105 0234 15       		.byte	21
 1106 0235 01       		.byte	1
 1107 0236 18       		.byte	24
 1108 0237 01       		.byte	1
 1109 0238 24       		.byte	36
 1110 0239 03       		.byte	3
 1111 023a 2C       		.byte	44
 1112 023b 03       		.byte	3
 1113 023c 2E       		.byte	46
 1114 023d 0C       		.byte	12
 1115 023e 30       		.byte	48
 1116 023f 04       		.byte	4
 1117 0240 32       		.byte	50
 1118 0241 02       		.byte	2
 1119 0242 34       		.byte	52
 1120 0243 08       		.byte	8
 1121 0244 35       		.byte	53
 1122 0245 02       		.byte	2
 1123 0246 36       		.byte	54
ARM GAS  C:\Users\austc\AppData\Local\Temp\ccOBcOmj.s 			page 39


 1124 0247 01       		.byte	1
 1125 0248 37       		.byte	55
 1126 0249 01       		.byte	1
 1127 024a 38       		.byte	56
 1128 024b 88       		.byte	-120
 1129 024c 3E       		.byte	62
 1130 024d 50       		.byte	80
 1131 024e 40       		.byte	64
 1132 024f 31       		.byte	49
 1133 0250 41       		.byte	65
 1134 0251 02       		.byte	2
 1135 0252 49       		.byte	73
 1136 0253 FF       		.byte	-1
 1137 0254 4A       		.byte	74
 1138 0255 FF       		.byte	-1
 1139 0256 4B       		.byte	75
 1140 0257 FF       		.byte	-1
 1141 0258 4D       		.byte	77
 1142 0259 A0       		.byte	-96
 1143 025a 4F       		.byte	79
 1144 025b 01       		.byte	1
 1145 025c 50       		.byte	80
 1146 025d 18       		.byte	24
 1147 025e 56       		.byte	86
 1148 025f 04       		.byte	4
 1149 0260 58       		.byte	88
 1150 0261 04       		.byte	4
 1151 0262 59       		.byte	89
 1152 0263 04       		.byte	4
 1153 0264 5A       		.byte	90
 1154 0265 04       		.byte	4
 1155 0266 5B       		.byte	91
 1156 0267 04       		.byte	4
 1157 0268 5C       		.byte	92
 1158 0269 21       		.byte	33
 1159 026a 5D       		.byte	93
 1160 026b 01       		.byte	1
 1161 026c 5F       		.byte	95
 1162 026d 01       		.byte	1
 1163 026e 60       		.byte	96
 1164 026f 40       		.byte	64
 1165 0270 62       		.byte	98
 1166 0271 80       		.byte	-128
 1167 0272 64       		.byte	100
 1168 0273 40       		.byte	64
 1169 0274 65       		.byte	101
 1170 0275 40       		.byte	64
 1171 0276 66       		.byte	102
 1172 0277 80       		.byte	-128
 1173 0278 68       		.byte	104
 1174 0279 40       		.byte	64
 1175 027a 6A       		.byte	106
 1176 027b 80       		.byte	-128
 1177 027c 6C       		.byte	108
 1178 027d 40       		.byte	64
 1179 027e 6D       		.byte	109
 1180 027f 20       		.byte	32
ARM GAS  C:\Users\austc\AppData\Local\Temp\ccOBcOmj.s 			page 40


 1181 0280 6E       		.byte	110
 1182 0281 80       		.byte	-128
 1183 0282 80       		.byte	-128
 1184 0283 0C       		.byte	12
 1185 0284 81       		.byte	-127
 1186 0285 01       		.byte	1
 1187 0286 84       		.byte	-124
 1188 0287 01       		.byte	1
 1189 0288 8C       		.byte	-116
 1190 0289 0A       		.byte	10
 1191 028a 8D       		.byte	-115
 1192 028b 01       		.byte	1
 1193 028c 96       		.byte	-106
 1194 028d 01       		.byte	1
 1195 028e 97       		.byte	-105
 1196 028f 01       		.byte	1
 1197 0290 98       		.byte	-104
 1198 0291 06       		.byte	6
 1199 0292 9C       		.byte	-100
 1200 0293 0C       		.byte	12
 1201 0294 9D       		.byte	-99
 1202 0295 01       		.byte	1
 1203 0296 A1       		.byte	-95
 1204 0297 01       		.byte	1
 1205 0298 A2       		.byte	-94
 1206 0299 01       		.byte	1
 1207 029a AB       		.byte	-85
 1208 029b 02       		.byte	2
 1209 029c B2       		.byte	-78
 1210 029d 01       		.byte	1
 1211 029e B4       		.byte	-76
 1212 029f 0E       		.byte	14
 1213 02a0 B5       		.byte	-75
 1214 02a1 03       		.byte	3
 1215 02a2 B8       		.byte	-72
 1216 02a3 20       		.byte	32
 1217 02a4 BE       		.byte	-66
 1218 02a5 04       		.byte	4
 1219 02a6 C0       		.byte	-64
 1220 02a7 35       		.byte	53
 1221 02a8 C1       		.byte	-63
 1222 02a9 02       		.byte	2
 1223 02aa C5       		.byte	-59
 1224 02ab 0C       		.byte	12
 1225 02ac C6       		.byte	-58
 1226 02ad 23       		.byte	35
 1227 02ae C7       		.byte	-57
 1228 02af 4E       		.byte	78
 1229 02b0 C8       		.byte	-56
 1230 02b1 3D       		.byte	61
 1231 02b2 C9       		.byte	-55
 1232 02b3 FF       		.byte	-1
 1233 02b4 CA       		.byte	-54
 1234 02b5 FF       		.byte	-1
 1235 02b6 CB       		.byte	-53
 1236 02b7 FF       		.byte	-1
 1237 02b8 CD       		.byte	-51
ARM GAS  C:\Users\austc\AppData\Local\Temp\ccOBcOmj.s 			page 41


 1238 02b9 AF       		.byte	-81
 1239 02ba CE       		.byte	-50
 1240 02bb 07       		.byte	7
 1241 02bc CF       		.byte	-49
 1242 02bd 01       		.byte	1
 1243 02be D0       		.byte	-48
 1244 02bf 18       		.byte	24
 1245 02c0 D2       		.byte	-46
 1246 02c1 80       		.byte	-128
 1247 02c2 D8       		.byte	-40
 1248 02c3 04       		.byte	4
 1249 02c4 D9       		.byte	-39
 1250 02c5 04       		.byte	4
 1251 02c6 DA       		.byte	-38
 1252 02c7 04       		.byte	4
 1253 02c8 DB       		.byte	-37
 1254 02c9 04       		.byte	4
 1255 02ca DC       		.byte	-36
 1256 02cb 11       		.byte	17
 1257 02cc DD       		.byte	-35
 1258 02cd 11       		.byte	17
 1259 02ce DF       		.byte	-33
 1260 02cf 01       		.byte	1
 1261 02d0 E0       		.byte	-32
 1262 02d1 40       		.byte	64
 1263 02d2 E2       		.byte	-30
 1264 02d3 80       		.byte	-128
 1265 02d4 E4       		.byte	-28
 1266 02d5 40       		.byte	64
 1267 02d6 E5       		.byte	-27
 1268 02d7 40       		.byte	64
 1269 02d8 E6       		.byte	-26
 1270 02d9 80       		.byte	-128
 1271 02da E8       		.byte	-24
 1272 02db 40       		.byte	64
 1273 02dc EA       		.byte	-22
 1274 02dd 80       		.byte	-128
 1275 02de EC       		.byte	-20
 1276 02df 40       		.byte	64
 1277 02e0 ED       		.byte	-19
 1278 02e1 20       		.byte	32
 1279 02e2 EE       		.byte	-18
 1280 02e3 80       		.byte	-128
 1281 02e4 00       		.byte	0
 1282 02e5 40       		.byte	64
 1283 02e6 04       		.byte	4
 1284 02e7 80       		.byte	-128
 1285 02e8 07       		.byte	7
 1286 02e9 50       		.byte	80
 1287 02ea 09       		.byte	9
 1288 02eb 20       		.byte	32
 1289 02ec 0D       		.byte	13
 1290 02ed 20       		.byte	32
 1291 02ee 0E       		.byte	14
 1292 02ef 21       		.byte	33
 1293 02f0 10       		.byte	16
 1294 02f1 20       		.byte	32
ARM GAS  C:\Users\austc\AppData\Local\Temp\ccOBcOmj.s 			page 42


 1295 02f2 11       		.byte	17
 1296 02f3 80       		.byte	-128
 1297 02f4 16       		.byte	22
 1298 02f5 40       		.byte	64
 1299 02f6 18       		.byte	24
 1300 02f7 51       		.byte	81
 1301 02f8 1A       		.byte	26
 1302 02f9 04       		.byte	4
 1303 02fa 1B       		.byte	27
 1304 02fb 40       		.byte	64
 1305 02fc 1C       		.byte	28
 1306 02fd 08       		.byte	8
 1307 02fe 1D       		.byte	29
 1308 02ff 28       		.byte	40
 1309 0300 22       		.byte	34
 1310 0301 50       		.byte	80
 1311 0302 26       		.byte	38
 1312 0303 10       		.byte	16
 1313 0304 2F       		.byte	47
 1314 0305 48       		.byte	72
 1315 0306 30       		.byte	48
 1316 0307 04       		.byte	4
 1317 0308 36       		.byte	54
 1318 0309 08       		.byte	8
 1319 030a 37       		.byte	55
 1320 030b 40       		.byte	64
 1321 030c 39       		.byte	57
 1322 030d 08       		.byte	8
 1323 030e 3A       		.byte	58
 1324 030f 20       		.byte	32
 1325 0310 3B       		.byte	59
 1326 0311 10       		.byte	16
 1327 0312 3C       		.byte	60
 1328 0313 80       		.byte	-128
 1329 0314 3D       		.byte	61
 1330 0315 02       		.byte	2
 1331 0316 40       		.byte	64
 1332 0317 0D       		.byte	13
 1333 0318 41       		.byte	65
 1334 0319 08       		.byte	8
 1335 031a 44       		.byte	68
 1336 031b 08       		.byte	8
 1337 031c 45       		.byte	69
 1338 031d 08       		.byte	8
 1339 031e 4F       		.byte	79
 1340 031f 84       		.byte	-124
 1341 0320 54       		.byte	84
 1342 0321 20       		.byte	32
 1343 0322 55       		.byte	85
 1344 0323 40       		.byte	64
 1345 0324 56       		.byte	86
 1346 0325 28       		.byte	40
 1347 0326 57       		.byte	87
 1348 0327 01       		.byte	1
 1349 0328 5A       		.byte	90
 1350 0329 A0       		.byte	-96
 1351 032a 63       		.byte	99
ARM GAS  C:\Users\austc\AppData\Local\Temp\ccOBcOmj.s 			page 43


 1352 032b 40       		.byte	64
 1353 032c 76       		.byte	118
 1354 032d 40       		.byte	64
 1355 032e 84       		.byte	-124
 1356 032f 04       		.byte	4
 1357 0330 87       		.byte	-121
 1358 0331 40       		.byte	64
 1359 0332 90       		.byte	-112
 1360 0333 80       		.byte	-128
 1361 0334 92       		.byte	-110
 1362 0335 01       		.byte	1
 1363 0336 93       		.byte	-109
 1364 0337 80       		.byte	-128
 1365 0338 9B       		.byte	-101
 1366 0339 50       		.byte	80
 1367 033a A0       		.byte	-96
 1368 033b 40       		.byte	64
 1369 033c A1       		.byte	-95
 1370 033d 01       		.byte	1
 1371 033e A2       		.byte	-94
 1372 033f 08       		.byte	8
 1373 0340 A3       		.byte	-93
 1374 0341 08       		.byte	8
 1375 0342 A4       		.byte	-92
 1376 0343 04       		.byte	4
 1377 0344 A5       		.byte	-91
 1378 0345 20       		.byte	32
 1379 0346 A6       		.byte	-90
 1380 0347 10       		.byte	16
 1381 0348 A9       		.byte	-87
 1382 0349 04       		.byte	4
 1383 034a AF       		.byte	-81
 1384 034b 22       		.byte	34
 1385 034c B0       		.byte	-80
 1386 034d 20       		.byte	32
 1387 034e B4       		.byte	-76
 1388 034f 80       		.byte	-128
 1389 0350 C0       		.byte	-64
 1390 0351 B1       		.byte	-79
 1391 0352 C2       		.byte	-62
 1392 0353 E2       		.byte	-30
 1393 0354 C4       		.byte	-60
 1394 0355 15       		.byte	21
 1395 0356 CA       		.byte	-54
 1396 0357 A0       		.byte	-96
 1397 0358 CC       		.byte	-52
 1398 0359 52       		.byte	82
 1399 035a CE       		.byte	-50
 1400 035b 92       		.byte	-110
 1401 035c D0       		.byte	-48
 1402 035d 6E       		.byte	110
 1403 035e D2       		.byte	-46
 1404 035f 10       		.byte	16
 1405 0360 D6       		.byte	-42
 1406 0361 0C       		.byte	12
 1407 0362 D8       		.byte	-40
 1408 0363 01       		.byte	1
ARM GAS  C:\Users\austc\AppData\Local\Temp\ccOBcOmj.s 			page 44


 1409 0364 EE       		.byte	-18
 1410 0365 01       		.byte	1
 1411 0366 00       		.byte	0
 1412 0367 01       		.byte	1
 1413 0368 01       		.byte	1
 1414 0369 FD       		.byte	-3
 1415 036a 02       		.byte	2
 1416 036b 02       		.byte	2
 1417 036c 03       		.byte	3
 1418 036d 02       		.byte	2
 1419 036e 05       		.byte	5
 1420 036f 73       		.byte	115
 1421 0370 06       		.byte	6
 1422 0371 07       		.byte	7
 1423 0372 08       		.byte	8
 1424 0373 10       		.byte	16
 1425 0374 0C       		.byte	12
 1426 0375 01       		.byte	1
 1427 0376 0D       		.byte	13
 1428 0377 94       		.byte	-108
 1429 0378 0E       		.byte	14
 1430 0379 02       		.byte	2
 1431 037a 0F       		.byte	15
 1432 037b 60       		.byte	96
 1433 037c 14       		.byte	20
 1434 037d 07       		.byte	7
 1435 037e 15       		.byte	21
 1436 037f 30       		.byte	48
 1437 0380 17       		.byte	23
 1438 0381 C9       		.byte	-55
 1439 0382 18       		.byte	24
 1440 0383 04       		.byte	4
 1441 0384 1D       		.byte	29
 1442 0385 9E       		.byte	-98
 1443 0386 1E       		.byte	30
 1444 0387 30       		.byte	48
 1445 0388 1F       		.byte	31
 1446 0389 60       		.byte	96
 1447 038a 21       		.byte	33
 1448 038b CF       		.byte	-49
 1449 038c 22       		.byte	34
 1450 038d 04       		.byte	4
 1451 038e 23       		.byte	35
 1452 038f 30       		.byte	48
 1453 0390 24       		.byte	36
 1454 0391 07       		.byte	7
 1455 0392 27       		.byte	39
 1456 0393 0F       		.byte	15
 1457 0394 2A       		.byte	42
 1458 0395 08       		.byte	8
 1459 0396 30       		.byte	48
 1460 0397 10       		.byte	16
 1461 0398 32       		.byte	50
 1462 0399 20       		.byte	32
 1463 039a 33       		.byte	51
 1464 039b FF       		.byte	-1
 1465 039c 34       		.byte	52
ARM GAS  C:\Users\austc\AppData\Local\Temp\ccOBcOmj.s 			page 45


 1466 039d 0F       		.byte	15
 1467 039e 3E       		.byte	62
 1468 039f 01       		.byte	1
 1469 03a0 3F       		.byte	63
 1470 03a1 04       		.byte	4
 1471 03a2 54       		.byte	84
 1472 03a3 0F       		.byte	15
 1473 03a4 58       		.byte	88
 1474 03a5 04       		.byte	4
 1475 03a6 59       		.byte	89
 1476 03a7 04       		.byte	4
 1477 03a8 5B       		.byte	91
 1478 03a9 04       		.byte	4
 1479 03aa 5C       		.byte	92
 1480 03ab 01       		.byte	1
 1481 03ac 5D       		.byte	93
 1482 03ad 10       		.byte	16
 1483 03ae 5F       		.byte	95
 1484 03af 05       		.byte	5
 1485 03b0 8B       		.byte	-117
 1486 03b1 06       		.byte	6
 1487 03b2 9B       		.byte	-101
 1488 03b3 01       		.byte	1
 1489 03b4 9C       		.byte	-100
 1490 03b5 01       		.byte	1
 1491 03b6 A5       		.byte	-91
 1492 03b7 04       		.byte	4
 1493 03b8 A6       		.byte	-90
 1494 03b9 01       		.byte	1
 1495 03ba A7       		.byte	-89
 1496 03bb 02       		.byte	2
 1497 03bc A9       		.byte	-87
 1498 03bd 06       		.byte	6
 1499 03be B0       		.byte	-80
 1500 03bf 01       		.byte	1
 1501 03c0 B1       		.byte	-79
 1502 03c1 01       		.byte	1
 1503 03c2 B3       		.byte	-77
 1504 03c3 04       		.byte	4
 1505 03c4 B7       		.byte	-73
 1506 03c5 02       		.byte	2
 1507 03c6 BE       		.byte	-66
 1508 03c7 01       		.byte	1
 1509 03c8 BF       		.byte	-65
 1510 03c9 44       		.byte	68
 1511 03ca D4       		.byte	-44
 1512 03cb 0F       		.byte	15
 1513 03cc D8       		.byte	-40
 1514 03cd 04       		.byte	4
 1515 03ce D9       		.byte	-39
 1516 03cf 04       		.byte	4
 1517 03d0 DB       		.byte	-37
 1518 03d1 04       		.byte	4
 1519 03d2 DC       		.byte	-36
 1520 03d3 10       		.byte	16
 1521 03d4 DD       		.byte	-35
 1522 03d5 10       		.byte	16
ARM GAS  C:\Users\austc\AppData\Local\Temp\ccOBcOmj.s 			page 46


 1523 03d6 DF       		.byte	-33
 1524 03d7 01       		.byte	1
 1525 03d8 04       		.byte	4
 1526 03d9 44       		.byte	68
 1527 03da 05       		.byte	5
 1528 03db 20       		.byte	32
 1529 03dc 07       		.byte	7
 1530 03dd 40       		.byte	64
 1531 03de 0A       		.byte	10
 1532 03df 02       		.byte	2
 1533 03e0 0E       		.byte	14
 1534 03e1 08       		.byte	8
 1535 03e2 0F       		.byte	15
 1536 03e3 22       		.byte	34
 1537 03e4 10       		.byte	16
 1538 03e5 20       		.byte	32
 1539 03e6 15       		.byte	21
 1540 03e7 05       		.byte	5
 1541 03e8 17       		.byte	23
 1542 03e9 14       		.byte	20
 1543 03ea 19       		.byte	25
 1544 03eb 02       		.byte	2
 1545 03ec 1C       		.byte	28
 1546 03ed 04       		.byte	4
 1547 03ee 1E       		.byte	30
 1548 03ef 40       		.byte	64
 1549 03f0 1F       		.byte	31
 1550 03f1 28       		.byte	40
 1551 03f2 22       		.byte	34
 1552 03f3 41       		.byte	65
 1553 03f4 23       		.byte	35
 1554 03f5 20       		.byte	32
 1555 03f6 27       		.byte	39
 1556 03f7 10       		.byte	16
 1557 03f8 29       		.byte	41
 1558 03f9 20       		.byte	32
 1559 03fa 2B       		.byte	43
 1560 03fb 28       		.byte	40
 1561 03fc 2D       		.byte	45
 1562 03fd 01       		.byte	1
 1563 03fe 2F       		.byte	47
 1564 03ff 60       		.byte	96
 1565 0400 30       		.byte	48
 1566 0401 20       		.byte	32
 1567 0402 36       		.byte	54
 1568 0403 0C       		.byte	12
 1569 0404 37       		.byte	55
 1570 0405 40       		.byte	64
 1571 0406 38       		.byte	56
 1572 0407 10       		.byte	16
 1573 0408 3C       		.byte	60
 1574 0409 C8       		.byte	-56
 1575 040a 3D       		.byte	61
 1576 040b 06       		.byte	6
 1577 040c 3E       		.byte	62
 1578 040d 01       		.byte	1
 1579 040e 5A       		.byte	90
ARM GAS  C:\Users\austc\AppData\Local\Temp\ccOBcOmj.s 			page 47


 1580 040f 81       		.byte	-127
 1581 0410 5B       		.byte	91
 1582 0411 24       		.byte	36
 1583 0412 5D       		.byte	93
 1584 0413 02       		.byte	2
 1585 0414 5E       		.byte	94
 1586 0415 44       		.byte	68
 1587 0416 5F       		.byte	95
 1588 0417 10       		.byte	16
 1589 0418 66       		.byte	102
 1590 0419 08       		.byte	8
 1591 041a 67       		.byte	103
 1592 041b 04       		.byte	4
 1593 041c 7D       		.byte	125
 1594 041d 04       		.byte	4
 1595 041e 81       		.byte	-127
 1596 041f 01       		.byte	1
 1597 0420 83       		.byte	-125
 1598 0421 10       		.byte	16
 1599 0422 90       		.byte	-112
 1600 0423 10       		.byte	16
 1601 0424 92       		.byte	-110
 1602 0425 04       		.byte	4
 1603 0426 93       		.byte	-109
 1604 0427 94       		.byte	-108
 1605 0428 94       		.byte	-108
 1606 0429 04       		.byte	4
 1607 042a 9A       		.byte	-102
 1608 042b 08       		.byte	8
 1609 042c 9B       		.byte	-101
 1610 042d 40       		.byte	64
 1611 042e A0       		.byte	-96
 1612 042f 64       		.byte	100
 1613 0430 A1       		.byte	-95
 1614 0431 01       		.byte	1
 1615 0432 A2       		.byte	-94
 1616 0433 08       		.byte	8
 1617 0434 A3       		.byte	-93
 1618 0435 01       		.byte	1
 1619 0436 AD       		.byte	-83
 1620 0437 04       		.byte	4
 1621 0438 C0       		.byte	-64
 1622 0439 F0       		.byte	-16
 1623 043a C2       		.byte	-62
 1624 043b E1       		.byte	-31
 1625 043c C4       		.byte	-60
 1626 043d 74       		.byte	116
 1627 043e CA       		.byte	-54
 1628 043f C6       		.byte	-58
 1629 0440 CC       		.byte	-52
 1630 0441 54       		.byte	84
 1631 0442 CE       		.byte	-50
 1632 0443 D4       		.byte	-44
 1633 0444 D6       		.byte	-42
 1634 0445 FF       		.byte	-1
 1635 0446 D8       		.byte	-40
 1636 0447 60       		.byte	96
ARM GAS  C:\Users\austc\AppData\Local\Temp\ccOBcOmj.s 			page 48


 1637 0448 DE       		.byte	-34
 1638 0449 40       		.byte	64
 1639 044a 6B       		.byte	107
 1640 044b 02       		.byte	2
 1641 044c 6E       		.byte	110
 1642 044d 20       		.byte	32
 1643 044e 86       		.byte	-122
 1644 044f 10       		.byte	16
 1645 0450 DA       		.byte	-38
 1646 0451 C0       		.byte	-64
 1647 0452 E6       		.byte	-26
 1648 0453 10       		.byte	16
 1649 0454 03       		.byte	3
 1650 0455 80       		.byte	-128
 1651 0456 06       		.byte	6
 1652 0457 20       		.byte	32
 1653 0458 9F       		.byte	-97
 1654 0459 02       		.byte	2
 1655 045a C0       		.byte	-64
 1656 045b 30       		.byte	48
 1657 045c 0B       		.byte	11
 1658 045d 80       		.byte	-128
 1659 045e 0F       		.byte	15
 1660 045f 10       		.byte	16
 1661 0460 87       		.byte	-121
 1662 0461 42       		.byte	66
 1663 0462 9F       		.byte	-97
 1664 0463 02       		.byte	2
 1665 0464 AE       		.byte	-82
 1666 0465 20       		.byte	32
 1667 0466 AF       		.byte	-81
 1668 0467 80       		.byte	-128
 1669 0468 C2       		.byte	-62
 1670 0469 30       		.byte	48
 1671 046a E0       		.byte	-32
 1672 046b 10       		.byte	16
 1673 046c E6       		.byte	-26
 1674 046d 40       		.byte	64
 1675 046e E8       		.byte	-24
 1676 046f 10       		.byte	16
 1677 0470 EC       		.byte	-20
 1678 0471 10       		.byte	16
 1679 0472 AF       		.byte	-81
 1680 0473 10       		.byte	16
 1681 0474 E8       		.byte	-24
 1682 0475 10       		.byte	16
 1683 0476 01       		.byte	1
 1684 0477 10       		.byte	16
 1685 0478 04       		.byte	4
 1686 0479 18       		.byte	24
 1687 047a C0       		.byte	-64
 1688 047b 07       		.byte	7
 1689 047c A8       		.byte	-88
 1690 047d 04       		.byte	4
 1691 047e B1       		.byte	-79
 1692 047f 10       		.byte	16
 1693 0480 B4       		.byte	-76
ARM GAS  C:\Users\austc\AppData\Local\Temp\ccOBcOmj.s 			page 49


 1694 0481 10       		.byte	16
 1695 0482 EA       		.byte	-22
 1696 0483 09       		.byte	9
 1697 0484 01       		.byte	1
 1698 0485 0E       		.byte	14
 1699 0486 10       		.byte	16
 1700 0487 0A       		.byte	10
 1701 0488 12       		.byte	18
 1702 0489 06       		.byte	6
 1703 048a 0000     		.space	2
 1704              		.type	cy_cfg_addr_table.6462, %object
 1705              		.size	cy_cfg_addr_table.6462, 64
 1706              	cy_cfg_addr_table.6462:
 1707 048c 04000F40 		.word	1074724868
 1708 0490 5A300F40 		.word	1074737242
 1709 0494 2F310F40 		.word	1074737455
 1710 0498 4A320F40 		.word	1074737738
 1711 049c 3B330F40 		.word	1074737979
 1712 04a0 5A340F40 		.word	1074738266
 1713 04a4 41350F40 		.word	1074738497
 1714 04a8 39360F40 		.word	1074738745
 1715 04ac 39370F40 		.word	1074739001
 1716 04b0 05400F40 		.word	1074741253
 1717 04b4 04410F40 		.word	1074741508
 1718 04b8 0B420F40 		.word	1074741771
 1719 04bc 02430F40 		.word	1074742018
 1720 04c0 03450F40 		.word	1074742531
 1721 04c4 04460F40 		.word	1074742788
 1722 04c8 03600F40 		.word	1074749443
 1723              		.text
 1724              	.Letext0:
 1725              		.file 2 "c:\\program files (x86)\\cypress\\psoc creator\\4.2\\psoc creator\\import\\gnu\\arm\\5.4.
 1726              		.file 3 "Generated_Source\\PSoC4\\cytypes.h"
 1727              		.file 4 "Generated_Source\\PSoC4\\CyLib.h"