ARM GAS  C:\Users\austc\AppData\Local\Temp\cchsT3wG.s 			page 1


   1              		.syntax unified
   2              		.cpu cortex-m0
   3              		.fpu softvfp
   4              		.eabi_attribute 20, 1
   5              		.eabi_attribute 21, 1
   6              		.eabi_attribute 23, 3
   7              		.eabi_attribute 24, 1
   8              		.eabi_attribute 25, 1
   9              		.eabi_attribute 26, 1
  10              		.eabi_attribute 30, 1
  11              		.eabi_attribute 34, 0
  12              		.eabi_attribute 18, 4
  13              		.thumb
  14              		.syntax unified
  15              		.file	"main.c"
  16              		.text
  17              	.Ltext0:
  18              		.cfi_sections	.debug_frame
  19              		.section	.text.ISR_CAN,"ax",%progbits
  20              		.align	2
  21              		.global	ISR_CAN
  22              		.code	16
  23              		.thumb_func
  24              		.type	ISR_CAN, %function
  25              	ISR_CAN:
  26              	.LFB44:
  27              		.file 1 "main.c"
   1:main.c        **** /* ========================================
   2:main.c        ****  *
   3:main.c        ****  * Copyright YOUR COMPANY, THE YEAR
   4:main.c        ****  * All Rights Reserved
   5:main.c        ****  * UNPUBLISHED, LICENSED SOFTWARE.
   6:main.c        ****  *
   7:main.c        ****  * CONFIDENTIAL AND PROPRIETARY INFORMATION
   8:main.c        ****  * WHICH IS THE PROPERTY OF your company.
   9:main.c        ****  *
  10:main.c        ****  * ========================================
  11:main.c        **** */
  12:main.c        **** #include <project.h>
  13:main.c        **** #include "cyapicallbacks.h"
  14:main.c        **** #include <stdio.h>
  15:main.c        **** 
  16:main.c        **** uint32 message_id = 0;
  17:main.c        **** #define MESSAGE_IDE             (0u)    /* Standard message */
  18:main.c        **** #define MESSAGE_IRQ             (0u)    /* No transmit IRQ */
  19:main.c        **** #define MESSAGE_RTR             (0u)    /* No RTR */
  20:main.c        **** 
  21:main.c        **** uint16 CAN_RX_MAILBOX_1_SHIFT  = 0b1;
  22:main.c        **** uint16 CAN_RX_MAILBOX_0_SHIFT  = 0b10000000;
  23:main.c        **** 
  24:main.c        **** uint16 CAN_RX_MAILBOX_1 = 7u;
  25:main.c        **** uint16 CAN_RX_MAILBOX_0 = 0u;
  26:main.c        **** 
  27:main.c        **** 
  28:main.c        **** #define TX_DATA_SIZE            (50u)
  29:main.c        **** #define PWM_PERIOD = 1000;
  30:main.c        **** 
ARM GAS  C:\Users\austc\AppData\Local\Temp\cchsT3wG.s 			page 2


  31:main.c        **** CY_ISR_PROTO(ISR_CAN);
  32:main.c        **** //global var
  33:main.c        **** uint8 uart_debug = 1;
  34:main.c        **** int GEAR_RATIO;
  35:main.c        **** int CAN_TIMEOUT;
  36:main.c        **** int pwm_compare;
  37:main.c        **** int i = 0;
  38:main.c        **** int lastp = 0;
  39:main.c        **** int kp,ki,kd;
  40:main.c        **** volatile uint8 isrFlag = 0u;
  41:main.c        **** 
  42:main.c        **** int mailbox = 0x000;
  43:main.c        **** uint8 emergency = 0;
  44:main.c        **** char8 txData[TX_DATA_SIZE];
  45:main.c        **** /* Global variables used to store configuration and data for BASIC CAN mailbox */
  46:main.c        **** CAN_DATA_BYTES_MSG data;
  47:main.c        **** CAN_TX_MSG message;
  48:main.c        **** 
  49:main.c        **** volatile uint8 receiveMailboxNumber = 0xFFu;
  50:main.c        **** 
  51:main.c        **** 
  52:main.c        **** 
  53:main.c        **** 
  54:main.c        **** CY_ISR(Pin_Limit_1_Handler){// void Pin_SW_Handler(void)
  55:main.c        ****     set_PWM(pwm_compare);
  56:main.c        ****     Pin_Limit_1_ClearInterrupt();
  57:main.c        **** }
  58:main.c        **** 
  59:main.c        **** int main(void)
  60:main.c        **** {
  61:main.c        **** 
  62:main.c        ****     initialize_can_addr();
  63:main.c        ****         /* BASIC CAN mailbox configuration */
  64:main.c        ****     message.dlc = CAN_TX_DLC_MAX_VALUE;
  65:main.c        ****     set_CAN_ID(0b1);
  66:main.c        ****     message.ide = MESSAGE_IDE;
  67:main.c        ****     message.irq = MESSAGE_IRQ;
  68:main.c        ****     message.msg = &data;
  69:main.c        ****     message.rtr = MESSAGE_RTR;
  70:main.c        ****     CyIntSetVector(CAN_ISR_NUMBER, ISR_CAN);
  71:main.c        ****     CyGlobalIntEnable; /* Enable global interrupts. */
  72:main.c        ****     initialize();
  73:main.c        ****     int test = 0b1;
  74:main.c        ****     for(;;)
  75:main.c        ****     {
  76:main.c        ****         if(!emergency) {
  77:main.c        ****         //UART_UartPutString(txData); 
  78:main.c        ****            //Spare1_Write((Status_Reg_Switches_Read() & 0b10) >> 0b1);
  79:main.c        ****            //Spare2_Write(Status_Reg_Switches_Read() & 0b01);
  80:main.c        ****             CAN_Send_Model();
  81:main.c        ****             CyDelay(1000);
  82:main.c        ****             /*CyDelay(1000);
  83:main.c        ****             CAN_Send_Encoder();
  84:main.c        ****             CyDelay(1000);
  85:main.c        ****             CAN_Send_Telemetry();
  86:main.c        ****             CyDelay(1000);
  87:main.c        ****             */
ARM GAS  C:\Users\austc\AppData\Local\Temp\cchsT3wG.s 			page 3


  88:main.c        ****            // set_PWM(500);
  89:main.c        ****            //set_PWM(pwm_compare); 
  90:main.c        ****            /* CyDelay(100);
  91:main.c        ****             if(up){
  92:main.c        ****                 pwm_compare += 100;
  93:main.c        ****             } else {
  94:main.c        ****                 pwm_compare -= 100;   
  95:main.c        ****             }
  96:main.c        ****             if(pwm_compare > 1000) {
  97:main.c        ****                 up = 0;   
  98:main.c        ****             } else if (pwm_compare < -1000) {
  99:main.c        ****                 up = 1;
 100:main.c        ****             }
 101:main.c        ****             */
 102:main.c        ****             // inturupts limit switch, stops motor
 103:main.c        ****             // intrupts second priority to read CAN
 104:main.c        ****             // sets PWM
 105:main.c        ****             // hardware encoder counter
 106:main.c        ****             // read pot info
 107:main.c        ****             // Sends to BB info over CAN
 108:main.c        ****             // if no CAN data after ~100ms stop motors
 109:main.c        ****         }
 110:main.c        ****     }
 111:main.c        **** }
 112:main.c        **** /*
 113:main.c        **** void check_Pin(void) {
 114:main.c        ****     if(Status_Reg_Switches_ReadMask() & 0b01) {
 115:main.c        ****         limit_1_pressed = 0;
 116:main.c        ****     }
 117:main.c        ****     if(Status_Reg_Switches_ReadMask() & 0b10) {
 118:main.c        ****         limit_2_pressed = 0;   
 119:main.c        ****     }
 120:main.c        **** }
 121:main.c        **** */
 122:main.c        **** void emergency_halt(void) {
 123:main.c        ****     PWM_Motor_Stop();
 124:main.c        ****     emergency = 1;
 125:main.c        ****     // stops all motors;
 126:main.c        ****     // waits for restart CAN signal.
 127:main.c        **** }
 128:main.c        **** //Recieve:
 129:main.c        **** //1 00010 10000 0x450 BBB to base rotation
 130:main.c        **** //1 00010 10001 0x451 
 131:main.c        **** //1 00010 10010 0x452
 132:main.c        **** //1 00010 10011 0x453
 133:main.c        **** //1 00010 10100 0x454
 134:main.c        **** //1 00010 10101 0x455
 135:main.c        **** //1 00010 10110 0x456
 136:main.c        **** //Send:
 137:main.c        **** //1 10000 00010 0x602 base rotation to BBB 
 138:main.c        **** //1 10001 00010 0x622 shoulder to BBB
 139:main.c        **** //1 10010 00010 0x642 elbow ""
 140:main.c        **** //1 10011 00010 0x662 forearm rotation ""
 141:main.c        **** //1 10100 00010 0x682 diff wrist 1 ""
 142:main.c        **** //1 10101 00010 0x6A2 diff wrist 2 ""
 143:main.c        **** //1 10110 00010 0x6C2 hand ""
 144:main.c        **** void initialize_can_addr(void) {
ARM GAS  C:\Users\austc\AppData\Local\Temp\cchsT3wG.s 			page 4


 145:main.c        ****     uint8 setting = Can_addr_Read();
 146:main.c        ****     uint8 shift = 0;
 147:main.c        ****     switch(Can_addr_Read()) {
 148:main.c        ****         case 0b1111:
 149:main.c        ****             message_id = 0b10000;
 150:main.c        ****             shift = 0;
 151:main.c        ****         case 0b0001:
 152:main.c        ****             message_id = 0b10001;
 153:main.c        ****             shift = 1;
 154:main.c        ****         case 0b0010:
 155:main.c        ****             message_id = 0b10010;
 156:main.c        ****             shift = 2;
 157:main.c        ****         case 0b0011:
 158:main.c        ****             message_id = 0b10011;
 159:main.c        ****             shift = 3;
 160:main.c        ****         case 0b0100:
 161:main.c        ****             message_id = 0b10100;
 162:main.c        ****             shift = 4;
 163:main.c        ****         case 0b0101:
 164:main.c        ****             message_id = 0b10101;
 165:main.c        ****             shift = 5;
 166:main.c        ****         case 0b0110:
 167:main.c        ****             message_id = 0b10110;
 168:main.c        ****             shift = 6;
 169:main.c        ****     }
 170:main.c        ****     
 171:main.c        ****     CAN_RX_MAILBOX_0_SHIFT = CAN_RX_MAILBOX_0_SHIFT << shift;
 172:main.c        ****     CAN_RX_MAILBOX_1_SHIFT = CAN_RX_MAILBOX_1_SHIFT << shift;
 173:main.c        ****     
 174:main.c        ****     if(uart_debug) {
 175:main.c        ****         sprintf(txData, "CAN dip setting:  %x Message ID: %lx\r\n",setting, message_id);
 176:main.c        ****         UART_UartPutString(txData); 
 177:main.c        ****     }
 178:main.c        **** }
 179:main.c        **** 
 180:main.c        **** void set_CAN_ID(uint32 priority) {
 181:main.c        ****     message.id = (priority << 10) | (message_id << 5) | 0b00010;
 182:main.c        **** }
 183:main.c        **** 
 184:main.c        **** void initialize(void) {
 185:main.c        ****     int can_start = CAN_Start();
 186:main.c        ****   //  int can_global = CAN_GlobalIntEnable();
 187:main.c        ****     ADC_SAR_Seq_1_Start();
 188:main.c        ****     ADC_SAR_Seq_1_StartConvert();
 189:main.c        ****     QuadDec_Start();// QuadDec_GetCounter()
 190:main.c        ****     PWM_Motor_Start();
 191:main.c        ****     if(uart_debug) {
 192:main.c        ****         UART_Start();
 193:main.c        ****         sprintf(txData, "CAN_Start():  %u\r\n",can_start);
 194:main.c        ****         UART_UartPutString(txData); 
 195:main.c        ****       //  sprintf(txData, "CAN_GlobalIntEnable():  %u\r\n",can_global);
 196:main.c        ****      //   UART_UartPutString(txData); 
 197:main.c        ****     }
 198:main.c        **** }
 199:main.c        **** void CAN_Send_Encoder(void){
 200:main.c        ****     //message.id = 0x1;
 201:main.c        ****     data.byte[0u] = 0x14u;
ARM GAS  C:\Users\austc\AppData\Local\Temp\cchsT3wG.s 			page 5


 202:main.c        ****     data.byte[1u] = LO8(QuadDec_GetCounter());
 203:main.c        ****     data.byte[2u] = HI8(QuadDec_GetCounter());
 204:main.c        ****     data.byte[3u] = 0;
 205:main.c        ****     data.byte[4u] = 0;
 206:main.c        ****     CAN_SendMsg(&message);
 207:main.c        ****     if(uart_debug) {
 208:main.c        ****         sprintf(txData, "CAN_Send_Encoder: byte[0u] %x byte[1u] %x\r\n",data.byte[0u],data.byte[1u]
 209:main.c        ****         UART_UartPutString(txData); 
 210:main.c        ****     }
 211:main.c        **** }
 212:main.c        **** 
 213:main.c        **** void CAN_Send_Telemetry(void) {
 214:main.c        ****     //message.id = 0x2;
 215:main.c        ****     data.byte[0u] = 0x18u;
 216:main.c        ****     data.byte[1u] = 1;
 217:main.c        ****     data.byte[2u] = 2;
 218:main.c        ****     data.byte[3u] = 3;
 219:main.c        ****     data.byte[4u] = 4;
 220:main.c        ****     CAN_SendMsg(&message);
 221:main.c        ****     if(uart_debug) {
 222:main.c        ****         sprintf(txData, "Telemerty: byte[0u] %x byte[1u] %x\r\n",data.byte[0u],data.byte[1u]);
 223:main.c        ****         UART_UartPutString(txData); 
 224:main.c        ****     }
 225:main.c        **** }
 226:main.c        **** 
 227:main.c        **** void CAN_Send_Model(void) {
 228:main.c        ****     //message.id = 0x3;
 229:main.c        ****     data.byte[0u] = 0x12u;
 230:main.c        ****     data.byte[1u] = Can_addr_Read();
 231:main.c        ****    // data.byte[2u] = 0;
 232:main.c        ****     //data.byte[3u] = 0;
 233:main.c        ****    // data.byte[4u] = 0;
 234:main.c        ****     CAN_SendMsg(&message);
 235:main.c        ****     if(uart_debug) {
 236:main.c        ****         sprintf(txData, "Model: byte[0u] %x byte[1u] %x\r\n",data.byte[0u],data.byte[1u]);
 237:main.c        ****         UART_UartPutString(txData); 
 238:main.c        ****     }
 239:main.c        **** }
 240:main.c        **** /*
 241:main.c        **** void CAN_Read(int *read) {
 242:main.c        ****     // writes to the read array the data that was sent
 243:main.c        **** }
 244:main.c        **** 
 245:main.c        **** void CAN_Send(int Mailbox, uint8 type, uint8 b1, uint8 b2, uint8 b3, uint8 b4) {
 246:main.c        ****     int send_msg = CAN_SendMsg();
 247:main.c        ****     if(uart_debug) {
 248:main.c        ****         sprintf(txData, "Can send adc msg:  %u\r\n", send_msg );
 249:main.c        ****         UART_UartPutString(txData);
 250:main.c        ****     }
 251:main.c        **** }
 252:main.c        **** */
 253:main.c        **** CY_ISR(ISR_CAN)
 254:main.c        **** {
  28              		.loc 1 254 0
  29              		.cfi_startproc
  30              		@ args = 0, pretend = 0, frame = 0
  31              		@ frame_needed = 0, uses_anonymous_args = 0
ARM GAS  C:\Users\austc\AppData\Local\Temp\cchsT3wG.s 			page 6


  32              		@ link register save eliminated.
 255:main.c        ****     /* Clear Receive Message flag */
 256:main.c        ****     CAN_INT_SR_REG = CAN_RX_MESSAGE_MASK;
  33              		.loc 1 256 0
  34 0000 8022     		movs	r2, #128
  35 0002 5201     		lsls	r2, r2, #5
  36 0004 0F4B     		ldr	r3, .L4
  37 0006 1A60     		str	r2, [r3]
 257:main.c        **** 
 258:main.c        ****     /* Switch status message received */
 259:main.c        ****     if ((CAN_BUF_SR_REG & CAN_RX_MAILBOX_0_SHIFT) != 0u)
  38              		.loc 1 259 0
  39 0008 0F4B     		ldr	r3, .L4+4
  40 000a 1A68     		ldr	r2, [r3]
  41 000c 0F4B     		ldr	r3, .L4+8
  42 000e 1B88     		ldrh	r3, [r3]
  43 0010 1A42     		tst	r2, r3
  44 0012 08D0     		beq	.L2
 260:main.c        ****     {
 261:main.c        ****         receiveMailboxNumber = CAN_RX_MAILBOX_0_SHIFT >> 1;
  45              		.loc 1 261 0
  46 0014 5B08     		lsrs	r3, r3, #1
  47 0016 DBB2     		uxtb	r3, r3
  48 0018 0C4A     		ldr	r2, .L4+8
  49 001a 9370     		strb	r3, [r2, #2]
 262:main.c        **** 
 263:main.c        ****         /* Acknowledges receipt of new message */
 264:main.c        ****         CAN_RX_ACK_MESSAGE(CAN_RX_MAILBOX_ToBaseRotation_1);
  50              		.loc 1 264 0
  51 001c 0C4A     		ldr	r2, .L4+12
  52 001e 1168     		ldr	r1, [r2]
  53 0020 0123     		movs	r3, #1
  54 0022 0B43     		orrs	r3, r1
  55 0024 1360     		str	r3, [r2]
  56              	.L2:
 265:main.c        ****     }
 266:main.c        **** 
 267:main.c        ****     if ((CAN_BUF_SR_REG & CAN_RX_MAILBOX_1_SHIFT) != 0u)
  57              		.loc 1 267 0
  58 0026 084B     		ldr	r3, .L4+4
  59 0028 1A68     		ldr	r2, [r3]
  60 002a 084B     		ldr	r3, .L4+8
  61 002c 9B88     		ldrh	r3, [r3, #4]
  62 002e 1A42     		tst	r2, r3
  63 0030 07D0     		beq	.L1
 268:main.c        ****     {
 269:main.c        ****         receiveMailboxNumber = CAN_RX_MAILBOX_ToElbow_1;
  64              		.loc 1 269 0
  65 0032 0222     		movs	r2, #2
  66 0034 054B     		ldr	r3, .L4+8
  67 0036 9A70     		strb	r2, [r3, #2]
 270:main.c        ****         
 271:main.c        ****         /* Acknowledges receipt of new message */
 272:main.c        ****         CAN_RX_ACK_MESSAGE(CAN_RX_MAILBOX_ToShoulder_1);
  68              		.loc 1 272 0
  69 0038 064A     		ldr	r2, .L4+16
  70 003a 1168     		ldr	r1, [r2]
ARM GAS  C:\Users\austc\AppData\Local\Temp\cchsT3wG.s 			page 7


  71 003c 0123     		movs	r3, #1
  72 003e 0B43     		orrs	r3, r1
  73 0040 1360     		str	r3, [r2]
  74              	.L1:
 273:main.c        ****     }
 274:main.c        ****     
 275:main.c        **** }
  75              		.loc 1 275 0
  76              		@ sp needed
  77 0042 7047     		bx	lr
  78              	.L5:
  79              		.align	2
  80              	.L4:
  81 0044 00002F40 		.word	1076822016
  82 0048 08002F40 		.word	1076822024
  83 004c 00000000 		.word	.LANCHOR0
  84 0050 A0002F40 		.word	1076822176
  85 0054 C0002F40 		.word	1076822208
  86              		.cfi_endproc
  87              	.LFE44:
  88              		.size	ISR_CAN, .-ISR_CAN
  89              		.section	.text.emergency_halt,"ax",%progbits
  90              		.align	2
  91              		.global	emergency_halt
  92              		.code	16
  93              		.thumb_func
  94              		.type	emergency_halt, %function
  95              	emergency_halt:
  96              	.LFB37:
 122:main.c        ****     PWM_Motor_Stop();
  97              		.loc 1 122 0
  98              		.cfi_startproc
  99              		@ args = 0, pretend = 0, frame = 0
 100              		@ frame_needed = 0, uses_anonymous_args = 0
 101 0000 10B5     		push	{r4, lr}
 102              		.cfi_def_cfa_offset 8
 103              		.cfi_offset 4, -8
 104              		.cfi_offset 14, -4
 123:main.c        ****     emergency = 1;
 105              		.loc 1 123 0
 106 0002 FFF7FEFF 		bl	PWM_Motor_Stop
 107              	.LVL0:
 124:main.c        ****     // stops all motors;
 108              		.loc 1 124 0
 109 0006 0122     		movs	r2, #1
 110 0008 014B     		ldr	r3, .L7
 111 000a 1A70     		strb	r2, [r3]
 127:main.c        **** //Recieve:
 112              		.loc 1 127 0
 113              		@ sp needed
 114 000c 10BD     		pop	{r4, pc}
 115              	.L8:
 116 000e C046     		.align	2
 117              	.L7:
 118 0010 00000000 		.word	.LANCHOR1
 119              		.cfi_endproc
 120              	.LFE37:
ARM GAS  C:\Users\austc\AppData\Local\Temp\cchsT3wG.s 			page 8


 121              		.size	emergency_halt, .-emergency_halt
 122              		.section	.text.initialize_can_addr,"ax",%progbits
 123              		.align	2
 124              		.global	initialize_can_addr
 125              		.code	16
 126              		.thumb_func
 127              		.type	initialize_can_addr, %function
 128              	initialize_can_addr:
 129              	.LFB38:
 144:main.c        ****     uint8 setting = Can_addr_Read();
 130              		.loc 1 144 0
 131              		.cfi_startproc
 132              		@ args = 0, pretend = 0, frame = 0
 133              		@ frame_needed = 0, uses_anonymous_args = 0
 134 0000 70B5     		push	{r4, r5, r6, lr}
 135              		.cfi_def_cfa_offset 16
 136              		.cfi_offset 4, -16
 137              		.cfi_offset 5, -12
 138              		.cfi_offset 6, -8
 139              		.cfi_offset 14, -4
 145:main.c        ****     uint8 shift = 0;
 140              		.loc 1 145 0
 141 0002 FFF7FEFF 		bl	Can_addr_Read
 142              	.LVL1:
 143 0006 0400     		movs	r4, r0
 144              	.LVL2:
 147:main.c        ****         case 0b1111:
 145              		.loc 1 147 0
 146 0008 FFF7FEFF 		bl	Can_addr_Read
 147              	.LVL3:
 148 000c 0F28     		cmp	r0, #15
 149 000e 08D8     		bhi	.L20
 150 0010 8000     		lsls	r0, r0, #2
 151 0012 0F4B     		ldr	r3, .L21
 152 0014 1B58     		ldr	r3, [r3, r0]
 153 0016 9F46     		mov	pc, r3
 154              		.section	.rodata
 155              		.align	2
 156              	.L12:
 157 0000 22000000 		.word	.L20
 158 0004 18000000 		.word	.L17
 159 0008 18000000 		.word	.L17
 160 000c 18000000 		.word	.L17
 161 0010 18000000 		.word	.L17
 162 0014 18000000 		.word	.L17
 163 0018 18000000 		.word	.L17
 164 001c 22000000 		.word	.L20
 165 0020 22000000 		.word	.L20
 166 0024 22000000 		.word	.L20
 167 0028 22000000 		.word	.L20
 168 002c 22000000 		.word	.L20
 169 0030 22000000 		.word	.L20
 170 0034 22000000 		.word	.L20
 171 0038 22000000 		.word	.L20
 172 003c 18000000 		.word	.L17
 173              		.section	.text.initialize_can_addr
 174              	.L17:
ARM GAS  C:\Users\austc\AppData\Local\Temp\cchsT3wG.s 			page 9


 167:main.c        ****             shift = 6;
 175              		.loc 1 167 0
 176 0018 1622     		movs	r2, #22
 177 001a 0E4B     		ldr	r3, .L21+4
 178 001c 5A60     		str	r2, [r3, #4]
 179              	.LVL4:
 168:main.c        ****     }
 180              		.loc 1 168 0
 181 001e 0621     		movs	r1, #6
 182 0020 00E0     		b	.L10
 183              	.LVL5:
 184              	.L20:
 146:main.c        ****     switch(Can_addr_Read()) {
 185              		.loc 1 146 0
 186 0022 0021     		movs	r1, #0
 187              	.LVL6:
 188              	.L10:
 171:main.c        ****     CAN_RX_MAILBOX_1_SHIFT = CAN_RX_MAILBOX_1_SHIFT << shift;
 189              		.loc 1 171 0
 190 0024 0C4B     		ldr	r3, .L21+8
 191 0026 1A88     		ldrh	r2, [r3]
 192 0028 8A40     		lsls	r2, r2, r1
 193 002a 1A80     		strh	r2, [r3]
 172:main.c        ****     
 194              		.loc 1 172 0
 195 002c 9A88     		ldrh	r2, [r3, #4]
 196 002e 8A40     		lsls	r2, r2, r1
 197 0030 9A80     		strh	r2, [r3, #4]
 174:main.c        ****         sprintf(txData, "CAN dip setting:  %x Message ID: %lx\r\n",setting, message_id);
 198              		.loc 1 174 0
 199 0032 9B79     		ldrb	r3, [r3, #6]
 200 0034 002B     		cmp	r3, #0
 201 0036 0AD0     		beq	.L9
 175:main.c        ****         UART_UartPutString(txData); 
 202              		.loc 1 175 0
 203 0038 064B     		ldr	r3, .L21+4
 204 003a 5B68     		ldr	r3, [r3, #4]
 205 003c 074D     		ldr	r5, .L21+12
 206 003e 2200     		movs	r2, r4
 207 0040 0749     		ldr	r1, .L21+16
 208              	.LVL7:
 209 0042 2800     		movs	r0, r5
 210 0044 FFF7FEFF 		bl	sprintf
 211              	.LVL8:
 176:main.c        ****     }
 212              		.loc 1 176 0
 213 0048 2800     		movs	r0, r5
 214 004a FFF7FEFF 		bl	UART_UartPutString
 215              	.LVL9:
 216              	.L9:
 178:main.c        **** 
 217              		.loc 1 178 0
 218              		@ sp needed
 219              	.LVL10:
 220 004e 70BD     		pop	{r4, r5, r6, pc}
 221              	.L22:
 222              		.align	2
ARM GAS  C:\Users\austc\AppData\Local\Temp\cchsT3wG.s 			page 10


 223              	.L21:
 224 0050 00000000 		.word	.L12
 225 0054 00000000 		.word	.LANCHOR1
 226 0058 00000000 		.word	.LANCHOR0
 227 005c 00000000 		.word	txData
 228 0060 00000000 		.word	.LC5
 229              		.cfi_endproc
 230              	.LFE38:
 231              		.size	initialize_can_addr, .-initialize_can_addr
 232              		.section	.text.set_CAN_ID,"ax",%progbits
 233              		.align	2
 234              		.global	set_CAN_ID
 235              		.code	16
 236              		.thumb_func
 237              		.type	set_CAN_ID, %function
 238              	set_CAN_ID:
 239              	.LFB39:
 180:main.c        ****     message.id = (priority << 10) | (message_id << 5) | 0b00010;
 240              		.loc 1 180 0
 241              		.cfi_startproc
 242              		@ args = 0, pretend = 0, frame = 0
 243              		@ frame_needed = 0, uses_anonymous_args = 0
 244              		@ link register save eliminated.
 245              	.LVL11:
 181:main.c        **** }
 246              		.loc 1 181 0
 247 0000 8002     		lsls	r0, r0, #10
 248              	.LVL12:
 249 0002 044B     		ldr	r3, .L24
 250 0004 5B68     		ldr	r3, [r3, #4]
 251 0006 5B01     		lsls	r3, r3, #5
 252 0008 1843     		orrs	r0, r3
 253 000a 0223     		movs	r3, #2
 254 000c 1843     		orrs	r0, r3
 255 000e 024B     		ldr	r3, .L24+4
 256 0010 1860     		str	r0, [r3]
 182:main.c        **** 
 257              		.loc 1 182 0
 258              		@ sp needed
 259 0012 7047     		bx	lr
 260              	.L25:
 261              		.align	2
 262              	.L24:
 263 0014 00000000 		.word	.LANCHOR1
 264 0018 00000000 		.word	message
 265              		.cfi_endproc
 266              	.LFE39:
 267              		.size	set_CAN_ID, .-set_CAN_ID
 268              		.section	.text.initialize,"ax",%progbits
 269              		.align	2
 270              		.global	initialize
 271              		.code	16
 272              		.thumb_func
 273              		.type	initialize, %function
 274              	initialize:
 275              	.LFB40:
 184:main.c        ****     int can_start = CAN_Start();
ARM GAS  C:\Users\austc\AppData\Local\Temp\cchsT3wG.s 			page 11


 276              		.loc 1 184 0
 277              		.cfi_startproc
 278              		@ args = 0, pretend = 0, frame = 0
 279              		@ frame_needed = 0, uses_anonymous_args = 0
 280 0000 70B5     		push	{r4, r5, r6, lr}
 281              		.cfi_def_cfa_offset 16
 282              		.cfi_offset 4, -16
 283              		.cfi_offset 5, -12
 284              		.cfi_offset 6, -8
 285              		.cfi_offset 14, -4
 185:main.c        ****   //  int can_global = CAN_GlobalIntEnable();
 286              		.loc 1 185 0
 287 0002 FFF7FEFF 		bl	CAN_Start
 288              	.LVL13:
 289 0006 0400     		movs	r4, r0
 290              	.LVL14:
 187:main.c        ****     ADC_SAR_Seq_1_StartConvert();
 291              		.loc 1 187 0
 292 0008 FFF7FEFF 		bl	ADC_SAR_Seq_1_Start
 293              	.LVL15:
 188:main.c        ****     QuadDec_Start();// QuadDec_GetCounter()
 294              		.loc 1 188 0
 295 000c FFF7FEFF 		bl	ADC_SAR_Seq_1_StartConvert
 296              	.LVL16:
 189:main.c        ****     PWM_Motor_Start();
 297              		.loc 1 189 0
 298 0010 FFF7FEFF 		bl	QuadDec_Start
 299              	.LVL17:
 190:main.c        ****     if(uart_debug) {
 300              		.loc 1 190 0
 301 0014 FFF7FEFF 		bl	PWM_Motor_Start
 302              	.LVL18:
 191:main.c        ****         UART_Start();
 303              		.loc 1 191 0
 304 0018 074B     		ldr	r3, .L28
 305 001a 9B79     		ldrb	r3, [r3, #6]
 306 001c 002B     		cmp	r3, #0
 307 001e 0AD0     		beq	.L26
 192:main.c        ****         sprintf(txData, "CAN_Start():  %u\r\n",can_start);
 308              		.loc 1 192 0
 309 0020 FFF7FEFF 		bl	UART_Start
 310              	.LVL19:
 193:main.c        ****         UART_UartPutString(txData); 
 311              		.loc 1 193 0
 312 0024 054D     		ldr	r5, .L28+4
 313 0026 2200     		movs	r2, r4
 314 0028 0549     		ldr	r1, .L28+8
 315 002a 2800     		movs	r0, r5
 316 002c FFF7FEFF 		bl	sprintf
 317              	.LVL20:
 194:main.c        ****       //  sprintf(txData, "CAN_GlobalIntEnable():  %u\r\n",can_global);
 318              		.loc 1 194 0
 319 0030 2800     		movs	r0, r5
 320 0032 FFF7FEFF 		bl	UART_UartPutString
 321              	.LVL21:
 322              	.L26:
 198:main.c        **** void CAN_Send_Encoder(void){
ARM GAS  C:\Users\austc\AppData\Local\Temp\cchsT3wG.s 			page 12


 323              		.loc 1 198 0
 324              		@ sp needed
 325              	.LVL22:
 326 0036 70BD     		pop	{r4, r5, r6, pc}
 327              	.L29:
 328              		.align	2
 329              	.L28:
 330 0038 00000000 		.word	.LANCHOR0
 331 003c 00000000 		.word	txData
 332 0040 28000000 		.word	.LC11
 333              		.cfi_endproc
 334              	.LFE40:
 335              		.size	initialize, .-initialize
 336              		.section	.text.CAN_Send_Encoder,"ax",%progbits
 337              		.align	2
 338              		.global	CAN_Send_Encoder
 339              		.code	16
 340              		.thumb_func
 341              		.type	CAN_Send_Encoder, %function
 342              	CAN_Send_Encoder:
 343              	.LFB41:
 199:main.c        ****     //message.id = 0x1;
 344              		.loc 1 199 0
 345              		.cfi_startproc
 346              		@ args = 0, pretend = 0, frame = 0
 347              		@ frame_needed = 0, uses_anonymous_args = 0
 348 0000 10B5     		push	{r4, lr}
 349              		.cfi_def_cfa_offset 8
 350              		.cfi_offset 4, -8
 351              		.cfi_offset 14, -4
 201:main.c        ****     data.byte[1u] = LO8(QuadDec_GetCounter());
 352              		.loc 1 201 0
 353 0002 104C     		ldr	r4, .L32
 354 0004 1423     		movs	r3, #20
 355 0006 2370     		strb	r3, [r4]
 202:main.c        ****     data.byte[2u] = HI8(QuadDec_GetCounter());
 356              		.loc 1 202 0
 357 0008 FFF7FEFF 		bl	QuadDec_GetCounter
 358              	.LVL23:
 359 000c 6070     		strb	r0, [r4, #1]
 203:main.c        ****     data.byte[3u] = 0;
 360              		.loc 1 203 0
 361 000e FFF7FEFF 		bl	QuadDec_GetCounter
 362              	.LVL24:
 363 0012 80B2     		uxth	r0, r0
 364 0014 000A     		lsrs	r0, r0, #8
 365 0016 A070     		strb	r0, [r4, #2]
 204:main.c        ****     data.byte[4u] = 0;
 366              		.loc 1 204 0
 367 0018 0023     		movs	r3, #0
 368 001a E370     		strb	r3, [r4, #3]
 205:main.c        ****     CAN_SendMsg(&message);
 369              		.loc 1 205 0
 370 001c 2371     		strb	r3, [r4, #4]
 206:main.c        ****     if(uart_debug) {
 371              		.loc 1 206 0
 372 001e 0A48     		ldr	r0, .L32+4
ARM GAS  C:\Users\austc\AppData\Local\Temp\cchsT3wG.s 			page 13


 373 0020 FFF7FEFF 		bl	CAN_SendMsg
 374              	.LVL25:
 207:main.c        ****         sprintf(txData, "CAN_Send_Encoder: byte[0u] %x byte[1u] %x\r\n",data.byte[0u],data.byte[1u]
 375              		.loc 1 207 0
 376 0024 094B     		ldr	r3, .L32+8
 377 0026 9B79     		ldrb	r3, [r3, #6]
 378 0028 002B     		cmp	r3, #0
 379 002a 0AD0     		beq	.L30
 208:main.c        ****         UART_UartPutString(txData); 
 380              		.loc 1 208 0
 381 002c 054B     		ldr	r3, .L32
 382 002e 1A78     		ldrb	r2, [r3]
 383 0030 5B78     		ldrb	r3, [r3, #1]
 384 0032 074C     		ldr	r4, .L32+12
 385 0034 0749     		ldr	r1, .L32+16
 386 0036 2000     		movs	r0, r4
 387 0038 FFF7FEFF 		bl	sprintf
 388              	.LVL26:
 209:main.c        ****     }
 389              		.loc 1 209 0
 390 003c 2000     		movs	r0, r4
 391 003e FFF7FEFF 		bl	UART_UartPutString
 392              	.LVL27:
 393              	.L30:
 211:main.c        **** 
 394              		.loc 1 211 0
 395              		@ sp needed
 396 0042 10BD     		pop	{r4, pc}
 397              	.L33:
 398              		.align	2
 399              	.L32:
 400 0044 00000000 		.word	data
 401 0048 00000000 		.word	message
 402 004c 00000000 		.word	.LANCHOR0
 403 0050 00000000 		.word	txData
 404 0054 3C000000 		.word	.LC17
 405              		.cfi_endproc
 406              	.LFE41:
 407              		.size	CAN_Send_Encoder, .-CAN_Send_Encoder
 408              		.section	.text.CAN_Send_Telemetry,"ax",%progbits
 409              		.align	2
 410              		.global	CAN_Send_Telemetry
 411              		.code	16
 412              		.thumb_func
 413              		.type	CAN_Send_Telemetry, %function
 414              	CAN_Send_Telemetry:
 415              	.LFB42:
 213:main.c        ****     //message.id = 0x2;
 416              		.loc 1 213 0
 417              		.cfi_startproc
 418              		@ args = 0, pretend = 0, frame = 0
 419              		@ frame_needed = 0, uses_anonymous_args = 0
 420 0000 10B5     		push	{r4, lr}
 421              		.cfi_def_cfa_offset 8
 422              		.cfi_offset 4, -8
 423              		.cfi_offset 14, -4
 215:main.c        ****     data.byte[1u] = 1;
ARM GAS  C:\Users\austc\AppData\Local\Temp\cchsT3wG.s 			page 14


 424              		.loc 1 215 0
 425 0002 0F4B     		ldr	r3, .L36
 426 0004 1822     		movs	r2, #24
 427 0006 1A70     		strb	r2, [r3]
 216:main.c        ****     data.byte[2u] = 2;
 428              		.loc 1 216 0
 429 0008 173A     		subs	r2, r2, #23
 430 000a 5A70     		strb	r2, [r3, #1]
 217:main.c        ****     data.byte[3u] = 3;
 431              		.loc 1 217 0
 432 000c 0132     		adds	r2, r2, #1
 433 000e 9A70     		strb	r2, [r3, #2]
 218:main.c        ****     data.byte[4u] = 4;
 434              		.loc 1 218 0
 435 0010 0132     		adds	r2, r2, #1
 436 0012 DA70     		strb	r2, [r3, #3]
 219:main.c        ****     CAN_SendMsg(&message);
 437              		.loc 1 219 0
 438 0014 0132     		adds	r2, r2, #1
 439 0016 1A71     		strb	r2, [r3, #4]
 220:main.c        ****     if(uart_debug) {
 440              		.loc 1 220 0
 441 0018 0A48     		ldr	r0, .L36+4
 442 001a FFF7FEFF 		bl	CAN_SendMsg
 443              	.LVL28:
 221:main.c        ****         sprintf(txData, "Telemerty: byte[0u] %x byte[1u] %x\r\n",data.byte[0u],data.byte[1u]);
 444              		.loc 1 221 0
 445 001e 0A4B     		ldr	r3, .L36+8
 446 0020 9B79     		ldrb	r3, [r3, #6]
 447 0022 002B     		cmp	r3, #0
 448 0024 0AD0     		beq	.L34
 222:main.c        ****         UART_UartPutString(txData); 
 449              		.loc 1 222 0
 450 0026 064B     		ldr	r3, .L36
 451 0028 1A78     		ldrb	r2, [r3]
 452 002a 5B78     		ldrb	r3, [r3, #1]
 453 002c 074C     		ldr	r4, .L36+12
 454 002e 0849     		ldr	r1, .L36+16
 455 0030 2000     		movs	r0, r4
 456 0032 FFF7FEFF 		bl	sprintf
 457              	.LVL29:
 223:main.c        ****     }
 458              		.loc 1 223 0
 459 0036 2000     		movs	r0, r4
 460 0038 FFF7FEFF 		bl	UART_UartPutString
 461              	.LVL30:
 462              	.L34:
 225:main.c        **** 
 463              		.loc 1 225 0
 464              		@ sp needed
 465 003c 10BD     		pop	{r4, pc}
 466              	.L37:
 467 003e C046     		.align	2
 468              	.L36:
 469 0040 00000000 		.word	data
 470 0044 00000000 		.word	message
 471 0048 00000000 		.word	.LANCHOR0
ARM GAS  C:\Users\austc\AppData\Local\Temp\cchsT3wG.s 			page 15


 472 004c 00000000 		.word	txData
 473 0050 68000000 		.word	.LC23
 474              		.cfi_endproc
 475              	.LFE42:
 476              		.size	CAN_Send_Telemetry, .-CAN_Send_Telemetry
 477              		.section	.text.CAN_Send_Model,"ax",%progbits
 478              		.align	2
 479              		.global	CAN_Send_Model
 480              		.code	16
 481              		.thumb_func
 482              		.type	CAN_Send_Model, %function
 483              	CAN_Send_Model:
 484              	.LFB43:
 227:main.c        ****     //message.id = 0x3;
 485              		.loc 1 227 0
 486              		.cfi_startproc
 487              		@ args = 0, pretend = 0, frame = 0
 488              		@ frame_needed = 0, uses_anonymous_args = 0
 489 0000 10B5     		push	{r4, lr}
 490              		.cfi_def_cfa_offset 8
 491              		.cfi_offset 4, -8
 492              		.cfi_offset 14, -4
 229:main.c        ****     data.byte[1u] = Can_addr_Read();
 493              		.loc 1 229 0
 494 0002 0C4C     		ldr	r4, .L40
 495 0004 1223     		movs	r3, #18
 496 0006 2370     		strb	r3, [r4]
 230:main.c        ****    // data.byte[2u] = 0;
 497              		.loc 1 230 0
 498 0008 FFF7FEFF 		bl	Can_addr_Read
 499              	.LVL31:
 500 000c 6070     		strb	r0, [r4, #1]
 234:main.c        ****     if(uart_debug) {
 501              		.loc 1 234 0
 502 000e 0A48     		ldr	r0, .L40+4
 503 0010 FFF7FEFF 		bl	CAN_SendMsg
 504              	.LVL32:
 235:main.c        ****         sprintf(txData, "Model: byte[0u] %x byte[1u] %x\r\n",data.byte[0u],data.byte[1u]);
 505              		.loc 1 235 0
 506 0014 094B     		ldr	r3, .L40+8
 507 0016 9B79     		ldrb	r3, [r3, #6]
 508 0018 002B     		cmp	r3, #0
 509 001a 0AD0     		beq	.L38
 236:main.c        ****         UART_UartPutString(txData); 
 510              		.loc 1 236 0
 511 001c 054B     		ldr	r3, .L40
 512 001e 1A78     		ldrb	r2, [r3]
 513 0020 5B78     		ldrb	r3, [r3, #1]
 514 0022 074C     		ldr	r4, .L40+12
 515 0024 0749     		ldr	r1, .L40+16
 516 0026 2000     		movs	r0, r4
 517 0028 FFF7FEFF 		bl	sprintf
 518              	.LVL33:
 237:main.c        ****     }
 519              		.loc 1 237 0
 520 002c 2000     		movs	r0, r4
 521 002e FFF7FEFF 		bl	UART_UartPutString
ARM GAS  C:\Users\austc\AppData\Local\Temp\cchsT3wG.s 			page 16


 522              	.LVL34:
 523              	.L38:
 239:main.c        **** /*
 524              		.loc 1 239 0
 525              		@ sp needed
 526 0032 10BD     		pop	{r4, pc}
 527              	.L41:
 528              		.align	2
 529              	.L40:
 530 0034 00000000 		.word	data
 531 0038 00000000 		.word	message
 532 003c 00000000 		.word	.LANCHOR0
 533 0040 00000000 		.word	txData
 534 0044 90000000 		.word	.LC29
 535              		.cfi_endproc
 536              	.LFE43:
 537              		.size	CAN_Send_Model, .-CAN_Send_Model
 538              		.section	.text.main,"ax",%progbits
 539              		.align	2
 540              		.global	main
 541              		.code	16
 542              		.thumb_func
 543              		.type	main, %function
 544              	main:
 545              	.LFB36:
  60:main.c        **** 
 546              		.loc 1 60 0
 547              		.cfi_startproc
 548              		@ args = 0, pretend = 0, frame = 0
 549              		@ frame_needed = 0, uses_anonymous_args = 0
 550 0000 10B5     		push	{r4, lr}
 551              		.cfi_def_cfa_offset 8
 552              		.cfi_offset 4, -8
 553              		.cfi_offset 14, -4
  62:main.c        ****         /* BASIC CAN mailbox configuration */
 554              		.loc 1 62 0
 555 0002 FFF7FEFF 		bl	initialize_can_addr
 556              	.LVL35:
  64:main.c        ****     set_CAN_ID(0b1);
 557              		.loc 1 64 0
 558 0006 0F4C     		ldr	r4, .L45
 559 0008 0823     		movs	r3, #8
 560 000a A371     		strb	r3, [r4, #6]
  65:main.c        ****     message.ide = MESSAGE_IDE;
 561              		.loc 1 65 0
 562 000c 0120     		movs	r0, #1
 563 000e FFF7FEFF 		bl	set_CAN_ID
 564              	.LVL36:
  66:main.c        ****     message.irq = MESSAGE_IRQ;
 565              		.loc 1 66 0
 566 0012 0023     		movs	r3, #0
 567 0014 6371     		strb	r3, [r4, #5]
  67:main.c        ****     message.msg = &data;
 568              		.loc 1 67 0
 569 0016 E371     		strb	r3, [r4, #7]
  68:main.c        ****     message.rtr = MESSAGE_RTR;
 570              		.loc 1 68 0
ARM GAS  C:\Users\austc\AppData\Local\Temp\cchsT3wG.s 			page 17


 571 0018 0B4A     		ldr	r2, .L45+4
 572 001a E260     		str	r2, [r4, #12]
  69:main.c        ****     CyIntSetVector(CAN_ISR_NUMBER, ISR_CAN);
 573              		.loc 1 69 0
 574 001c 2371     		strb	r3, [r4, #4]
  70:main.c        ****     CyGlobalIntEnable; /* Enable global interrupts. */
 575              		.loc 1 70 0
 576 001e 0B49     		ldr	r1, .L45+8
 577 0020 1D20     		movs	r0, #29
 578 0022 FFF7FEFF 		bl	CyIntSetVector
 579              	.LVL37:
  71:main.c        ****     initialize();
 580              		.loc 1 71 0
 581              		.syntax divided
 582              	@ 71 "main.c" 1
 583 0026 62B6     		CPSIE   i
 584              	@ 0 "" 2
  72:main.c        ****     int test = 0b1;
 585              		.loc 1 72 0
 586              		.thumb
 587              		.syntax unified
 588 0028 FFF7FEFF 		bl	initialize
 589              	.LVL38:
 590              	.L43:
  76:main.c        ****         //UART_UartPutString(txData); 
 591              		.loc 1 76 0
 592 002c 084B     		ldr	r3, .L45+12
 593 002e 1B78     		ldrb	r3, [r3]
 594 0030 002B     		cmp	r3, #0
 595 0032 FBD1     		bne	.L43
  80:main.c        ****             CyDelay(1000);
 596              		.loc 1 80 0
 597 0034 FFF7FEFF 		bl	CAN_Send_Model
 598              	.LVL39:
  81:main.c        ****             /*CyDelay(1000);
 599              		.loc 1 81 0
 600 0038 FA20     		movs	r0, #250
 601 003a 8000     		lsls	r0, r0, #2
 602 003c FFF7FEFF 		bl	CyDelay
 603              	.LVL40:
 604 0040 F4E7     		b	.L43
 605              	.L46:
 606 0042 C046     		.align	2
 607              	.L45:
 608 0044 00000000 		.word	message
 609 0048 00000000 		.word	data
 610 004c 00000000 		.word	ISR_CAN
 611 0050 00000000 		.word	.LANCHOR1
 612              		.cfi_endproc
 613              	.LFE36:
 614              		.size	main, .-main
 615              		.section	.text.set_PWM,"ax",%progbits
 616              		.align	2
 617              		.global	set_PWM
 618              		.code	16
 619              		.thumb_func
 620              		.type	set_PWM, %function
ARM GAS  C:\Users\austc\AppData\Local\Temp\cchsT3wG.s 			page 18


 621              	set_PWM:
 622              	.LFB45:
 276:main.c        **** 
 277:main.c        **** /*
 278:main.c        **** uint32 pot_Read(void) {
 279:main.c        ****     // returns a position of the pot
 280:main.c        **** }
 281:main.c        ****  
 282:main.c        **** */
 283:main.c        ****     // takes between -1000 and 1000
 284:main.c        **** void set_PWM(int compare) {
 623              		.loc 1 284 0
 624              		.cfi_startproc
 625              		@ args = 0, pretend = 0, frame = 0
 626              		@ frame_needed = 0, uses_anonymous_args = 0
 627              	.LVL41:
 628 0000 10B5     		push	{r4, lr}
 629              		.cfi_def_cfa_offset 8
 630              		.cfi_offset 4, -8
 631              		.cfi_offset 14, -4
 632 0002 0400     		movs	r4, r0
 285:main.c        ****     if (compare < -1000 || compare > 1000) { return; }
 633              		.loc 1 285 0
 634 0004 FA23     		movs	r3, #250
 635 0006 9B00     		lsls	r3, r3, #2
 636 0008 C218     		adds	r2, r0, r3
 637 000a FA23     		movs	r3, #250
 638 000c DB00     		lsls	r3, r3, #3
 639 000e 9A42     		cmp	r2, r3
 640 0010 1CD8     		bhi	.L47
 286:main.c        ****     if (compare < 0 && !(Status_Reg_Switches_Read() & 0b01)) {
 641              		.loc 1 286 0
 642 0012 0028     		cmp	r0, #0
 643 0014 0ADA     		bge	.L49
 644              		.loc 1 286 0 is_stmt 0 discriminator 1
 645 0016 FFF7FEFF 		bl	Status_Reg_Switches_Read
 646              	.LVL42:
 647 001a C307     		lsls	r3, r0, #31
 648 001c 06D4     		bmi	.L49
 287:main.c        ****         Pin_Direction_Write(0);
 649              		.loc 1 287 0 is_stmt 1
 650 001e 0020     		movs	r0, #0
 651 0020 FFF7FEFF 		bl	Pin_Direction_Write
 652              	.LVL43:
 288:main.c        ****         PWM_Motor_WriteCompare(-compare);
 653              		.loc 1 288 0
 654 0024 6042     		rsbs	r0, r4, #0
 655 0026 FFF7FEFF 		bl	PWM_Motor_WriteCompare
 656              	.LVL44:
 657 002a 0FE0     		b	.L47
 658              	.L49:
 289:main.c        ****     } else if (compare > 0 && !(Status_Reg_Switches_Read() & 0b10)){
 659              		.loc 1 289 0
 660 002c 002C     		cmp	r4, #0
 661 002e 0ADD     		ble	.L50
 662              		.loc 1 289 0 is_stmt 0 discriminator 1
 663 0030 FFF7FEFF 		bl	Status_Reg_Switches_Read
ARM GAS  C:\Users\austc\AppData\Local\Temp\cchsT3wG.s 			page 19


 664              	.LVL45:
 665 0034 8307     		lsls	r3, r0, #30
 666 0036 06D4     		bmi	.L50
 290:main.c        ****         Pin_Direction_Write(1);
 667              		.loc 1 290 0 is_stmt 1
 668 0038 0120     		movs	r0, #1
 669 003a FFF7FEFF 		bl	Pin_Direction_Write
 670              	.LVL46:
 291:main.c        ****         PWM_Motor_WriteCompare(compare);
 671              		.loc 1 291 0
 672 003e 2000     		movs	r0, r4
 673 0040 FFF7FEFF 		bl	PWM_Motor_WriteCompare
 674              	.LVL47:
 675 0044 02E0     		b	.L47
 676              	.L50:
 292:main.c        ****     } else {
 293:main.c        ****         PWM_Motor_WriteCompare(0);   
 677              		.loc 1 293 0
 678 0046 0020     		movs	r0, #0
 679 0048 FFF7FEFF 		bl	PWM_Motor_WriteCompare
 680              	.LVL48:
 681              	.L47:
 294:main.c        ****     }
 295:main.c        **** }
 682              		.loc 1 295 0
 683              		@ sp needed
 684              	.LVL49:
 685 004c 10BD     		pop	{r4, pc}
 686              		.cfi_endproc
 687              	.LFE45:
 688              		.size	set_PWM, .-set_PWM
 689 004e C046     		.section	.text.Pin_Limit_1_Handler,"ax",%progbits
 690              		.align	2
 691              		.global	Pin_Limit_1_Handler
 692              		.code	16
 693              		.thumb_func
 694              		.type	Pin_Limit_1_Handler, %function
 695              	Pin_Limit_1_Handler:
 696              	.LFB35:
  54:main.c        ****     set_PWM(pwm_compare);
 697              		.loc 1 54 0
 698              		.cfi_startproc
 699              		@ args = 0, pretend = 0, frame = 0
 700              		@ frame_needed = 0, uses_anonymous_args = 0
 701 0000 10B5     		push	{r4, lr}
 702              		.cfi_def_cfa_offset 8
 703              		.cfi_offset 4, -8
 704              		.cfi_offset 14, -4
  55:main.c        ****     Pin_Limit_1_ClearInterrupt();
 705              		.loc 1 55 0
 706 0002 034B     		ldr	r3, .L52
 707 0004 1868     		ldr	r0, [r3]
 708 0006 FFF7FEFF 		bl	set_PWM
 709              	.LVL50:
  56:main.c        **** }
 710              		.loc 1 56 0
 711 000a FFF7FEFF 		bl	Pin_Limit_1_ClearInterrupt
ARM GAS  C:\Users\austc\AppData\Local\Temp\cchsT3wG.s 			page 20


 712              	.LVL51:
  57:main.c        **** 
 713              		.loc 1 57 0
 714              		@ sp needed
 715 000e 10BD     		pop	{r4, pc}
 716              	.L53:
 717              		.align	2
 718              	.L52:
 719 0010 00000000 		.word	pwm_compare
 720              		.cfi_endproc
 721              	.LFE35:
 722              		.size	Pin_Limit_1_Handler, .-Pin_Limit_1_Handler
 723              		.section	.text.degrees_to_tick,"ax",%progbits
 724              		.align	2
 725              		.global	degrees_to_tick
 726              		.code	16
 727              		.thumb_func
 728              		.type	degrees_to_tick, %function
 729              	degrees_to_tick:
 730              	.LFB47:
 296:main.c        **** 
 297:main.c        **** 
 298:main.c        **** void set_Position(int degrees) {
 299:main.c        ****     int PWM = position_PID(degrees_to_tick(degrees));
 300:main.c        ****     if(PWM > 1000){
 301:main.c        ****         set_PWM(1000);   
 302:main.c        ****     } else if(PWM < -1000) {
 303:main.c        ****         set_PWM(-1000);
 304:main.c        ****     } else {
 305:main.c        ****         set_PWM(PWM);   
 306:main.c        ****     }
 307:main.c        **** }
 308:main.c        **** 
 309:main.c        **** int degrees_to_tick(int degrees){
 731              		.loc 1 309 0
 732              		.cfi_startproc
 733              		@ args = 0, pretend = 0, frame = 0
 734              		@ frame_needed = 0, uses_anonymous_args = 0
 735              		@ link register save eliminated.
 736              	.LVL52:
 310:main.c        ****     int ratio = 1;
 311:main.c        ****     return(degrees * ratio);
 312:main.c        **** }
 737              		.loc 1 312 0
 738              		@ sp needed
 739 0000 7047     		bx	lr
 740              		.cfi_endproc
 741              	.LFE47:
 742              		.size	degrees_to_tick, .-degrees_to_tick
 743 0002 C046     		.section	.text.position_PID,"ax",%progbits
 744              		.align	2
 745              		.global	position_PID
 746              		.code	16
 747              		.thumb_func
 748              		.type	position_PID, %function
 749              	position_PID:
 750              	.LFB48:
ARM GAS  C:\Users\austc\AppData\Local\Temp\cchsT3wG.s 			page 21


 313:main.c        **** 
 314:main.c        **** int position_PID(int target){
 751              		.loc 1 314 0
 752              		.cfi_startproc
 753              		@ args = 0, pretend = 0, frame = 0
 754              		@ frame_needed = 0, uses_anonymous_args = 0
 755              	.LVL53:
 756 0000 10B5     		push	{r4, lr}
 757              		.cfi_def_cfa_offset 8
 758              		.cfi_offset 4, -8
 759              		.cfi_offset 14, -4
 760 0002 0400     		movs	r4, r0
 315:main.c        ****     int current =  QuadDec_GetCounter();
 761              		.loc 1 315 0
 762 0004 FFF7FEFF 		bl	QuadDec_GetCounter
 763              	.LVL54:
 316:main.c        ****     int p = target - current;
 764              		.loc 1 316 0
 765 0008 211A     		subs	r1, r4, r0
 766              	.LVL55:
 317:main.c        ****     i = i + p;
 767              		.loc 1 317 0
 768 000a 064C     		ldr	r4, .L56
 769              	.LVL56:
 770 000c A368     		ldr	r3, [r4, #8]
 771 000e CA18     		adds	r2, r1, r3
 772 0010 A260     		str	r2, [r4, #8]
 318:main.c        ****     int d = p - lastp;
 773              		.loc 1 318 0
 774 0012 E368     		ldr	r3, [r4, #12]
 775 0014 CB1A     		subs	r3, r1, r3
 776              	.LVL57:
 319:main.c        ****     lastp = current;
 777              		.loc 1 319 0
 778 0016 E060     		str	r0, [r4, #12]
 320:main.c        ****     return (p*10 + i*10 + d*10);
 779              		.loc 1 320 0
 780 0018 8A18     		adds	r2, r1, r2
 781 001a 9B18     		adds	r3, r3, r2
 782              	.LVL58:
 783 001c 9A00     		lsls	r2, r3, #2
 784 001e D318     		adds	r3, r2, r3
 785 0020 5800     		lsls	r0, r3, #1
 786              	.LVL59:
 321:main.c        **** }
 787              		.loc 1 321 0
 788              		@ sp needed
 789 0022 10BD     		pop	{r4, pc}
 790              	.L57:
 791              		.align	2
 792              	.L56:
 793 0024 00000000 		.word	.LANCHOR1
 794              		.cfi_endproc
 795              	.LFE48:
 796              		.size	position_PID, .-position_PID
 797              		.section	.text.set_Position,"ax",%progbits
 798              		.align	2
ARM GAS  C:\Users\austc\AppData\Local\Temp\cchsT3wG.s 			page 22


 799              		.global	set_Position
 800              		.code	16
 801              		.thumb_func
 802              		.type	set_Position, %function
 803              	set_Position:
 804              	.LFB46:
 298:main.c        ****     int PWM = position_PID(degrees_to_tick(degrees));
 805              		.loc 1 298 0
 806              		.cfi_startproc
 807              		@ args = 0, pretend = 0, frame = 0
 808              		@ frame_needed = 0, uses_anonymous_args = 0
 809              	.LVL60:
 810 0000 10B5     		push	{r4, lr}
 811              		.cfi_def_cfa_offset 8
 812              		.cfi_offset 4, -8
 813              		.cfi_offset 14, -4
 299:main.c        ****     if(PWM > 1000){
 814              		.loc 1 299 0
 815 0002 FFF7FEFF 		bl	degrees_to_tick
 816              	.LVL61:
 817 0006 FFF7FEFF 		bl	position_PID
 818              	.LVL62:
 300:main.c        ****         set_PWM(1000);   
 819              		.loc 1 300 0
 820 000a FA23     		movs	r3, #250
 821 000c 9B00     		lsls	r3, r3, #2
 822 000e 9842     		cmp	r0, r3
 823 0010 03DD     		ble	.L59
 301:main.c        ****     } else if(PWM < -1000) {
 824              		.loc 1 301 0
 825 0012 1800     		movs	r0, r3
 826              	.LVL63:
 827 0014 FFF7FEFF 		bl	set_PWM
 828              	.LVL64:
 829 0018 08E0     		b	.L58
 830              	.LVL65:
 831              	.L59:
 302:main.c        ****         set_PWM(-1000);
 832              		.loc 1 302 0
 833 001a 054B     		ldr	r3, .L62
 834 001c 9842     		cmp	r0, r3
 835 001e 03DA     		bge	.L61
 303:main.c        ****     } else {
 836              		.loc 1 303 0
 837 0020 1800     		movs	r0, r3
 838              	.LVL66:
 839 0022 FFF7FEFF 		bl	set_PWM
 840              	.LVL67:
 841 0026 01E0     		b	.L58
 842              	.LVL68:
 843              	.L61:
 305:main.c        ****     }
 844              		.loc 1 305 0
 845 0028 FFF7FEFF 		bl	set_PWM
 846              	.LVL69:
 847              	.L58:
 307:main.c        **** 
ARM GAS  C:\Users\austc\AppData\Local\Temp\cchsT3wG.s 			page 23


 848              		.loc 1 307 0
 849              		@ sp needed
 850 002c 10BD     		pop	{r4, pc}
 851              	.L63:
 852 002e C046     		.align	2
 853              	.L62:
 854 0030 18FCFFFF 		.word	-1000
 855              		.cfi_endproc
 856              	.LFE46:
 857              		.size	set_Position, .-set_Position
 858              		.global	receiveMailboxNumber
 859              		.comm	message,16,4
 860              		.comm	data,8,4
 861              		.comm	txData,50,4
 862              		.global	emergency
 863              		.global	mailbox
 864              		.global	isrFlag
 865              		.comm	kd,4,4
 866              		.comm	ki,4,4
 867              		.comm	kp,4,4
 868              		.global	lastp
 869              		.global	i
 870              		.comm	pwm_compare,4,4
 871              		.comm	CAN_TIMEOUT,4,4
 872              		.comm	GEAR_RATIO,4,4
 873              		.global	uart_debug
 874              		.global	CAN_RX_MAILBOX_0
 875              		.global	CAN_RX_MAILBOX_1
 876              		.global	CAN_RX_MAILBOX_0_SHIFT
 877              		.global	CAN_RX_MAILBOX_1_SHIFT
 878              		.global	message_id
 879              		.data
 880              		.align	1
 881              		.set	.LANCHOR0,. + 0
 882              		.type	CAN_RX_MAILBOX_0_SHIFT, %object
 883              		.size	CAN_RX_MAILBOX_0_SHIFT, 2
 884              	CAN_RX_MAILBOX_0_SHIFT:
 885 0000 8000     		.short	128
 886              		.type	receiveMailboxNumber, %object
 887              		.size	receiveMailboxNumber, 1
 888              	receiveMailboxNumber:
 889 0002 FF       		.byte	-1
 890 0003 00       		.space	1
 891              		.type	CAN_RX_MAILBOX_1_SHIFT, %object
 892              		.size	CAN_RX_MAILBOX_1_SHIFT, 2
 893              	CAN_RX_MAILBOX_1_SHIFT:
 894 0004 0100     		.short	1
 895              		.type	uart_debug, %object
 896              		.size	uart_debug, 1
 897              	uart_debug:
 898 0006 01       		.byte	1
 899 0007 00       		.space	1
 900              		.type	CAN_RX_MAILBOX_1, %object
 901              		.size	CAN_RX_MAILBOX_1, 2
 902              	CAN_RX_MAILBOX_1:
 903 0008 0700     		.short	7
 904              		.section	.rodata.str1.4,"aMS",%progbits,1
ARM GAS  C:\Users\austc\AppData\Local\Temp\cchsT3wG.s 			page 24


 905              		.align	2
 906              	.LC5:
 907 0000 43414E20 		.ascii	"CAN dip setting:  %x Message ID: %lx\015\012\000"
 907      64697020 
 907      73657474 
 907      696E673A 
 907      20202578 
 908 0027 00       		.space	1
 909              	.LC11:
 910 0028 43414E5F 		.ascii	"CAN_Start():  %u\015\012\000"
 910      53746172 
 910      7428293A 
 910      20202575 
 910      0D0A00
 911 003b 00       		.space	1
 912              	.LC17:
 913 003c 43414E5F 		.ascii	"CAN_Send_Encoder: byte[0u] %x byte[1u] %x\015\012\000"
 913      53656E64 
 913      5F456E63 
 913      6F646572 
 913      3A206279 
 914              	.LC23:
 915 0068 54656C65 		.ascii	"Telemerty: byte[0u] %x byte[1u] %x\015\012\000"
 915      6D657274 
 915      793A2062 
 915      7974655B 
 915      30755D20 
 916 008d 000000   		.space	3
 917              	.LC29:
 918 0090 4D6F6465 		.ascii	"Model: byte[0u] %x byte[1u] %x\015\012\000"
 918      6C3A2062 
 918      7974655B 
 918      30755D20 
 918      25782062 
 919              		.bss
 920              		.align	2
 921              		.set	.LANCHOR1,. + 0
 922              		.type	emergency, %object
 923              		.size	emergency, 1
 924              	emergency:
 925 0000 00       		.space	1
 926 0001 000000   		.space	3
 927              		.type	message_id, %object
 928              		.size	message_id, 4
 929              	message_id:
 930 0004 00000000 		.space	4
 931              		.type	i, %object
 932              		.size	i, 4
 933              	i:
 934 0008 00000000 		.space	4
 935              		.type	lastp, %object
 936              		.size	lastp, 4
 937              	lastp:
 938 000c 00000000 		.space	4
 939              		.type	mailbox, %object
 940              		.size	mailbox, 4
 941              	mailbox:
ARM GAS  C:\Users\austc\AppData\Local\Temp\cchsT3wG.s 			page 25


 942 0010 00000000 		.space	4
 943              		.type	isrFlag, %object
 944              		.size	isrFlag, 1
 945              	isrFlag:
 946 0014 00       		.space	1
 947 0015 00       		.space	1
 948              		.type	CAN_RX_MAILBOX_0, %object
 949              		.size	CAN_RX_MAILBOX_0, 2
 950              	CAN_RX_MAILBOX_0:
 951 0016 0000     		.space	2
 952              		.text
 953              	.Letext0:
 954              		.file 2 "Generated_Source\\PSoC4/cytypes.h"
 955              		.file 3 "Generated_Source\\PSoC4/CAN.h"
 956              		.file 4 "Generated_Source\\PSoC4/PWM_Motor.h"
 957              		.file 5 "Generated_Source\\PSoC4/Can_addr.h"
 958              		.file 6 "c:\\program files (x86)\\cypress\\psoc creator\\4.2\\psoc creator\\import\\gnu\\arm\\5.4.
 959              		.file 7 "Generated_Source\\PSoC4/UART_SPI_UART.h"
 960              		.file 8 "Generated_Source\\PSoC4/ADC_SAR_Seq_1.h"
 961              		.file 9 "Generated_Source\\PSoC4/QuadDec.h"
 962              		.file 10 "Generated_Source\\PSoC4/UART.h"
 963              		.file 11 "Generated_Source\\PSoC4/CyLib.h"
 964              		.file 12 "Generated_Source\\PSoC4/Status_Reg_Switches.h"
 965              		.file 13 "Generated_Source\\PSoC4/Pin_Direction.h"
 966              		.file 14 "Generated_Source\\PSoC4/Pin_Limit_1.h"